
MidTermProject.elf:     file format elf32-littlearm

Sections:
Idx Name          Size      VMA       LMA       File off  Algn
  0 .isr_vector   00000194  08000000  08000000  00001000  2**0
                  CONTENTS, ALLOC, LOAD, READONLY, DATA
  1 .text         0000831c  080001a0  080001a0  000011a0  2**4
                  CONTENTS, ALLOC, LOAD, READONLY, CODE
  2 .rodata       000004a8  080084c0  080084c0  000094c0  2**3
                  CONTENTS, ALLOC, LOAD, READONLY, DATA
  3 .ARM.extab    00000000  08008968  08008968  0000a1d4  2**0
                  CONTENTS
  4 .ARM          00000008  08008968  08008968  00009968  2**2
                  CONTENTS, ALLOC, LOAD, READONLY, DATA
  5 .preinit_array 00000000  08008970  08008970  0000a1d4  2**0
                  CONTENTS, ALLOC, LOAD, DATA
  6 .init_array   00000004  08008970  08008970  00009970  2**2
                  CONTENTS, ALLOC, LOAD, READONLY, DATA
  7 .fini_array   00000004  08008974  08008974  00009974  2**2
                  CONTENTS, ALLOC, LOAD, READONLY, DATA
  8 .data         000001d4  20000000  08008978  0000a000  2**2
                  CONTENTS, ALLOC, LOAD, DATA
  9 .bss          00000200  200001d4  08008b4c  0000a1d4  2**2
                  ALLOC
 10 ._user_heap_stack 00000604  200003d4  08008b4c  0000a3d4  2**0
                  ALLOC
 11 .ARM.attributes 00000030  00000000  00000000  0000a1d4  2**0
                  CONTENTS, READONLY
 12 .debug_info   0000a13f  00000000  00000000  0000a204  2**0
                  CONTENTS, READONLY, DEBUGGING, OCTETS
 13 .debug_abbrev 00001e16  00000000  00000000  00014343  2**0
                  CONTENTS, READONLY, DEBUGGING, OCTETS
 14 .debug_aranges 00000890  00000000  00000000  00016160  2**3
                  CONTENTS, READONLY, DEBUGGING, OCTETS
 15 .debug_rnglists 0000066b  00000000  00000000  000169f0  2**0
                  CONTENTS, READONLY, DEBUGGING, OCTETS
 16 .debug_macro  0001809c  00000000  00000000  0001705b  2**0
                  CONTENTS, READONLY, DEBUGGING, OCTETS
 17 .debug_line   0000c377  00000000  00000000  0002f0f7  2**0
                  CONTENTS, READONLY, DEBUGGING, OCTETS
 18 .debug_str    00093093  00000000  00000000  0003b46e  2**0
                  CONTENTS, READONLY, DEBUGGING, OCTETS
 19 .comment      00000043  00000000  00000000  000ce501  2**0
                  CONTENTS, READONLY
 20 .debug_frame  000036e8  00000000  00000000  000ce544  2**2
                  CONTENTS, READONLY, DEBUGGING, OCTETS
 21 .debug_line_str 00000074  00000000  00000000  000d1c2c  2**0
                  CONTENTS, READONLY, DEBUGGING, OCTETS

Disassembly of section .text:

080001a0 <__do_global_dtors_aux>:
 80001a0:	b510      	push	{r4, lr}
 80001a2:	4c05      	ldr	r4, [pc, #20]	@ (80001b8 <__do_global_dtors_aux+0x18>)
 80001a4:	7823      	ldrb	r3, [r4, #0]
 80001a6:	b933      	cbnz	r3, 80001b6 <__do_global_dtors_aux+0x16>
 80001a8:	4b04      	ldr	r3, [pc, #16]	@ (80001bc <__do_global_dtors_aux+0x1c>)
 80001aa:	b113      	cbz	r3, 80001b2 <__do_global_dtors_aux+0x12>
 80001ac:	4804      	ldr	r0, [pc, #16]	@ (80001c0 <__do_global_dtors_aux+0x20>)
 80001ae:	f3af 8000 	nop.w
 80001b2:	2301      	movs	r3, #1
 80001b4:	7023      	strb	r3, [r4, #0]
 80001b6:	bd10      	pop	{r4, pc}
 80001b8:	200001d4 	.word	0x200001d4
 80001bc:	00000000 	.word	0x00000000
 80001c0:	080084a4 	.word	0x080084a4

080001c4 <frame_dummy>:
 80001c4:	b508      	push	{r3, lr}
 80001c6:	4b03      	ldr	r3, [pc, #12]	@ (80001d4 <frame_dummy+0x10>)
 80001c8:	b11b      	cbz	r3, 80001d2 <frame_dummy+0xe>
 80001ca:	4903      	ldr	r1, [pc, #12]	@ (80001d8 <frame_dummy+0x14>)
 80001cc:	4803      	ldr	r0, [pc, #12]	@ (80001dc <frame_dummy+0x18>)
 80001ce:	f3af 8000 	nop.w
 80001d2:	bd08      	pop	{r3, pc}
 80001d4:	00000000 	.word	0x00000000
 80001d8:	200001d8 	.word	0x200001d8
 80001dc:	080084a4 	.word	0x080084a4

080001e0 <memchr>:
 80001e0:	f001 01ff 	and.w	r1, r1, #255	@ 0xff
 80001e4:	2a10      	cmp	r2, #16
 80001e6:	db2b      	blt.n	8000240 <memchr+0x60>
 80001e8:	f010 0f07 	tst.w	r0, #7
 80001ec:	d008      	beq.n	8000200 <memchr+0x20>
 80001ee:	f810 3b01 	ldrb.w	r3, [r0], #1
 80001f2:	3a01      	subs	r2, #1
 80001f4:	428b      	cmp	r3, r1
 80001f6:	d02d      	beq.n	8000254 <memchr+0x74>
 80001f8:	f010 0f07 	tst.w	r0, #7
 80001fc:	b342      	cbz	r2, 8000250 <memchr+0x70>
 80001fe:	d1f6      	bne.n	80001ee <memchr+0xe>
 8000200:	b4f0      	push	{r4, r5, r6, r7}
 8000202:	ea41 2101 	orr.w	r1, r1, r1, lsl #8
 8000206:	ea41 4101 	orr.w	r1, r1, r1, lsl #16
 800020a:	f022 0407 	bic.w	r4, r2, #7
 800020e:	f07f 0700 	mvns.w	r7, #0
 8000212:	2300      	movs	r3, #0
 8000214:	e8f0 5602 	ldrd	r5, r6, [r0], #8
 8000218:	3c08      	subs	r4, #8
 800021a:	ea85 0501 	eor.w	r5, r5, r1
 800021e:	ea86 0601 	eor.w	r6, r6, r1
 8000222:	fa85 f547 	uadd8	r5, r5, r7
 8000226:	faa3 f587 	sel	r5, r3, r7
 800022a:	fa86 f647 	uadd8	r6, r6, r7
 800022e:	faa5 f687 	sel	r6, r5, r7
 8000232:	b98e      	cbnz	r6, 8000258 <memchr+0x78>
 8000234:	d1ee      	bne.n	8000214 <memchr+0x34>
 8000236:	bcf0      	pop	{r4, r5, r6, r7}
 8000238:	f001 01ff 	and.w	r1, r1, #255	@ 0xff
 800023c:	f002 0207 	and.w	r2, r2, #7
 8000240:	b132      	cbz	r2, 8000250 <memchr+0x70>
 8000242:	f810 3b01 	ldrb.w	r3, [r0], #1
 8000246:	3a01      	subs	r2, #1
 8000248:	ea83 0301 	eor.w	r3, r3, r1
 800024c:	b113      	cbz	r3, 8000254 <memchr+0x74>
 800024e:	d1f8      	bne.n	8000242 <memchr+0x62>
 8000250:	2000      	movs	r0, #0
 8000252:	4770      	bx	lr
 8000254:	3801      	subs	r0, #1
 8000256:	4770      	bx	lr
 8000258:	2d00      	cmp	r5, #0
 800025a:	bf06      	itte	eq
 800025c:	4635      	moveq	r5, r6
 800025e:	3803      	subeq	r0, #3
 8000260:	3807      	subne	r0, #7
 8000262:	f015 0f01 	tst.w	r5, #1
 8000266:	d107      	bne.n	8000278 <memchr+0x98>
 8000268:	3001      	adds	r0, #1
 800026a:	f415 7f80 	tst.w	r5, #256	@ 0x100
 800026e:	bf02      	ittt	eq
 8000270:	3001      	addeq	r0, #1
 8000272:	f415 3fc0 	tsteq.w	r5, #98304	@ 0x18000
 8000276:	3001      	addeq	r0, #1
 8000278:	bcf0      	pop	{r4, r5, r6, r7}
 800027a:	3801      	subs	r0, #1
 800027c:	4770      	bx	lr
 800027e:	bf00      	nop

08000280 <strlen>:
 8000280:	4603      	mov	r3, r0
 8000282:	f813 2b01 	ldrb.w	r2, [r3], #1
 8000286:	2a00      	cmp	r2, #0
 8000288:	d1fb      	bne.n	8000282 <strlen+0x2>
 800028a:	1a18      	subs	r0, r3, r0
 800028c:	3801      	subs	r0, #1
 800028e:	4770      	bx	lr

08000290 <__aeabi_drsub>:
 8000290:	f081 4100 	eor.w	r1, r1, #2147483648	@ 0x80000000
 8000294:	e002      	b.n	800029c <__adddf3>
 8000296:	bf00      	nop

08000298 <__aeabi_dsub>:
 8000298:	f083 4300 	eor.w	r3, r3, #2147483648	@ 0x80000000

0800029c <__adddf3>:
 800029c:	b530      	push	{r4, r5, lr}
 800029e:	ea4f 0441 	mov.w	r4, r1, lsl #1
 80002a2:	ea4f 0543 	mov.w	r5, r3, lsl #1
 80002a6:	ea94 0f05 	teq	r4, r5
 80002aa:	bf08      	it	eq
 80002ac:	ea90 0f02 	teqeq	r0, r2
 80002b0:	bf1f      	itttt	ne
 80002b2:	ea54 0c00 	orrsne.w	ip, r4, r0
 80002b6:	ea55 0c02 	orrsne.w	ip, r5, r2
 80002ba:	ea7f 5c64 	mvnsne.w	ip, r4, asr #21
 80002be:	ea7f 5c65 	mvnsne.w	ip, r5, asr #21
 80002c2:	f000 80e2 	beq.w	800048a <__adddf3+0x1ee>
 80002c6:	ea4f 5454 	mov.w	r4, r4, lsr #21
 80002ca:	ebd4 5555 	rsbs	r5, r4, r5, lsr #21
 80002ce:	bfb8      	it	lt
 80002d0:	426d      	neglt	r5, r5
 80002d2:	dd0c      	ble.n	80002ee <__adddf3+0x52>
 80002d4:	442c      	add	r4, r5
 80002d6:	ea80 0202 	eor.w	r2, r0, r2
 80002da:	ea81 0303 	eor.w	r3, r1, r3
 80002de:	ea82 0000 	eor.w	r0, r2, r0
 80002e2:	ea83 0101 	eor.w	r1, r3, r1
 80002e6:	ea80 0202 	eor.w	r2, r0, r2
 80002ea:	ea81 0303 	eor.w	r3, r1, r3
 80002ee:	2d36      	cmp	r5, #54	@ 0x36
 80002f0:	bf88      	it	hi
 80002f2:	bd30      	pophi	{r4, r5, pc}
 80002f4:	f011 4f00 	tst.w	r1, #2147483648	@ 0x80000000
 80002f8:	ea4f 3101 	mov.w	r1, r1, lsl #12
 80002fc:	f44f 1c80 	mov.w	ip, #1048576	@ 0x100000
 8000300:	ea4c 3111 	orr.w	r1, ip, r1, lsr #12
 8000304:	d002      	beq.n	800030c <__adddf3+0x70>
 8000306:	4240      	negs	r0, r0
 8000308:	eb61 0141 	sbc.w	r1, r1, r1, lsl #1
 800030c:	f013 4f00 	tst.w	r3, #2147483648	@ 0x80000000
 8000310:	ea4f 3303 	mov.w	r3, r3, lsl #12
 8000314:	ea4c 3313 	orr.w	r3, ip, r3, lsr #12
 8000318:	d002      	beq.n	8000320 <__adddf3+0x84>
 800031a:	4252      	negs	r2, r2
 800031c:	eb63 0343 	sbc.w	r3, r3, r3, lsl #1
 8000320:	ea94 0f05 	teq	r4, r5
 8000324:	f000 80a7 	beq.w	8000476 <__adddf3+0x1da>
 8000328:	f1a4 0401 	sub.w	r4, r4, #1
 800032c:	f1d5 0e20 	rsbs	lr, r5, #32
 8000330:	db0d      	blt.n	800034e <__adddf3+0xb2>
 8000332:	fa02 fc0e 	lsl.w	ip, r2, lr
 8000336:	fa22 f205 	lsr.w	r2, r2, r5
 800033a:	1880      	adds	r0, r0, r2
 800033c:	f141 0100 	adc.w	r1, r1, #0
 8000340:	fa03 f20e 	lsl.w	r2, r3, lr
 8000344:	1880      	adds	r0, r0, r2
 8000346:	fa43 f305 	asr.w	r3, r3, r5
 800034a:	4159      	adcs	r1, r3
 800034c:	e00e      	b.n	800036c <__adddf3+0xd0>
 800034e:	f1a5 0520 	sub.w	r5, r5, #32
 8000352:	f10e 0e20 	add.w	lr, lr, #32
 8000356:	2a01      	cmp	r2, #1
 8000358:	fa03 fc0e 	lsl.w	ip, r3, lr
 800035c:	bf28      	it	cs
 800035e:	f04c 0c02 	orrcs.w	ip, ip, #2
 8000362:	fa43 f305 	asr.w	r3, r3, r5
 8000366:	18c0      	adds	r0, r0, r3
 8000368:	eb51 71e3 	adcs.w	r1, r1, r3, asr #31
 800036c:	f001 4500 	and.w	r5, r1, #2147483648	@ 0x80000000
 8000370:	d507      	bpl.n	8000382 <__adddf3+0xe6>
 8000372:	f04f 0e00 	mov.w	lr, #0
 8000376:	f1dc 0c00 	rsbs	ip, ip, #0
 800037a:	eb7e 0000 	sbcs.w	r0, lr, r0
 800037e:	eb6e 0101 	sbc.w	r1, lr, r1
 8000382:	f5b1 1f80 	cmp.w	r1, #1048576	@ 0x100000
 8000386:	d31b      	bcc.n	80003c0 <__adddf3+0x124>
 8000388:	f5b1 1f00 	cmp.w	r1, #2097152	@ 0x200000
 800038c:	d30c      	bcc.n	80003a8 <__adddf3+0x10c>
 800038e:	0849      	lsrs	r1, r1, #1
 8000390:	ea5f 0030 	movs.w	r0, r0, rrx
 8000394:	ea4f 0c3c 	mov.w	ip, ip, rrx
 8000398:	f104 0401 	add.w	r4, r4, #1
 800039c:	ea4f 5244 	mov.w	r2, r4, lsl #21
 80003a0:	f512 0f80 	cmn.w	r2, #4194304	@ 0x400000
 80003a4:	f080 809a 	bcs.w	80004dc <__adddf3+0x240>
 80003a8:	f1bc 4f00 	cmp.w	ip, #2147483648	@ 0x80000000
 80003ac:	bf08      	it	eq
 80003ae:	ea5f 0c50 	movseq.w	ip, r0, lsr #1
 80003b2:	f150 0000 	adcs.w	r0, r0, #0
 80003b6:	eb41 5104 	adc.w	r1, r1, r4, lsl #20
 80003ba:	ea41 0105 	orr.w	r1, r1, r5
 80003be:	bd30      	pop	{r4, r5, pc}
 80003c0:	ea5f 0c4c 	movs.w	ip, ip, lsl #1
 80003c4:	4140      	adcs	r0, r0
 80003c6:	eb41 0101 	adc.w	r1, r1, r1
 80003ca:	3c01      	subs	r4, #1
 80003cc:	bf28      	it	cs
 80003ce:	f5b1 1f80 	cmpcs.w	r1, #1048576	@ 0x100000
 80003d2:	d2e9      	bcs.n	80003a8 <__adddf3+0x10c>
 80003d4:	f091 0f00 	teq	r1, #0
 80003d8:	bf04      	itt	eq
 80003da:	4601      	moveq	r1, r0
 80003dc:	2000      	moveq	r0, #0
 80003de:	fab1 f381 	clz	r3, r1
 80003e2:	bf08      	it	eq
 80003e4:	3320      	addeq	r3, #32
 80003e6:	f1a3 030b 	sub.w	r3, r3, #11
 80003ea:	f1b3 0220 	subs.w	r2, r3, #32
 80003ee:	da0c      	bge.n	800040a <__adddf3+0x16e>
 80003f0:	320c      	adds	r2, #12
 80003f2:	dd08      	ble.n	8000406 <__adddf3+0x16a>
 80003f4:	f102 0c14 	add.w	ip, r2, #20
 80003f8:	f1c2 020c 	rsb	r2, r2, #12
 80003fc:	fa01 f00c 	lsl.w	r0, r1, ip
 8000400:	fa21 f102 	lsr.w	r1, r1, r2
 8000404:	e00c      	b.n	8000420 <__adddf3+0x184>
 8000406:	f102 0214 	add.w	r2, r2, #20
 800040a:	bfd8      	it	le
 800040c:	f1c2 0c20 	rsble	ip, r2, #32
 8000410:	fa01 f102 	lsl.w	r1, r1, r2
 8000414:	fa20 fc0c 	lsr.w	ip, r0, ip
 8000418:	bfdc      	itt	le
 800041a:	ea41 010c 	orrle.w	r1, r1, ip
 800041e:	4090      	lslle	r0, r2
 8000420:	1ae4      	subs	r4, r4, r3
 8000422:	bfa2      	ittt	ge
 8000424:	eb01 5104 	addge.w	r1, r1, r4, lsl #20
 8000428:	4329      	orrge	r1, r5
 800042a:	bd30      	popge	{r4, r5, pc}
 800042c:	ea6f 0404 	mvn.w	r4, r4
 8000430:	3c1f      	subs	r4, #31
 8000432:	da1c      	bge.n	800046e <__adddf3+0x1d2>
 8000434:	340c      	adds	r4, #12
 8000436:	dc0e      	bgt.n	8000456 <__adddf3+0x1ba>
 8000438:	f104 0414 	add.w	r4, r4, #20
 800043c:	f1c4 0220 	rsb	r2, r4, #32
 8000440:	fa20 f004 	lsr.w	r0, r0, r4
 8000444:	fa01 f302 	lsl.w	r3, r1, r2
 8000448:	ea40 0003 	orr.w	r0, r0, r3
 800044c:	fa21 f304 	lsr.w	r3, r1, r4
 8000450:	ea45 0103 	orr.w	r1, r5, r3
 8000454:	bd30      	pop	{r4, r5, pc}
 8000456:	f1c4 040c 	rsb	r4, r4, #12
 800045a:	f1c4 0220 	rsb	r2, r4, #32
 800045e:	fa20 f002 	lsr.w	r0, r0, r2
 8000462:	fa01 f304 	lsl.w	r3, r1, r4
 8000466:	ea40 0003 	orr.w	r0, r0, r3
 800046a:	4629      	mov	r1, r5
 800046c:	bd30      	pop	{r4, r5, pc}
 800046e:	fa21 f004 	lsr.w	r0, r1, r4
 8000472:	4629      	mov	r1, r5
 8000474:	bd30      	pop	{r4, r5, pc}
 8000476:	f094 0f00 	teq	r4, #0
 800047a:	f483 1380 	eor.w	r3, r3, #1048576	@ 0x100000
 800047e:	bf06      	itte	eq
 8000480:	f481 1180 	eoreq.w	r1, r1, #1048576	@ 0x100000
 8000484:	3401      	addeq	r4, #1
 8000486:	3d01      	subne	r5, #1
 8000488:	e74e      	b.n	8000328 <__adddf3+0x8c>
 800048a:	ea7f 5c64 	mvns.w	ip, r4, asr #21
 800048e:	bf18      	it	ne
 8000490:	ea7f 5c65 	mvnsne.w	ip, r5, asr #21
 8000494:	d029      	beq.n	80004ea <__adddf3+0x24e>
 8000496:	ea94 0f05 	teq	r4, r5
 800049a:	bf08      	it	eq
 800049c:	ea90 0f02 	teqeq	r0, r2
 80004a0:	d005      	beq.n	80004ae <__adddf3+0x212>
 80004a2:	ea54 0c00 	orrs.w	ip, r4, r0
 80004a6:	bf04      	itt	eq
 80004a8:	4619      	moveq	r1, r3
 80004aa:	4610      	moveq	r0, r2
 80004ac:	bd30      	pop	{r4, r5, pc}
 80004ae:	ea91 0f03 	teq	r1, r3
 80004b2:	bf1e      	ittt	ne
 80004b4:	2100      	movne	r1, #0
 80004b6:	2000      	movne	r0, #0
 80004b8:	bd30      	popne	{r4, r5, pc}
 80004ba:	ea5f 5c54 	movs.w	ip, r4, lsr #21
 80004be:	d105      	bne.n	80004cc <__adddf3+0x230>
 80004c0:	0040      	lsls	r0, r0, #1
 80004c2:	4149      	adcs	r1, r1
 80004c4:	bf28      	it	cs
 80004c6:	f041 4100 	orrcs.w	r1, r1, #2147483648	@ 0x80000000
 80004ca:	bd30      	pop	{r4, r5, pc}
 80004cc:	f514 0480 	adds.w	r4, r4, #4194304	@ 0x400000
 80004d0:	bf3c      	itt	cc
 80004d2:	f501 1180 	addcc.w	r1, r1, #1048576	@ 0x100000
 80004d6:	bd30      	popcc	{r4, r5, pc}
 80004d8:	f001 4500 	and.w	r5, r1, #2147483648	@ 0x80000000
 80004dc:	f045 41fe 	orr.w	r1, r5, #2130706432	@ 0x7f000000
 80004e0:	f441 0170 	orr.w	r1, r1, #15728640	@ 0xf00000
 80004e4:	f04f 0000 	mov.w	r0, #0
 80004e8:	bd30      	pop	{r4, r5, pc}
 80004ea:	ea7f 5c64 	mvns.w	ip, r4, asr #21
 80004ee:	bf1a      	itte	ne
 80004f0:	4619      	movne	r1, r3
 80004f2:	4610      	movne	r0, r2
 80004f4:	ea7f 5c65 	mvnseq.w	ip, r5, asr #21
 80004f8:	bf1c      	itt	ne
 80004fa:	460b      	movne	r3, r1
 80004fc:	4602      	movne	r2, r0
 80004fe:	ea50 3401 	orrs.w	r4, r0, r1, lsl #12
 8000502:	bf06      	itte	eq
 8000504:	ea52 3503 	orrseq.w	r5, r2, r3, lsl #12
 8000508:	ea91 0f03 	teqeq	r1, r3
 800050c:	f441 2100 	orrne.w	r1, r1, #524288	@ 0x80000
 8000510:	bd30      	pop	{r4, r5, pc}
 8000512:	bf00      	nop

08000514 <__aeabi_ui2d>:
 8000514:	f090 0f00 	teq	r0, #0
 8000518:	bf04      	itt	eq
 800051a:	2100      	moveq	r1, #0
 800051c:	4770      	bxeq	lr
 800051e:	b530      	push	{r4, r5, lr}
 8000520:	f44f 6480 	mov.w	r4, #1024	@ 0x400
 8000524:	f104 0432 	add.w	r4, r4, #50	@ 0x32
 8000528:	f04f 0500 	mov.w	r5, #0
 800052c:	f04f 0100 	mov.w	r1, #0
 8000530:	e750      	b.n	80003d4 <__adddf3+0x138>
 8000532:	bf00      	nop

08000534 <__aeabi_i2d>:
 8000534:	f090 0f00 	teq	r0, #0
 8000538:	bf04      	itt	eq
 800053a:	2100      	moveq	r1, #0
 800053c:	4770      	bxeq	lr
 800053e:	b530      	push	{r4, r5, lr}
 8000540:	f44f 6480 	mov.w	r4, #1024	@ 0x400
 8000544:	f104 0432 	add.w	r4, r4, #50	@ 0x32
 8000548:	f010 4500 	ands.w	r5, r0, #2147483648	@ 0x80000000
 800054c:	bf48      	it	mi
 800054e:	4240      	negmi	r0, r0
 8000550:	f04f 0100 	mov.w	r1, #0
 8000554:	e73e      	b.n	80003d4 <__adddf3+0x138>
 8000556:	bf00      	nop

08000558 <__aeabi_f2d>:
 8000558:	0042      	lsls	r2, r0, #1
 800055a:	ea4f 01e2 	mov.w	r1, r2, asr #3
 800055e:	ea4f 0131 	mov.w	r1, r1, rrx
 8000562:	ea4f 7002 	mov.w	r0, r2, lsl #28
 8000566:	bf1f      	itttt	ne
 8000568:	f012 437f 	andsne.w	r3, r2, #4278190080	@ 0xff000000
 800056c:	f093 4f7f 	teqne	r3, #4278190080	@ 0xff000000
 8000570:	f081 5160 	eorne.w	r1, r1, #939524096	@ 0x38000000
 8000574:	4770      	bxne	lr
 8000576:	f032 427f 	bics.w	r2, r2, #4278190080	@ 0xff000000
 800057a:	bf08      	it	eq
 800057c:	4770      	bxeq	lr
 800057e:	f093 4f7f 	teq	r3, #4278190080	@ 0xff000000
 8000582:	bf04      	itt	eq
 8000584:	f441 2100 	orreq.w	r1, r1, #524288	@ 0x80000
 8000588:	4770      	bxeq	lr
 800058a:	b530      	push	{r4, r5, lr}
 800058c:	f44f 7460 	mov.w	r4, #896	@ 0x380
 8000590:	f001 4500 	and.w	r5, r1, #2147483648	@ 0x80000000
 8000594:	f021 4100 	bic.w	r1, r1, #2147483648	@ 0x80000000
 8000598:	e71c      	b.n	80003d4 <__adddf3+0x138>
 800059a:	bf00      	nop

0800059c <__aeabi_ul2d>:
 800059c:	ea50 0201 	orrs.w	r2, r0, r1
 80005a0:	bf08      	it	eq
 80005a2:	4770      	bxeq	lr
 80005a4:	b530      	push	{r4, r5, lr}
 80005a6:	f04f 0500 	mov.w	r5, #0
 80005aa:	e00a      	b.n	80005c2 <__aeabi_l2d+0x16>

080005ac <__aeabi_l2d>:
 80005ac:	ea50 0201 	orrs.w	r2, r0, r1
 80005b0:	bf08      	it	eq
 80005b2:	4770      	bxeq	lr
 80005b4:	b530      	push	{r4, r5, lr}
 80005b6:	f011 4500 	ands.w	r5, r1, #2147483648	@ 0x80000000
 80005ba:	d502      	bpl.n	80005c2 <__aeabi_l2d+0x16>
 80005bc:	4240      	negs	r0, r0
 80005be:	eb61 0141 	sbc.w	r1, r1, r1, lsl #1
 80005c2:	f44f 6480 	mov.w	r4, #1024	@ 0x400
 80005c6:	f104 0432 	add.w	r4, r4, #50	@ 0x32
 80005ca:	ea5f 5c91 	movs.w	ip, r1, lsr #22
 80005ce:	f43f aed8 	beq.w	8000382 <__adddf3+0xe6>
 80005d2:	f04f 0203 	mov.w	r2, #3
 80005d6:	ea5f 0cdc 	movs.w	ip, ip, lsr #3
 80005da:	bf18      	it	ne
 80005dc:	3203      	addne	r2, #3
 80005de:	ea5f 0cdc 	movs.w	ip, ip, lsr #3
 80005e2:	bf18      	it	ne
 80005e4:	3203      	addne	r2, #3
 80005e6:	eb02 02dc 	add.w	r2, r2, ip, lsr #3
 80005ea:	f1c2 0320 	rsb	r3, r2, #32
 80005ee:	fa00 fc03 	lsl.w	ip, r0, r3
 80005f2:	fa20 f002 	lsr.w	r0, r0, r2
 80005f6:	fa01 fe03 	lsl.w	lr, r1, r3
 80005fa:	ea40 000e 	orr.w	r0, r0, lr
 80005fe:	fa21 f102 	lsr.w	r1, r1, r2
 8000602:	4414      	add	r4, r2
 8000604:	e6bd      	b.n	8000382 <__adddf3+0xe6>
 8000606:	bf00      	nop

08000608 <__aeabi_dmul>:
 8000608:	b570      	push	{r4, r5, r6, lr}
 800060a:	f04f 0cff 	mov.w	ip, #255	@ 0xff
 800060e:	f44c 6ce0 	orr.w	ip, ip, #1792	@ 0x700
 8000612:	ea1c 5411 	ands.w	r4, ip, r1, lsr #20
 8000616:	bf1d      	ittte	ne
 8000618:	ea1c 5513 	andsne.w	r5, ip, r3, lsr #20
 800061c:	ea94 0f0c 	teqne	r4, ip
 8000620:	ea95 0f0c 	teqne	r5, ip
 8000624:	f000 f8de 	bleq	80007e4 <__aeabi_dmul+0x1dc>
 8000628:	442c      	add	r4, r5
 800062a:	ea81 0603 	eor.w	r6, r1, r3
 800062e:	ea21 514c 	bic.w	r1, r1, ip, lsl #21
 8000632:	ea23 534c 	bic.w	r3, r3, ip, lsl #21
 8000636:	ea50 3501 	orrs.w	r5, r0, r1, lsl #12
 800063a:	bf18      	it	ne
 800063c:	ea52 3503 	orrsne.w	r5, r2, r3, lsl #12
 8000640:	f441 1180 	orr.w	r1, r1, #1048576	@ 0x100000
 8000644:	f443 1380 	orr.w	r3, r3, #1048576	@ 0x100000
 8000648:	d038      	beq.n	80006bc <__aeabi_dmul+0xb4>
 800064a:	fba0 ce02 	umull	ip, lr, r0, r2
 800064e:	f04f 0500 	mov.w	r5, #0
 8000652:	fbe1 e502 	umlal	lr, r5, r1, r2
 8000656:	f006 4200 	and.w	r2, r6, #2147483648	@ 0x80000000
 800065a:	fbe0 e503 	umlal	lr, r5, r0, r3
 800065e:	f04f 0600 	mov.w	r6, #0
 8000662:	fbe1 5603 	umlal	r5, r6, r1, r3
 8000666:	f09c 0f00 	teq	ip, #0
 800066a:	bf18      	it	ne
 800066c:	f04e 0e01 	orrne.w	lr, lr, #1
 8000670:	f1a4 04ff 	sub.w	r4, r4, #255	@ 0xff
 8000674:	f5b6 7f00 	cmp.w	r6, #512	@ 0x200
 8000678:	f564 7440 	sbc.w	r4, r4, #768	@ 0x300
 800067c:	d204      	bcs.n	8000688 <__aeabi_dmul+0x80>
 800067e:	ea5f 0e4e 	movs.w	lr, lr, lsl #1
 8000682:	416d      	adcs	r5, r5
 8000684:	eb46 0606 	adc.w	r6, r6, r6
 8000688:	ea42 21c6 	orr.w	r1, r2, r6, lsl #11
 800068c:	ea41 5155 	orr.w	r1, r1, r5, lsr #21
 8000690:	ea4f 20c5 	mov.w	r0, r5, lsl #11
 8000694:	ea40 505e 	orr.w	r0, r0, lr, lsr #21
 8000698:	ea4f 2ece 	mov.w	lr, lr, lsl #11
 800069c:	f1b4 0cfd 	subs.w	ip, r4, #253	@ 0xfd
 80006a0:	bf88      	it	hi
 80006a2:	f5bc 6fe0 	cmphi.w	ip, #1792	@ 0x700
 80006a6:	d81e      	bhi.n	80006e6 <__aeabi_dmul+0xde>
 80006a8:	f1be 4f00 	cmp.w	lr, #2147483648	@ 0x80000000
 80006ac:	bf08      	it	eq
 80006ae:	ea5f 0e50 	movseq.w	lr, r0, lsr #1
 80006b2:	f150 0000 	adcs.w	r0, r0, #0
 80006b6:	eb41 5104 	adc.w	r1, r1, r4, lsl #20
 80006ba:	bd70      	pop	{r4, r5, r6, pc}
 80006bc:	f006 4600 	and.w	r6, r6, #2147483648	@ 0x80000000
 80006c0:	ea46 0101 	orr.w	r1, r6, r1
 80006c4:	ea40 0002 	orr.w	r0, r0, r2
 80006c8:	ea81 0103 	eor.w	r1, r1, r3
 80006cc:	ebb4 045c 	subs.w	r4, r4, ip, lsr #1
 80006d0:	bfc2      	ittt	gt
 80006d2:	ebd4 050c 	rsbsgt	r5, r4, ip
 80006d6:	ea41 5104 	orrgt.w	r1, r1, r4, lsl #20
 80006da:	bd70      	popgt	{r4, r5, r6, pc}
 80006dc:	f441 1180 	orr.w	r1, r1, #1048576	@ 0x100000
 80006e0:	f04f 0e00 	mov.w	lr, #0
 80006e4:	3c01      	subs	r4, #1
 80006e6:	f300 80ab 	bgt.w	8000840 <__aeabi_dmul+0x238>
 80006ea:	f114 0f36 	cmn.w	r4, #54	@ 0x36
 80006ee:	bfde      	ittt	le
 80006f0:	2000      	movle	r0, #0
 80006f2:	f001 4100 	andle.w	r1, r1, #2147483648	@ 0x80000000
 80006f6:	bd70      	pople	{r4, r5, r6, pc}
 80006f8:	f1c4 0400 	rsb	r4, r4, #0
 80006fc:	3c20      	subs	r4, #32
 80006fe:	da35      	bge.n	800076c <__aeabi_dmul+0x164>
 8000700:	340c      	adds	r4, #12
 8000702:	dc1b      	bgt.n	800073c <__aeabi_dmul+0x134>
 8000704:	f104 0414 	add.w	r4, r4, #20
 8000708:	f1c4 0520 	rsb	r5, r4, #32
 800070c:	fa00 f305 	lsl.w	r3, r0, r5
 8000710:	fa20 f004 	lsr.w	r0, r0, r4
 8000714:	fa01 f205 	lsl.w	r2, r1, r5
 8000718:	ea40 0002 	orr.w	r0, r0, r2
 800071c:	f001 4200 	and.w	r2, r1, #2147483648	@ 0x80000000
 8000720:	f021 4100 	bic.w	r1, r1, #2147483648	@ 0x80000000
 8000724:	eb10 70d3 	adds.w	r0, r0, r3, lsr #31
 8000728:	fa21 f604 	lsr.w	r6, r1, r4
 800072c:	eb42 0106 	adc.w	r1, r2, r6
 8000730:	ea5e 0e43 	orrs.w	lr, lr, r3, lsl #1
 8000734:	bf08      	it	eq
 8000736:	ea20 70d3 	biceq.w	r0, r0, r3, lsr #31
 800073a:	bd70      	pop	{r4, r5, r6, pc}
 800073c:	f1c4 040c 	rsb	r4, r4, #12
 8000740:	f1c4 0520 	rsb	r5, r4, #32
 8000744:	fa00 f304 	lsl.w	r3, r0, r4
 8000748:	fa20 f005 	lsr.w	r0, r0, r5
 800074c:	fa01 f204 	lsl.w	r2, r1, r4
 8000750:	ea40 0002 	orr.w	r0, r0, r2
 8000754:	f001 4100 	and.w	r1, r1, #2147483648	@ 0x80000000
 8000758:	eb10 70d3 	adds.w	r0, r0, r3, lsr #31
 800075c:	f141 0100 	adc.w	r1, r1, #0
 8000760:	ea5e 0e43 	orrs.w	lr, lr, r3, lsl #1
 8000764:	bf08      	it	eq
 8000766:	ea20 70d3 	biceq.w	r0, r0, r3, lsr #31
 800076a:	bd70      	pop	{r4, r5, r6, pc}
 800076c:	f1c4 0520 	rsb	r5, r4, #32
 8000770:	fa00 f205 	lsl.w	r2, r0, r5
 8000774:	ea4e 0e02 	orr.w	lr, lr, r2
 8000778:	fa20 f304 	lsr.w	r3, r0, r4
 800077c:	fa01 f205 	lsl.w	r2, r1, r5
 8000780:	ea43 0302 	orr.w	r3, r3, r2
 8000784:	fa21 f004 	lsr.w	r0, r1, r4
 8000788:	f001 4100 	and.w	r1, r1, #2147483648	@ 0x80000000
 800078c:	fa21 f204 	lsr.w	r2, r1, r4
 8000790:	ea20 0002 	bic.w	r0, r0, r2
 8000794:	eb00 70d3 	add.w	r0, r0, r3, lsr #31
 8000798:	ea5e 0e43 	orrs.w	lr, lr, r3, lsl #1
 800079c:	bf08      	it	eq
 800079e:	ea20 70d3 	biceq.w	r0, r0, r3, lsr #31
 80007a2:	bd70      	pop	{r4, r5, r6, pc}
 80007a4:	f094 0f00 	teq	r4, #0
 80007a8:	d10f      	bne.n	80007ca <__aeabi_dmul+0x1c2>
 80007aa:	f001 4600 	and.w	r6, r1, #2147483648	@ 0x80000000
 80007ae:	0040      	lsls	r0, r0, #1
 80007b0:	eb41 0101 	adc.w	r1, r1, r1
 80007b4:	f411 1f80 	tst.w	r1, #1048576	@ 0x100000
 80007b8:	bf08      	it	eq
 80007ba:	3c01      	subeq	r4, #1
 80007bc:	d0f7      	beq.n	80007ae <__aeabi_dmul+0x1a6>
 80007be:	ea41 0106 	orr.w	r1, r1, r6
 80007c2:	f095 0f00 	teq	r5, #0
 80007c6:	bf18      	it	ne
 80007c8:	4770      	bxne	lr
 80007ca:	f003 4600 	and.w	r6, r3, #2147483648	@ 0x80000000
 80007ce:	0052      	lsls	r2, r2, #1
 80007d0:	eb43 0303 	adc.w	r3, r3, r3
 80007d4:	f413 1f80 	tst.w	r3, #1048576	@ 0x100000
 80007d8:	bf08      	it	eq
 80007da:	3d01      	subeq	r5, #1
 80007dc:	d0f7      	beq.n	80007ce <__aeabi_dmul+0x1c6>
 80007de:	ea43 0306 	orr.w	r3, r3, r6
 80007e2:	4770      	bx	lr
 80007e4:	ea94 0f0c 	teq	r4, ip
 80007e8:	ea0c 5513 	and.w	r5, ip, r3, lsr #20
 80007ec:	bf18      	it	ne
 80007ee:	ea95 0f0c 	teqne	r5, ip
 80007f2:	d00c      	beq.n	800080e <__aeabi_dmul+0x206>
 80007f4:	ea50 0641 	orrs.w	r6, r0, r1, lsl #1
 80007f8:	bf18      	it	ne
 80007fa:	ea52 0643 	orrsne.w	r6, r2, r3, lsl #1
 80007fe:	d1d1      	bne.n	80007a4 <__aeabi_dmul+0x19c>
 8000800:	ea81 0103 	eor.w	r1, r1, r3
 8000804:	f001 4100 	and.w	r1, r1, #2147483648	@ 0x80000000
 8000808:	f04f 0000 	mov.w	r0, #0
 800080c:	bd70      	pop	{r4, r5, r6, pc}
 800080e:	ea50 0641 	orrs.w	r6, r0, r1, lsl #1
 8000812:	bf06      	itte	eq
 8000814:	4610      	moveq	r0, r2
 8000816:	4619      	moveq	r1, r3
 8000818:	ea52 0643 	orrsne.w	r6, r2, r3, lsl #1
 800081c:	d019      	beq.n	8000852 <__aeabi_dmul+0x24a>
 800081e:	ea94 0f0c 	teq	r4, ip
 8000822:	d102      	bne.n	800082a <__aeabi_dmul+0x222>
 8000824:	ea50 3601 	orrs.w	r6, r0, r1, lsl #12
 8000828:	d113      	bne.n	8000852 <__aeabi_dmul+0x24a>
 800082a:	ea95 0f0c 	teq	r5, ip
 800082e:	d105      	bne.n	800083c <__aeabi_dmul+0x234>
 8000830:	ea52 3603 	orrs.w	r6, r2, r3, lsl #12
 8000834:	bf1c      	itt	ne
 8000836:	4610      	movne	r0, r2
 8000838:	4619      	movne	r1, r3
 800083a:	d10a      	bne.n	8000852 <__aeabi_dmul+0x24a>
 800083c:	ea81 0103 	eor.w	r1, r1, r3
 8000840:	f001 4100 	and.w	r1, r1, #2147483648	@ 0x80000000
 8000844:	f041 41fe 	orr.w	r1, r1, #2130706432	@ 0x7f000000
 8000848:	f441 0170 	orr.w	r1, r1, #15728640	@ 0xf00000
 800084c:	f04f 0000 	mov.w	r0, #0
 8000850:	bd70      	pop	{r4, r5, r6, pc}
 8000852:	f041 41fe 	orr.w	r1, r1, #2130706432	@ 0x7f000000
 8000856:	f441 0178 	orr.w	r1, r1, #16252928	@ 0xf80000
 800085a:	bd70      	pop	{r4, r5, r6, pc}

0800085c <__aeabi_ddiv>:
 800085c:	b570      	push	{r4, r5, r6, lr}
 800085e:	f04f 0cff 	mov.w	ip, #255	@ 0xff
 8000862:	f44c 6ce0 	orr.w	ip, ip, #1792	@ 0x700
 8000866:	ea1c 5411 	ands.w	r4, ip, r1, lsr #20
 800086a:	bf1d      	ittte	ne
 800086c:	ea1c 5513 	andsne.w	r5, ip, r3, lsr #20
 8000870:	ea94 0f0c 	teqne	r4, ip
 8000874:	ea95 0f0c 	teqne	r5, ip
 8000878:	f000 f8a7 	bleq	80009ca <__aeabi_ddiv+0x16e>
 800087c:	eba4 0405 	sub.w	r4, r4, r5
 8000880:	ea81 0e03 	eor.w	lr, r1, r3
 8000884:	ea52 3503 	orrs.w	r5, r2, r3, lsl #12
 8000888:	ea4f 3101 	mov.w	r1, r1, lsl #12
 800088c:	f000 8088 	beq.w	80009a0 <__aeabi_ddiv+0x144>
 8000890:	ea4f 3303 	mov.w	r3, r3, lsl #12
 8000894:	f04f 5580 	mov.w	r5, #268435456	@ 0x10000000
 8000898:	ea45 1313 	orr.w	r3, r5, r3, lsr #4
 800089c:	ea43 6312 	orr.w	r3, r3, r2, lsr #24
 80008a0:	ea4f 2202 	mov.w	r2, r2, lsl #8
 80008a4:	ea45 1511 	orr.w	r5, r5, r1, lsr #4
 80008a8:	ea45 6510 	orr.w	r5, r5, r0, lsr #24
 80008ac:	ea4f 2600 	mov.w	r6, r0, lsl #8
 80008b0:	f00e 4100 	and.w	r1, lr, #2147483648	@ 0x80000000
 80008b4:	429d      	cmp	r5, r3
 80008b6:	bf08      	it	eq
 80008b8:	4296      	cmpeq	r6, r2
 80008ba:	f144 04fd 	adc.w	r4, r4, #253	@ 0xfd
 80008be:	f504 7440 	add.w	r4, r4, #768	@ 0x300
 80008c2:	d202      	bcs.n	80008ca <__aeabi_ddiv+0x6e>
 80008c4:	085b      	lsrs	r3, r3, #1
 80008c6:	ea4f 0232 	mov.w	r2, r2, rrx
 80008ca:	1ab6      	subs	r6, r6, r2
 80008cc:	eb65 0503 	sbc.w	r5, r5, r3
 80008d0:	085b      	lsrs	r3, r3, #1
 80008d2:	ea4f 0232 	mov.w	r2, r2, rrx
 80008d6:	f44f 1080 	mov.w	r0, #1048576	@ 0x100000
 80008da:	f44f 2c00 	mov.w	ip, #524288	@ 0x80000
 80008de:	ebb6 0e02 	subs.w	lr, r6, r2
 80008e2:	eb75 0e03 	sbcs.w	lr, r5, r3
 80008e6:	bf22      	ittt	cs
 80008e8:	1ab6      	subcs	r6, r6, r2
 80008ea:	4675      	movcs	r5, lr
 80008ec:	ea40 000c 	orrcs.w	r0, r0, ip
 80008f0:	085b      	lsrs	r3, r3, #1
 80008f2:	ea4f 0232 	mov.w	r2, r2, rrx
 80008f6:	ebb6 0e02 	subs.w	lr, r6, r2
 80008fa:	eb75 0e03 	sbcs.w	lr, r5, r3
 80008fe:	bf22      	ittt	cs
 8000900:	1ab6      	subcs	r6, r6, r2
 8000902:	4675      	movcs	r5, lr
 8000904:	ea40 005c 	orrcs.w	r0, r0, ip, lsr #1
 8000908:	085b      	lsrs	r3, r3, #1
 800090a:	ea4f 0232 	mov.w	r2, r2, rrx
 800090e:	ebb6 0e02 	subs.w	lr, r6, r2
 8000912:	eb75 0e03 	sbcs.w	lr, r5, r3
 8000916:	bf22      	ittt	cs
 8000918:	1ab6      	subcs	r6, r6, r2
 800091a:	4675      	movcs	r5, lr
 800091c:	ea40 009c 	orrcs.w	r0, r0, ip, lsr #2
 8000920:	085b      	lsrs	r3, r3, #1
 8000922:	ea4f 0232 	mov.w	r2, r2, rrx
 8000926:	ebb6 0e02 	subs.w	lr, r6, r2
 800092a:	eb75 0e03 	sbcs.w	lr, r5, r3
 800092e:	bf22      	ittt	cs
 8000930:	1ab6      	subcs	r6, r6, r2
 8000932:	4675      	movcs	r5, lr
 8000934:	ea40 00dc 	orrcs.w	r0, r0, ip, lsr #3
 8000938:	ea55 0e06 	orrs.w	lr, r5, r6
 800093c:	d018      	beq.n	8000970 <__aeabi_ddiv+0x114>
 800093e:	ea4f 1505 	mov.w	r5, r5, lsl #4
 8000942:	ea45 7516 	orr.w	r5, r5, r6, lsr #28
 8000946:	ea4f 1606 	mov.w	r6, r6, lsl #4
 800094a:	ea4f 03c3 	mov.w	r3, r3, lsl #3
 800094e:	ea43 7352 	orr.w	r3, r3, r2, lsr #29
 8000952:	ea4f 02c2 	mov.w	r2, r2, lsl #3
 8000956:	ea5f 1c1c 	movs.w	ip, ip, lsr #4
 800095a:	d1c0      	bne.n	80008de <__aeabi_ddiv+0x82>
 800095c:	f411 1f80 	tst.w	r1, #1048576	@ 0x100000
 8000960:	d10b      	bne.n	800097a <__aeabi_ddiv+0x11e>
 8000962:	ea41 0100 	orr.w	r1, r1, r0
 8000966:	f04f 0000 	mov.w	r0, #0
 800096a:	f04f 4c00 	mov.w	ip, #2147483648	@ 0x80000000
 800096e:	e7b6      	b.n	80008de <__aeabi_ddiv+0x82>
 8000970:	f411 1f80 	tst.w	r1, #1048576	@ 0x100000
 8000974:	bf04      	itt	eq
 8000976:	4301      	orreq	r1, r0
 8000978:	2000      	moveq	r0, #0
 800097a:	f1b4 0cfd 	subs.w	ip, r4, #253	@ 0xfd
 800097e:	bf88      	it	hi
 8000980:	f5bc 6fe0 	cmphi.w	ip, #1792	@ 0x700
 8000984:	f63f aeaf 	bhi.w	80006e6 <__aeabi_dmul+0xde>
 8000988:	ebb5 0c03 	subs.w	ip, r5, r3
 800098c:	bf04      	itt	eq
 800098e:	ebb6 0c02 	subseq.w	ip, r6, r2
 8000992:	ea5f 0c50 	movseq.w	ip, r0, lsr #1
 8000996:	f150 0000 	adcs.w	r0, r0, #0
 800099a:	eb41 5104 	adc.w	r1, r1, r4, lsl #20
 800099e:	bd70      	pop	{r4, r5, r6, pc}
 80009a0:	f00e 4e00 	and.w	lr, lr, #2147483648	@ 0x80000000
 80009a4:	ea4e 3111 	orr.w	r1, lr, r1, lsr #12
 80009a8:	eb14 045c 	adds.w	r4, r4, ip, lsr #1
 80009ac:	bfc2      	ittt	gt
 80009ae:	ebd4 050c 	rsbsgt	r5, r4, ip
 80009b2:	ea41 5104 	orrgt.w	r1, r1, r4, lsl #20
 80009b6:	bd70      	popgt	{r4, r5, r6, pc}
 80009b8:	f441 1180 	orr.w	r1, r1, #1048576	@ 0x100000
 80009bc:	f04f 0e00 	mov.w	lr, #0
 80009c0:	3c01      	subs	r4, #1
 80009c2:	e690      	b.n	80006e6 <__aeabi_dmul+0xde>
 80009c4:	ea45 0e06 	orr.w	lr, r5, r6
 80009c8:	e68d      	b.n	80006e6 <__aeabi_dmul+0xde>
 80009ca:	ea0c 5513 	and.w	r5, ip, r3, lsr #20
 80009ce:	ea94 0f0c 	teq	r4, ip
 80009d2:	bf08      	it	eq
 80009d4:	ea95 0f0c 	teqeq	r5, ip
 80009d8:	f43f af3b 	beq.w	8000852 <__aeabi_dmul+0x24a>
 80009dc:	ea94 0f0c 	teq	r4, ip
 80009e0:	d10a      	bne.n	80009f8 <__aeabi_ddiv+0x19c>
 80009e2:	ea50 3401 	orrs.w	r4, r0, r1, lsl #12
 80009e6:	f47f af34 	bne.w	8000852 <__aeabi_dmul+0x24a>
 80009ea:	ea95 0f0c 	teq	r5, ip
 80009ee:	f47f af25 	bne.w	800083c <__aeabi_dmul+0x234>
 80009f2:	4610      	mov	r0, r2
 80009f4:	4619      	mov	r1, r3
 80009f6:	e72c      	b.n	8000852 <__aeabi_dmul+0x24a>
 80009f8:	ea95 0f0c 	teq	r5, ip
 80009fc:	d106      	bne.n	8000a0c <__aeabi_ddiv+0x1b0>
 80009fe:	ea52 3503 	orrs.w	r5, r2, r3, lsl #12
 8000a02:	f43f aefd 	beq.w	8000800 <__aeabi_dmul+0x1f8>
 8000a06:	4610      	mov	r0, r2
 8000a08:	4619      	mov	r1, r3
 8000a0a:	e722      	b.n	8000852 <__aeabi_dmul+0x24a>
 8000a0c:	ea50 0641 	orrs.w	r6, r0, r1, lsl #1
 8000a10:	bf18      	it	ne
 8000a12:	ea52 0643 	orrsne.w	r6, r2, r3, lsl #1
 8000a16:	f47f aec5 	bne.w	80007a4 <__aeabi_dmul+0x19c>
 8000a1a:	ea50 0441 	orrs.w	r4, r0, r1, lsl #1
 8000a1e:	f47f af0d 	bne.w	800083c <__aeabi_dmul+0x234>
 8000a22:	ea52 0543 	orrs.w	r5, r2, r3, lsl #1
 8000a26:	f47f aeeb 	bne.w	8000800 <__aeabi_dmul+0x1f8>
 8000a2a:	e712      	b.n	8000852 <__aeabi_dmul+0x24a>

08000a2c <__gedf2>:
 8000a2c:	f04f 3cff 	mov.w	ip, #4294967295
 8000a30:	e006      	b.n	8000a40 <__cmpdf2+0x4>
 8000a32:	bf00      	nop

08000a34 <__ledf2>:
 8000a34:	f04f 0c01 	mov.w	ip, #1
 8000a38:	e002      	b.n	8000a40 <__cmpdf2+0x4>
 8000a3a:	bf00      	nop

08000a3c <__cmpdf2>:
 8000a3c:	f04f 0c01 	mov.w	ip, #1
 8000a40:	f84d cd04 	str.w	ip, [sp, #-4]!
 8000a44:	ea4f 0c41 	mov.w	ip, r1, lsl #1
 8000a48:	ea7f 5c6c 	mvns.w	ip, ip, asr #21
 8000a4c:	ea4f 0c43 	mov.w	ip, r3, lsl #1
 8000a50:	bf18      	it	ne
 8000a52:	ea7f 5c6c 	mvnsne.w	ip, ip, asr #21
 8000a56:	d01b      	beq.n	8000a90 <__cmpdf2+0x54>
 8000a58:	b001      	add	sp, #4
 8000a5a:	ea50 0c41 	orrs.w	ip, r0, r1, lsl #1
 8000a5e:	bf0c      	ite	eq
 8000a60:	ea52 0c43 	orrseq.w	ip, r2, r3, lsl #1
 8000a64:	ea91 0f03 	teqne	r1, r3
 8000a68:	bf02      	ittt	eq
 8000a6a:	ea90 0f02 	teqeq	r0, r2
 8000a6e:	2000      	moveq	r0, #0
 8000a70:	4770      	bxeq	lr
 8000a72:	f110 0f00 	cmn.w	r0, #0
 8000a76:	ea91 0f03 	teq	r1, r3
 8000a7a:	bf58      	it	pl
 8000a7c:	4299      	cmppl	r1, r3
 8000a7e:	bf08      	it	eq
 8000a80:	4290      	cmpeq	r0, r2
 8000a82:	bf2c      	ite	cs
 8000a84:	17d8      	asrcs	r0, r3, #31
 8000a86:	ea6f 70e3 	mvncc.w	r0, r3, asr #31
 8000a8a:	f040 0001 	orr.w	r0, r0, #1
 8000a8e:	4770      	bx	lr
 8000a90:	ea4f 0c41 	mov.w	ip, r1, lsl #1
 8000a94:	ea7f 5c6c 	mvns.w	ip, ip, asr #21
 8000a98:	d102      	bne.n	8000aa0 <__cmpdf2+0x64>
 8000a9a:	ea50 3c01 	orrs.w	ip, r0, r1, lsl #12
 8000a9e:	d107      	bne.n	8000ab0 <__cmpdf2+0x74>
 8000aa0:	ea4f 0c43 	mov.w	ip, r3, lsl #1
 8000aa4:	ea7f 5c6c 	mvns.w	ip, ip, asr #21
 8000aa8:	d1d6      	bne.n	8000a58 <__cmpdf2+0x1c>
 8000aaa:	ea52 3c03 	orrs.w	ip, r2, r3, lsl #12
 8000aae:	d0d3      	beq.n	8000a58 <__cmpdf2+0x1c>
 8000ab0:	f85d 0b04 	ldr.w	r0, [sp], #4
 8000ab4:	4770      	bx	lr
 8000ab6:	bf00      	nop

08000ab8 <__aeabi_cdrcmple>:
 8000ab8:	4684      	mov	ip, r0
 8000aba:	4610      	mov	r0, r2
 8000abc:	4662      	mov	r2, ip
 8000abe:	468c      	mov	ip, r1
 8000ac0:	4619      	mov	r1, r3
 8000ac2:	4663      	mov	r3, ip
 8000ac4:	e000      	b.n	8000ac8 <__aeabi_cdcmpeq>
 8000ac6:	bf00      	nop

08000ac8 <__aeabi_cdcmpeq>:
 8000ac8:	b501      	push	{r0, lr}
 8000aca:	f7ff ffb7 	bl	8000a3c <__cmpdf2>
 8000ace:	2800      	cmp	r0, #0
 8000ad0:	bf48      	it	mi
 8000ad2:	f110 0f00 	cmnmi.w	r0, #0
 8000ad6:	bd01      	pop	{r0, pc}

08000ad8 <__aeabi_dcmpeq>:
 8000ad8:	f84d ed08 	str.w	lr, [sp, #-8]!
 8000adc:	f7ff fff4 	bl	8000ac8 <__aeabi_cdcmpeq>
 8000ae0:	bf0c      	ite	eq
 8000ae2:	2001      	moveq	r0, #1
 8000ae4:	2000      	movne	r0, #0
 8000ae6:	f85d fb08 	ldr.w	pc, [sp], #8
 8000aea:	bf00      	nop

08000aec <__aeabi_dcmplt>:
 8000aec:	f84d ed08 	str.w	lr, [sp, #-8]!
 8000af0:	f7ff ffea 	bl	8000ac8 <__aeabi_cdcmpeq>
 8000af4:	bf34      	ite	cc
 8000af6:	2001      	movcc	r0, #1
 8000af8:	2000      	movcs	r0, #0
 8000afa:	f85d fb08 	ldr.w	pc, [sp], #8
 8000afe:	bf00      	nop

08000b00 <__aeabi_dcmple>:
 8000b00:	f84d ed08 	str.w	lr, [sp, #-8]!
 8000b04:	f7ff ffe0 	bl	8000ac8 <__aeabi_cdcmpeq>
 8000b08:	bf94      	ite	ls
 8000b0a:	2001      	movls	r0, #1
 8000b0c:	2000      	movhi	r0, #0
 8000b0e:	f85d fb08 	ldr.w	pc, [sp], #8
 8000b12:	bf00      	nop

08000b14 <__aeabi_dcmpge>:
 8000b14:	f84d ed08 	str.w	lr, [sp, #-8]!
 8000b18:	f7ff ffce 	bl	8000ab8 <__aeabi_cdrcmple>
 8000b1c:	bf94      	ite	ls
 8000b1e:	2001      	movls	r0, #1
 8000b20:	2000      	movhi	r0, #0
 8000b22:	f85d fb08 	ldr.w	pc, [sp], #8
 8000b26:	bf00      	nop

08000b28 <__aeabi_dcmpgt>:
 8000b28:	f84d ed08 	str.w	lr, [sp, #-8]!
 8000b2c:	f7ff ffc4 	bl	8000ab8 <__aeabi_cdrcmple>
 8000b30:	bf34      	ite	cc
 8000b32:	2001      	movcc	r0, #1
 8000b34:	2000      	movcs	r0, #0
 8000b36:	f85d fb08 	ldr.w	pc, [sp], #8
 8000b3a:	bf00      	nop

08000b3c <__aeabi_dcmpun>:
 8000b3c:	ea4f 0c41 	mov.w	ip, r1, lsl #1
 8000b40:	ea7f 5c6c 	mvns.w	ip, ip, asr #21
 8000b44:	d102      	bne.n	8000b4c <__aeabi_dcmpun+0x10>
 8000b46:	ea50 3c01 	orrs.w	ip, r0, r1, lsl #12
 8000b4a:	d10a      	bne.n	8000b62 <__aeabi_dcmpun+0x26>
 8000b4c:	ea4f 0c43 	mov.w	ip, r3, lsl #1
 8000b50:	ea7f 5c6c 	mvns.w	ip, ip, asr #21
 8000b54:	d102      	bne.n	8000b5c <__aeabi_dcmpun+0x20>
 8000b56:	ea52 3c03 	orrs.w	ip, r2, r3, lsl #12
 8000b5a:	d102      	bne.n	8000b62 <__aeabi_dcmpun+0x26>
 8000b5c:	f04f 0000 	mov.w	r0, #0
 8000b60:	4770      	bx	lr
 8000b62:	f04f 0001 	mov.w	r0, #1
 8000b66:	4770      	bx	lr

08000b68 <__aeabi_d2iz>:
 8000b68:	ea4f 0241 	mov.w	r2, r1, lsl #1
 8000b6c:	f512 1200 	adds.w	r2, r2, #2097152	@ 0x200000
 8000b70:	d215      	bcs.n	8000b9e <__aeabi_d2iz+0x36>
 8000b72:	d511      	bpl.n	8000b98 <__aeabi_d2iz+0x30>
 8000b74:	f46f 7378 	mvn.w	r3, #992	@ 0x3e0
 8000b78:	ebb3 5262 	subs.w	r2, r3, r2, asr #21
 8000b7c:	d912      	bls.n	8000ba4 <__aeabi_d2iz+0x3c>
 8000b7e:	ea4f 23c1 	mov.w	r3, r1, lsl #11
 8000b82:	f043 4300 	orr.w	r3, r3, #2147483648	@ 0x80000000
 8000b86:	ea43 5350 	orr.w	r3, r3, r0, lsr #21
 8000b8a:	f011 4f00 	tst.w	r1, #2147483648	@ 0x80000000
 8000b8e:	fa23 f002 	lsr.w	r0, r3, r2
 8000b92:	bf18      	it	ne
 8000b94:	4240      	negne	r0, r0
 8000b96:	4770      	bx	lr
 8000b98:	f04f 0000 	mov.w	r0, #0
 8000b9c:	4770      	bx	lr
 8000b9e:	ea50 3001 	orrs.w	r0, r0, r1, lsl #12
 8000ba2:	d105      	bne.n	8000bb0 <__aeabi_d2iz+0x48>
 8000ba4:	f011 4000 	ands.w	r0, r1, #2147483648	@ 0x80000000
 8000ba8:	bf08      	it	eq
 8000baa:	f06f 4000 	mvneq.w	r0, #2147483648	@ 0x80000000
 8000bae:	4770      	bx	lr
 8000bb0:	f04f 0000 	mov.w	r0, #0
 8000bb4:	4770      	bx	lr
 8000bb6:	bf00      	nop

08000bb8 <__aeabi_d2uiz>:
 8000bb8:	004a      	lsls	r2, r1, #1
 8000bba:	d211      	bcs.n	8000be0 <__aeabi_d2uiz+0x28>
 8000bbc:	f512 1200 	adds.w	r2, r2, #2097152	@ 0x200000
 8000bc0:	d211      	bcs.n	8000be6 <__aeabi_d2uiz+0x2e>
 8000bc2:	d50d      	bpl.n	8000be0 <__aeabi_d2uiz+0x28>
 8000bc4:	f46f 7378 	mvn.w	r3, #992	@ 0x3e0
 8000bc8:	ebb3 5262 	subs.w	r2, r3, r2, asr #21
 8000bcc:	d40e      	bmi.n	8000bec <__aeabi_d2uiz+0x34>
 8000bce:	ea4f 23c1 	mov.w	r3, r1, lsl #11
 8000bd2:	f043 4300 	orr.w	r3, r3, #2147483648	@ 0x80000000
 8000bd6:	ea43 5350 	orr.w	r3, r3, r0, lsr #21
 8000bda:	fa23 f002 	lsr.w	r0, r3, r2
 8000bde:	4770      	bx	lr
 8000be0:	f04f 0000 	mov.w	r0, #0
 8000be4:	4770      	bx	lr
 8000be6:	ea50 3001 	orrs.w	r0, r0, r1, lsl #12
 8000bea:	d102      	bne.n	8000bf2 <__aeabi_d2uiz+0x3a>
 8000bec:	f04f 30ff 	mov.w	r0, #4294967295
 8000bf0:	4770      	bx	lr
 8000bf2:	f04f 0000 	mov.w	r0, #0
 8000bf6:	4770      	bx	lr

08000bf8 <__aeabi_d2f>:
 8000bf8:	ea4f 0241 	mov.w	r2, r1, lsl #1
 8000bfc:	f1b2 43e0 	subs.w	r3, r2, #1879048192	@ 0x70000000
 8000c00:	bf24      	itt	cs
 8000c02:	f5b3 1c00 	subscs.w	ip, r3, #2097152	@ 0x200000
 8000c06:	f1dc 5cfe 	rsbscs	ip, ip, #532676608	@ 0x1fc00000
 8000c0a:	d90d      	bls.n	8000c28 <__aeabi_d2f+0x30>
 8000c0c:	f001 4c00 	and.w	ip, r1, #2147483648	@ 0x80000000
 8000c10:	ea4f 02c0 	mov.w	r2, r0, lsl #3
 8000c14:	ea4c 7050 	orr.w	r0, ip, r0, lsr #29
 8000c18:	f1b2 4f00 	cmp.w	r2, #2147483648	@ 0x80000000
 8000c1c:	eb40 0083 	adc.w	r0, r0, r3, lsl #2
 8000c20:	bf08      	it	eq
 8000c22:	f020 0001 	biceq.w	r0, r0, #1
 8000c26:	4770      	bx	lr
 8000c28:	f011 4f80 	tst.w	r1, #1073741824	@ 0x40000000
 8000c2c:	d121      	bne.n	8000c72 <__aeabi_d2f+0x7a>
 8000c2e:	f113 7238 	adds.w	r2, r3, #48234496	@ 0x2e00000
 8000c32:	bfbc      	itt	lt
 8000c34:	f001 4000 	andlt.w	r0, r1, #2147483648	@ 0x80000000
 8000c38:	4770      	bxlt	lr
 8000c3a:	f441 1180 	orr.w	r1, r1, #1048576	@ 0x100000
 8000c3e:	ea4f 5252 	mov.w	r2, r2, lsr #21
 8000c42:	f1c2 0218 	rsb	r2, r2, #24
 8000c46:	f1c2 0c20 	rsb	ip, r2, #32
 8000c4a:	fa10 f30c 	lsls.w	r3, r0, ip
 8000c4e:	fa20 f002 	lsr.w	r0, r0, r2
 8000c52:	bf18      	it	ne
 8000c54:	f040 0001 	orrne.w	r0, r0, #1
 8000c58:	ea4f 23c1 	mov.w	r3, r1, lsl #11
 8000c5c:	ea4f 23d3 	mov.w	r3, r3, lsr #11
 8000c60:	fa03 fc0c 	lsl.w	ip, r3, ip
 8000c64:	ea40 000c 	orr.w	r0, r0, ip
 8000c68:	fa23 f302 	lsr.w	r3, r3, r2
 8000c6c:	ea4f 0343 	mov.w	r3, r3, lsl #1
 8000c70:	e7cc      	b.n	8000c0c <__aeabi_d2f+0x14>
 8000c72:	ea7f 5362 	mvns.w	r3, r2, asr #21
 8000c76:	d107      	bne.n	8000c88 <__aeabi_d2f+0x90>
 8000c78:	ea50 3301 	orrs.w	r3, r0, r1, lsl #12
 8000c7c:	bf1e      	ittt	ne
 8000c7e:	f04f 40fe 	movne.w	r0, #2130706432	@ 0x7f000000
 8000c82:	f440 0040 	orrne.w	r0, r0, #12582912	@ 0xc00000
 8000c86:	4770      	bxne	lr
 8000c88:	f001 4000 	and.w	r0, r1, #2147483648	@ 0x80000000
 8000c8c:	f040 40fe 	orr.w	r0, r0, #2130706432	@ 0x7f000000
 8000c90:	f440 0000 	orr.w	r0, r0, #8388608	@ 0x800000
 8000c94:	4770      	bx	lr
 8000c96:	bf00      	nop

08000c98 <__aeabi_uldivmod>:
 8000c98:	b953      	cbnz	r3, 8000cb0 <__aeabi_uldivmod+0x18>
 8000c9a:	b94a      	cbnz	r2, 8000cb0 <__aeabi_uldivmod+0x18>
 8000c9c:	2900      	cmp	r1, #0
 8000c9e:	bf08      	it	eq
 8000ca0:	2800      	cmpeq	r0, #0
 8000ca2:	bf1c      	itt	ne
 8000ca4:	f04f 31ff 	movne.w	r1, #4294967295
 8000ca8:	f04f 30ff 	movne.w	r0, #4294967295
 8000cac:	f000 b9a0 	b.w	8000ff0 <__aeabi_idiv0>
 8000cb0:	f1ad 0c08 	sub.w	ip, sp, #8
 8000cb4:	e96d ce04 	strd	ip, lr, [sp, #-16]!
 8000cb8:	f000 f83c 	bl	8000d34 <__udivmoddi4>
 8000cbc:	f8dd e004 	ldr.w	lr, [sp, #4]
 8000cc0:	e9dd 2302 	ldrd	r2, r3, [sp, #8]
 8000cc4:	b004      	add	sp, #16
 8000cc6:	4770      	bx	lr

08000cc8 <__aeabi_d2lz>:
 8000cc8:	b538      	push	{r3, r4, r5, lr}
 8000cca:	2200      	movs	r2, #0
 8000ccc:	2300      	movs	r3, #0
 8000cce:	4604      	mov	r4, r0
 8000cd0:	460d      	mov	r5, r1
 8000cd2:	f7ff ff0b 	bl	8000aec <__aeabi_dcmplt>
 8000cd6:	b928      	cbnz	r0, 8000ce4 <__aeabi_d2lz+0x1c>
 8000cd8:	4620      	mov	r0, r4
 8000cda:	4629      	mov	r1, r5
 8000cdc:	e8bd 4038 	ldmia.w	sp!, {r3, r4, r5, lr}
 8000ce0:	f000 b80a 	b.w	8000cf8 <__aeabi_d2ulz>
 8000ce4:	4620      	mov	r0, r4
 8000ce6:	f105 4100 	add.w	r1, r5, #2147483648	@ 0x80000000
 8000cea:	f000 f805 	bl	8000cf8 <__aeabi_d2ulz>
 8000cee:	4240      	negs	r0, r0
 8000cf0:	eb61 0141 	sbc.w	r1, r1, r1, lsl #1
 8000cf4:	bd38      	pop	{r3, r4, r5, pc}
 8000cf6:	bf00      	nop

08000cf8 <__aeabi_d2ulz>:
 8000cf8:	b5d0      	push	{r4, r6, r7, lr}
 8000cfa:	4b0c      	ldr	r3, [pc, #48]	@ (8000d2c <__aeabi_d2ulz+0x34>)
 8000cfc:	2200      	movs	r2, #0
 8000cfe:	4606      	mov	r6, r0
 8000d00:	460f      	mov	r7, r1
 8000d02:	f7ff fc81 	bl	8000608 <__aeabi_dmul>
 8000d06:	f7ff ff57 	bl	8000bb8 <__aeabi_d2uiz>
 8000d0a:	4604      	mov	r4, r0
 8000d0c:	f7ff fc02 	bl	8000514 <__aeabi_ui2d>
 8000d10:	4b07      	ldr	r3, [pc, #28]	@ (8000d30 <__aeabi_d2ulz+0x38>)
 8000d12:	2200      	movs	r2, #0
 8000d14:	f7ff fc78 	bl	8000608 <__aeabi_dmul>
 8000d18:	4602      	mov	r2, r0
 8000d1a:	460b      	mov	r3, r1
 8000d1c:	4630      	mov	r0, r6
 8000d1e:	4639      	mov	r1, r7
 8000d20:	f7ff faba 	bl	8000298 <__aeabi_dsub>
 8000d24:	f7ff ff48 	bl	8000bb8 <__aeabi_d2uiz>
 8000d28:	4621      	mov	r1, r4
 8000d2a:	bdd0      	pop	{r4, r6, r7, pc}
 8000d2c:	3df00000 	.word	0x3df00000
 8000d30:	41f00000 	.word	0x41f00000

08000d34 <__udivmoddi4>:
 8000d34:	e92d 47f0 	stmdb	sp!, {r4, r5, r6, r7, r8, r9, sl, lr}
 8000d38:	9d08      	ldr	r5, [sp, #32]
 8000d3a:	460c      	mov	r4, r1
 8000d3c:	2b00      	cmp	r3, #0
 8000d3e:	d14e      	bne.n	8000dde <__udivmoddi4+0xaa>
 8000d40:	4694      	mov	ip, r2
 8000d42:	458c      	cmp	ip, r1
 8000d44:	4686      	mov	lr, r0
 8000d46:	fab2 f282 	clz	r2, r2
 8000d4a:	d962      	bls.n	8000e12 <__udivmoddi4+0xde>
 8000d4c:	b14a      	cbz	r2, 8000d62 <__udivmoddi4+0x2e>
 8000d4e:	f1c2 0320 	rsb	r3, r2, #32
 8000d52:	4091      	lsls	r1, r2
 8000d54:	fa20 f303 	lsr.w	r3, r0, r3
 8000d58:	fa0c fc02 	lsl.w	ip, ip, r2
 8000d5c:	4319      	orrs	r1, r3
 8000d5e:	fa00 fe02 	lsl.w	lr, r0, r2
 8000d62:	ea4f 471c 	mov.w	r7, ip, lsr #16
 8000d66:	fa1f f68c 	uxth.w	r6, ip
 8000d6a:	fbb1 f4f7 	udiv	r4, r1, r7
 8000d6e:	ea4f 431e 	mov.w	r3, lr, lsr #16
 8000d72:	fb07 1114 	mls	r1, r7, r4, r1
 8000d76:	ea43 4301 	orr.w	r3, r3, r1, lsl #16
 8000d7a:	fb04 f106 	mul.w	r1, r4, r6
 8000d7e:	4299      	cmp	r1, r3
 8000d80:	d90a      	bls.n	8000d98 <__udivmoddi4+0x64>
 8000d82:	eb1c 0303 	adds.w	r3, ip, r3
 8000d86:	f104 30ff 	add.w	r0, r4, #4294967295
 8000d8a:	f080 8112 	bcs.w	8000fb2 <__udivmoddi4+0x27e>
 8000d8e:	4299      	cmp	r1, r3
 8000d90:	f240 810f 	bls.w	8000fb2 <__udivmoddi4+0x27e>
 8000d94:	3c02      	subs	r4, #2
 8000d96:	4463      	add	r3, ip
 8000d98:	1a59      	subs	r1, r3, r1
 8000d9a:	fa1f f38e 	uxth.w	r3, lr
 8000d9e:	fbb1 f0f7 	udiv	r0, r1, r7
 8000da2:	fb07 1110 	mls	r1, r7, r0, r1
 8000da6:	ea43 4301 	orr.w	r3, r3, r1, lsl #16
 8000daa:	fb00 f606 	mul.w	r6, r0, r6
 8000dae:	429e      	cmp	r6, r3
 8000db0:	d90a      	bls.n	8000dc8 <__udivmoddi4+0x94>
 8000db2:	eb1c 0303 	adds.w	r3, ip, r3
 8000db6:	f100 31ff 	add.w	r1, r0, #4294967295
 8000dba:	f080 80fc 	bcs.w	8000fb6 <__udivmoddi4+0x282>
 8000dbe:	429e      	cmp	r6, r3
 8000dc0:	f240 80f9 	bls.w	8000fb6 <__udivmoddi4+0x282>
 8000dc4:	4463      	add	r3, ip
 8000dc6:	3802      	subs	r0, #2
 8000dc8:	1b9b      	subs	r3, r3, r6
 8000dca:	ea40 4004 	orr.w	r0, r0, r4, lsl #16
 8000dce:	2100      	movs	r1, #0
 8000dd0:	b11d      	cbz	r5, 8000dda <__udivmoddi4+0xa6>
 8000dd2:	40d3      	lsrs	r3, r2
 8000dd4:	2200      	movs	r2, #0
 8000dd6:	e9c5 3200 	strd	r3, r2, [r5]
 8000dda:	e8bd 87f0 	ldmia.w	sp!, {r4, r5, r6, r7, r8, r9, sl, pc}
 8000dde:	428b      	cmp	r3, r1
 8000de0:	d905      	bls.n	8000dee <__udivmoddi4+0xba>
 8000de2:	b10d      	cbz	r5, 8000de8 <__udivmoddi4+0xb4>
 8000de4:	e9c5 0100 	strd	r0, r1, [r5]
 8000de8:	2100      	movs	r1, #0
 8000dea:	4608      	mov	r0, r1
 8000dec:	e7f5      	b.n	8000dda <__udivmoddi4+0xa6>
 8000dee:	fab3 f183 	clz	r1, r3
 8000df2:	2900      	cmp	r1, #0
 8000df4:	d146      	bne.n	8000e84 <__udivmoddi4+0x150>
 8000df6:	42a3      	cmp	r3, r4
 8000df8:	d302      	bcc.n	8000e00 <__udivmoddi4+0xcc>
 8000dfa:	4290      	cmp	r0, r2
 8000dfc:	f0c0 80f0 	bcc.w	8000fe0 <__udivmoddi4+0x2ac>
 8000e00:	1a86      	subs	r6, r0, r2
 8000e02:	eb64 0303 	sbc.w	r3, r4, r3
 8000e06:	2001      	movs	r0, #1
 8000e08:	2d00      	cmp	r5, #0
 8000e0a:	d0e6      	beq.n	8000dda <__udivmoddi4+0xa6>
 8000e0c:	e9c5 6300 	strd	r6, r3, [r5]
 8000e10:	e7e3      	b.n	8000dda <__udivmoddi4+0xa6>
 8000e12:	2a00      	cmp	r2, #0
 8000e14:	f040 8090 	bne.w	8000f38 <__udivmoddi4+0x204>
 8000e18:	eba1 040c 	sub.w	r4, r1, ip
 8000e1c:	ea4f 481c 	mov.w	r8, ip, lsr #16
 8000e20:	fa1f f78c 	uxth.w	r7, ip
 8000e24:	2101      	movs	r1, #1
 8000e26:	fbb4 f6f8 	udiv	r6, r4, r8
 8000e2a:	ea4f 431e 	mov.w	r3, lr, lsr #16
 8000e2e:	fb08 4416 	mls	r4, r8, r6, r4
 8000e32:	ea43 4304 	orr.w	r3, r3, r4, lsl #16
 8000e36:	fb07 f006 	mul.w	r0, r7, r6
 8000e3a:	4298      	cmp	r0, r3
 8000e3c:	d908      	bls.n	8000e50 <__udivmoddi4+0x11c>
 8000e3e:	eb1c 0303 	adds.w	r3, ip, r3
 8000e42:	f106 34ff 	add.w	r4, r6, #4294967295
 8000e46:	d202      	bcs.n	8000e4e <__udivmoddi4+0x11a>
 8000e48:	4298      	cmp	r0, r3
 8000e4a:	f200 80cd 	bhi.w	8000fe8 <__udivmoddi4+0x2b4>
 8000e4e:	4626      	mov	r6, r4
 8000e50:	1a1c      	subs	r4, r3, r0
 8000e52:	fa1f f38e 	uxth.w	r3, lr
 8000e56:	fbb4 f0f8 	udiv	r0, r4, r8
 8000e5a:	fb08 4410 	mls	r4, r8, r0, r4
 8000e5e:	ea43 4304 	orr.w	r3, r3, r4, lsl #16
 8000e62:	fb00 f707 	mul.w	r7, r0, r7
 8000e66:	429f      	cmp	r7, r3
 8000e68:	d908      	bls.n	8000e7c <__udivmoddi4+0x148>
 8000e6a:	eb1c 0303 	adds.w	r3, ip, r3
 8000e6e:	f100 34ff 	add.w	r4, r0, #4294967295
 8000e72:	d202      	bcs.n	8000e7a <__udivmoddi4+0x146>
 8000e74:	429f      	cmp	r7, r3
 8000e76:	f200 80b0 	bhi.w	8000fda <__udivmoddi4+0x2a6>
 8000e7a:	4620      	mov	r0, r4
 8000e7c:	1bdb      	subs	r3, r3, r7
 8000e7e:	ea40 4006 	orr.w	r0, r0, r6, lsl #16
 8000e82:	e7a5      	b.n	8000dd0 <__udivmoddi4+0x9c>
 8000e84:	f1c1 0620 	rsb	r6, r1, #32
 8000e88:	408b      	lsls	r3, r1
 8000e8a:	fa22 f706 	lsr.w	r7, r2, r6
 8000e8e:	431f      	orrs	r7, r3
 8000e90:	fa20 fc06 	lsr.w	ip, r0, r6
 8000e94:	fa04 f301 	lsl.w	r3, r4, r1
 8000e98:	ea43 030c 	orr.w	r3, r3, ip
 8000e9c:	40f4      	lsrs	r4, r6
 8000e9e:	fa00 f801 	lsl.w	r8, r0, r1
 8000ea2:	0c38      	lsrs	r0, r7, #16
 8000ea4:	ea4f 4913 	mov.w	r9, r3, lsr #16
 8000ea8:	fbb4 fef0 	udiv	lr, r4, r0
 8000eac:	fa1f fc87 	uxth.w	ip, r7
 8000eb0:	fb00 441e 	mls	r4, r0, lr, r4
 8000eb4:	ea49 4404 	orr.w	r4, r9, r4, lsl #16
 8000eb8:	fb0e f90c 	mul.w	r9, lr, ip
 8000ebc:	45a1      	cmp	r9, r4
 8000ebe:	fa02 f201 	lsl.w	r2, r2, r1
 8000ec2:	d90a      	bls.n	8000eda <__udivmoddi4+0x1a6>
 8000ec4:	193c      	adds	r4, r7, r4
 8000ec6:	f10e 3aff 	add.w	sl, lr, #4294967295
 8000eca:	f080 8084 	bcs.w	8000fd6 <__udivmoddi4+0x2a2>
 8000ece:	45a1      	cmp	r9, r4
 8000ed0:	f240 8081 	bls.w	8000fd6 <__udivmoddi4+0x2a2>
 8000ed4:	f1ae 0e02 	sub.w	lr, lr, #2
 8000ed8:	443c      	add	r4, r7
 8000eda:	eba4 0409 	sub.w	r4, r4, r9
 8000ede:	fa1f f983 	uxth.w	r9, r3
 8000ee2:	fbb4 f3f0 	udiv	r3, r4, r0
 8000ee6:	fb00 4413 	mls	r4, r0, r3, r4
 8000eea:	ea49 4404 	orr.w	r4, r9, r4, lsl #16
 8000eee:	fb03 fc0c 	mul.w	ip, r3, ip
 8000ef2:	45a4      	cmp	ip, r4
 8000ef4:	d907      	bls.n	8000f06 <__udivmoddi4+0x1d2>
 8000ef6:	193c      	adds	r4, r7, r4
 8000ef8:	f103 30ff 	add.w	r0, r3, #4294967295
 8000efc:	d267      	bcs.n	8000fce <__udivmoddi4+0x29a>
 8000efe:	45a4      	cmp	ip, r4
 8000f00:	d965      	bls.n	8000fce <__udivmoddi4+0x29a>
 8000f02:	3b02      	subs	r3, #2
 8000f04:	443c      	add	r4, r7
 8000f06:	ea43 400e 	orr.w	r0, r3, lr, lsl #16
 8000f0a:	fba0 9302 	umull	r9, r3, r0, r2
 8000f0e:	eba4 040c 	sub.w	r4, r4, ip
 8000f12:	429c      	cmp	r4, r3
 8000f14:	46ce      	mov	lr, r9
 8000f16:	469c      	mov	ip, r3
 8000f18:	d351      	bcc.n	8000fbe <__udivmoddi4+0x28a>
 8000f1a:	d04e      	beq.n	8000fba <__udivmoddi4+0x286>
 8000f1c:	b155      	cbz	r5, 8000f34 <__udivmoddi4+0x200>
 8000f1e:	ebb8 030e 	subs.w	r3, r8, lr
 8000f22:	eb64 040c 	sbc.w	r4, r4, ip
 8000f26:	fa04 f606 	lsl.w	r6, r4, r6
 8000f2a:	40cb      	lsrs	r3, r1
 8000f2c:	431e      	orrs	r6, r3
 8000f2e:	40cc      	lsrs	r4, r1
 8000f30:	e9c5 6400 	strd	r6, r4, [r5]
 8000f34:	2100      	movs	r1, #0
 8000f36:	e750      	b.n	8000dda <__udivmoddi4+0xa6>
 8000f38:	f1c2 0320 	rsb	r3, r2, #32
 8000f3c:	fa20 f103 	lsr.w	r1, r0, r3
 8000f40:	fa0c fc02 	lsl.w	ip, ip, r2
 8000f44:	fa24 f303 	lsr.w	r3, r4, r3
 8000f48:	4094      	lsls	r4, r2
 8000f4a:	430c      	orrs	r4, r1
 8000f4c:	ea4f 481c 	mov.w	r8, ip, lsr #16
 8000f50:	fa00 fe02 	lsl.w	lr, r0, r2
 8000f54:	fa1f f78c 	uxth.w	r7, ip
 8000f58:	fbb3 f0f8 	udiv	r0, r3, r8
 8000f5c:	fb08 3110 	mls	r1, r8, r0, r3
 8000f60:	0c23      	lsrs	r3, r4, #16
 8000f62:	ea43 4301 	orr.w	r3, r3, r1, lsl #16
 8000f66:	fb00 f107 	mul.w	r1, r0, r7
 8000f6a:	4299      	cmp	r1, r3
 8000f6c:	d908      	bls.n	8000f80 <__udivmoddi4+0x24c>
 8000f6e:	eb1c 0303 	adds.w	r3, ip, r3
 8000f72:	f100 36ff 	add.w	r6, r0, #4294967295
 8000f76:	d22c      	bcs.n	8000fd2 <__udivmoddi4+0x29e>
 8000f78:	4299      	cmp	r1, r3
 8000f7a:	d92a      	bls.n	8000fd2 <__udivmoddi4+0x29e>
 8000f7c:	3802      	subs	r0, #2
 8000f7e:	4463      	add	r3, ip
 8000f80:	1a5b      	subs	r3, r3, r1
 8000f82:	b2a4      	uxth	r4, r4
 8000f84:	fbb3 f1f8 	udiv	r1, r3, r8
 8000f88:	fb08 3311 	mls	r3, r8, r1, r3
 8000f8c:	ea44 4403 	orr.w	r4, r4, r3, lsl #16
 8000f90:	fb01 f307 	mul.w	r3, r1, r7
 8000f94:	42a3      	cmp	r3, r4
 8000f96:	d908      	bls.n	8000faa <__udivmoddi4+0x276>
 8000f98:	eb1c 0404 	adds.w	r4, ip, r4
 8000f9c:	f101 36ff 	add.w	r6, r1, #4294967295
 8000fa0:	d213      	bcs.n	8000fca <__udivmoddi4+0x296>
 8000fa2:	42a3      	cmp	r3, r4
 8000fa4:	d911      	bls.n	8000fca <__udivmoddi4+0x296>
 8000fa6:	3902      	subs	r1, #2
 8000fa8:	4464      	add	r4, ip
 8000faa:	1ae4      	subs	r4, r4, r3
 8000fac:	ea41 4100 	orr.w	r1, r1, r0, lsl #16
 8000fb0:	e739      	b.n	8000e26 <__udivmoddi4+0xf2>
 8000fb2:	4604      	mov	r4, r0
 8000fb4:	e6f0      	b.n	8000d98 <__udivmoddi4+0x64>
 8000fb6:	4608      	mov	r0, r1
 8000fb8:	e706      	b.n	8000dc8 <__udivmoddi4+0x94>
 8000fba:	45c8      	cmp	r8, r9
 8000fbc:	d2ae      	bcs.n	8000f1c <__udivmoddi4+0x1e8>
 8000fbe:	ebb9 0e02 	subs.w	lr, r9, r2
 8000fc2:	eb63 0c07 	sbc.w	ip, r3, r7
 8000fc6:	3801      	subs	r0, #1
 8000fc8:	e7a8      	b.n	8000f1c <__udivmoddi4+0x1e8>
 8000fca:	4631      	mov	r1, r6
 8000fcc:	e7ed      	b.n	8000faa <__udivmoddi4+0x276>
 8000fce:	4603      	mov	r3, r0
 8000fd0:	e799      	b.n	8000f06 <__udivmoddi4+0x1d2>
 8000fd2:	4630      	mov	r0, r6
 8000fd4:	e7d4      	b.n	8000f80 <__udivmoddi4+0x24c>
 8000fd6:	46d6      	mov	lr, sl
 8000fd8:	e77f      	b.n	8000eda <__udivmoddi4+0x1a6>
 8000fda:	4463      	add	r3, ip
 8000fdc:	3802      	subs	r0, #2
 8000fde:	e74d      	b.n	8000e7c <__udivmoddi4+0x148>
 8000fe0:	4606      	mov	r6, r0
 8000fe2:	4623      	mov	r3, r4
 8000fe4:	4608      	mov	r0, r1
 8000fe6:	e70f      	b.n	8000e08 <__udivmoddi4+0xd4>
 8000fe8:	3e02      	subs	r6, #2
 8000fea:	4463      	add	r3, ip
 8000fec:	e730      	b.n	8000e50 <__udivmoddi4+0x11c>
 8000fee:	bf00      	nop

08000ff0 <__aeabi_idiv0>:
 8000ff0:	4770      	bx	lr
 8000ff2:	bf00      	nop

08000ff4 <MX_ADC1_Init>:

ADC_HandleTypeDef hadc1;

/* ADC1 init function */
void MX_ADC1_Init(void)
{
 8000ff4:	b580      	push	{r7, lr}
 8000ff6:	b084      	sub	sp, #16
 8000ff8:	af00      	add	r7, sp, #0

  /* USER CODE BEGIN ADC1_Init 0 */

  /* USER CODE END ADC1_Init 0 */

  ADC_ChannelConfTypeDef sConfig = {0};
 8000ffa:	463b      	mov	r3, r7
 8000ffc:	2200      	movs	r2, #0
 8000ffe:	601a      	str	r2, [r3, #0]
 8001000:	605a      	str	r2, [r3, #4]
 8001002:	609a      	str	r2, [r3, #8]
 8001004:	60da      	str	r2, [r3, #12]

  /* USER CODE END ADC1_Init 1 */

  /** Configure the global features of the ADC (Clock, Resolution, Data Alignment and number of conversion)
  */
  hadc1.Instance = ADC1;
 8001006:	4b21      	ldr	r3, [pc, #132]	@ (800108c <MX_ADC1_Init+0x98>)
 8001008:	4a21      	ldr	r2, [pc, #132]	@ (8001090 <MX_ADC1_Init+0x9c>)
 800100a:	601a      	str	r2, [r3, #0]
  hadc1.Init.ClockPrescaler = ADC_CLOCK_SYNC_PCLK_DIV4;
 800100c:	4b1f      	ldr	r3, [pc, #124]	@ (800108c <MX_ADC1_Init+0x98>)
 800100e:	f44f 3280 	mov.w	r2, #65536	@ 0x10000
 8001012:	605a      	str	r2, [r3, #4]
  hadc1.Init.Resolution = ADC_RESOLUTION_12B;
 8001014:	4b1d      	ldr	r3, [pc, #116]	@ (800108c <MX_ADC1_Init+0x98>)
 8001016:	2200      	movs	r2, #0
 8001018:	609a      	str	r2, [r3, #8]
  hadc1.Init.ScanConvMode = DISABLE;
 800101a:	4b1c      	ldr	r3, [pc, #112]	@ (800108c <MX_ADC1_Init+0x98>)
 800101c:	2200      	movs	r2, #0
 800101e:	611a      	str	r2, [r3, #16]
  hadc1.Init.ContinuousConvMode = DISABLE;
 8001020:	4b1a      	ldr	r3, [pc, #104]	@ (800108c <MX_ADC1_Init+0x98>)
 8001022:	2200      	movs	r2, #0
 8001024:	761a      	strb	r2, [r3, #24]
  hadc1.Init.DiscontinuousConvMode = DISABLE;
 8001026:	4b19      	ldr	r3, [pc, #100]	@ (800108c <MX_ADC1_Init+0x98>)
 8001028:	2200      	movs	r2, #0
 800102a:	f883 2020 	strb.w	r2, [r3, #32]
  hadc1.Init.ExternalTrigConvEdge = ADC_EXTERNALTRIGCONVEDGE_NONE;
 800102e:	4b17      	ldr	r3, [pc, #92]	@ (800108c <MX_ADC1_Init+0x98>)
 8001030:	2200      	movs	r2, #0
 8001032:	62da      	str	r2, [r3, #44]	@ 0x2c
  hadc1.Init.ExternalTrigConv = ADC_SOFTWARE_START;
 8001034:	4b15      	ldr	r3, [pc, #84]	@ (800108c <MX_ADC1_Init+0x98>)
 8001036:	4a17      	ldr	r2, [pc, #92]	@ (8001094 <MX_ADC1_Init+0xa0>)
 8001038:	629a      	str	r2, [r3, #40]	@ 0x28
  hadc1.Init.DataAlign = ADC_DATAALIGN_RIGHT;
 800103a:	4b14      	ldr	r3, [pc, #80]	@ (800108c <MX_ADC1_Init+0x98>)
 800103c:	2200      	movs	r2, #0
 800103e:	60da      	str	r2, [r3, #12]
  hadc1.Init.NbrOfConversion = 1;
 8001040:	4b12      	ldr	r3, [pc, #72]	@ (800108c <MX_ADC1_Init+0x98>)
 8001042:	2201      	movs	r2, #1
 8001044:	61da      	str	r2, [r3, #28]
  hadc1.Init.DMAContinuousRequests = DISABLE;
 8001046:	4b11      	ldr	r3, [pc, #68]	@ (800108c <MX_ADC1_Init+0x98>)
 8001048:	2200      	movs	r2, #0
 800104a:	f883 2030 	strb.w	r2, [r3, #48]	@ 0x30
  hadc1.Init.EOCSelection = ADC_EOC_SINGLE_CONV;
 800104e:	4b0f      	ldr	r3, [pc, #60]	@ (800108c <MX_ADC1_Init+0x98>)
 8001050:	2201      	movs	r2, #1
 8001052:	615a      	str	r2, [r3, #20]
  if (HAL_ADC_Init(&hadc1) != HAL_OK)
 8001054:	480d      	ldr	r0, [pc, #52]	@ (800108c <MX_ADC1_Init+0x98>)
 8001056:	f000 fd49 	bl	8001aec <HAL_ADC_Init>
 800105a:	4603      	mov	r3, r0
 800105c:	2b00      	cmp	r3, #0
 800105e:	d001      	beq.n	8001064 <MX_ADC1_Init+0x70>
  {
    Error_Handler();
 8001060:	f000 f9d8 	bl	8001414 <Error_Handler>
  }

  /** Configure for the selected ADC regular channel its corresponding rank in the sequencer and its sample time.
  */
  sConfig.Channel = ADC_CHANNEL_0;
 8001064:	2300      	movs	r3, #0
 8001066:	603b      	str	r3, [r7, #0]
  sConfig.Rank = 1;
 8001068:	2301      	movs	r3, #1
 800106a:	607b      	str	r3, [r7, #4]
  sConfig.SamplingTime = ADC_SAMPLETIME_3CYCLES;
 800106c:	2300      	movs	r3, #0
 800106e:	60bb      	str	r3, [r7, #8]
  if (HAL_ADC_ConfigChannel(&hadc1, &sConfig) != HAL_OK)
 8001070:	463b      	mov	r3, r7
 8001072:	4619      	mov	r1, r3
 8001074:	4805      	ldr	r0, [pc, #20]	@ (800108c <MX_ADC1_Init+0x98>)
 8001076:	f000 fefd 	bl	8001e74 <HAL_ADC_ConfigChannel>
 800107a:	4603      	mov	r3, r0
 800107c:	2b00      	cmp	r3, #0
 800107e:	d001      	beq.n	8001084 <MX_ADC1_Init+0x90>
  {
    Error_Handler();
 8001080:	f000 f9c8 	bl	8001414 <Error_Handler>
  }
  /* USER CODE BEGIN ADC1_Init 2 */

  /* USER CODE END ADC1_Init 2 */

}
 8001084:	bf00      	nop
 8001086:	3710      	adds	r7, #16
 8001088:	46bd      	mov	sp, r7
 800108a:	bd80      	pop	{r7, pc}
 800108c:	200001f0 	.word	0x200001f0
 8001090:	40012000 	.word	0x40012000
 8001094:	0f000001 	.word	0x0f000001

08001098 <HAL_ADC_MspInit>:

void HAL_ADC_MspInit(ADC_HandleTypeDef* adcHandle)
{
 8001098:	b580      	push	{r7, lr}
 800109a:	b08a      	sub	sp, #40	@ 0x28
 800109c:	af00      	add	r7, sp, #0
 800109e:	6078      	str	r0, [r7, #4]

  GPIO_InitTypeDef GPIO_InitStruct = {0};
 80010a0:	f107 0314 	add.w	r3, r7, #20
 80010a4:	2200      	movs	r2, #0
 80010a6:	601a      	str	r2, [r3, #0]
 80010a8:	605a      	str	r2, [r3, #4]
 80010aa:	609a      	str	r2, [r3, #8]
 80010ac:	60da      	str	r2, [r3, #12]
 80010ae:	611a      	str	r2, [r3, #16]
  if(adcHandle->Instance==ADC1)
 80010b0:	687b      	ldr	r3, [r7, #4]
 80010b2:	681b      	ldr	r3, [r3, #0]
 80010b4:	4a17      	ldr	r2, [pc, #92]	@ (8001114 <HAL_ADC_MspInit+0x7c>)
 80010b6:	4293      	cmp	r3, r2
 80010b8:	d127      	bne.n	800110a <HAL_ADC_MspInit+0x72>
  {
  /* USER CODE BEGIN ADC1_MspInit 0 */

  /* USER CODE END ADC1_MspInit 0 */
    /* ADC1 clock enable */
    __HAL_RCC_ADC1_CLK_ENABLE();
 80010ba:	2300      	movs	r3, #0
 80010bc:	613b      	str	r3, [r7, #16]
 80010be:	4b16      	ldr	r3, [pc, #88]	@ (8001118 <HAL_ADC_MspInit+0x80>)
 80010c0:	6c5b      	ldr	r3, [r3, #68]	@ 0x44
 80010c2:	4a15      	ldr	r2, [pc, #84]	@ (8001118 <HAL_ADC_MspInit+0x80>)
 80010c4:	f443 7380 	orr.w	r3, r3, #256	@ 0x100
 80010c8:	6453      	str	r3, [r2, #68]	@ 0x44
 80010ca:	4b13      	ldr	r3, [pc, #76]	@ (8001118 <HAL_ADC_MspInit+0x80>)
 80010cc:	6c5b      	ldr	r3, [r3, #68]	@ 0x44
 80010ce:	f403 7380 	and.w	r3, r3, #256	@ 0x100
 80010d2:	613b      	str	r3, [r7, #16]
 80010d4:	693b      	ldr	r3, [r7, #16]

    __HAL_RCC_GPIOA_CLK_ENABLE();
 80010d6:	2300      	movs	r3, #0
 80010d8:	60fb      	str	r3, [r7, #12]
 80010da:	4b0f      	ldr	r3, [pc, #60]	@ (8001118 <HAL_ADC_MspInit+0x80>)
 80010dc:	6b1b      	ldr	r3, [r3, #48]	@ 0x30
 80010de:	4a0e      	ldr	r2, [pc, #56]	@ (8001118 <HAL_ADC_MspInit+0x80>)
 80010e0:	f043 0301 	orr.w	r3, r3, #1
 80010e4:	6313      	str	r3, [r2, #48]	@ 0x30
 80010e6:	4b0c      	ldr	r3, [pc, #48]	@ (8001118 <HAL_ADC_MspInit+0x80>)
 80010e8:	6b1b      	ldr	r3, [r3, #48]	@ 0x30
 80010ea:	f003 0301 	and.w	r3, r3, #1
 80010ee:	60fb      	str	r3, [r7, #12]
 80010f0:	68fb      	ldr	r3, [r7, #12]
    /**ADC1 GPIO Configuration
    PA0-WKUP     ------> ADC1_IN0
    PA1     ------> ADC1_IN1
    */
    GPIO_InitStruct.Pin = GPIO_PIN_0|GPIO_PIN_1;
 80010f2:	2303      	movs	r3, #3
 80010f4:	617b      	str	r3, [r7, #20]
    GPIO_InitStruct.Mode = GPIO_MODE_ANALOG;
 80010f6:	2303      	movs	r3, #3
 80010f8:	61bb      	str	r3, [r7, #24]
    GPIO_InitStruct.Pull = GPIO_NOPULL;
 80010fa:	2300      	movs	r3, #0
 80010fc:	61fb      	str	r3, [r7, #28]
    HAL_GPIO_Init(GPIOA, &GPIO_InitStruct);
 80010fe:	f107 0314 	add.w	r3, r7, #20
 8001102:	4619      	mov	r1, r3
 8001104:	4805      	ldr	r0, [pc, #20]	@ (800111c <HAL_ADC_MspInit+0x84>)
 8001106:	f001 f9b9 	bl	800247c <HAL_GPIO_Init>

  /* USER CODE BEGIN ADC1_MspInit 1 */

  /* USER CODE END ADC1_MspInit 1 */
  }
}
 800110a:	bf00      	nop
 800110c:	3728      	adds	r7, #40	@ 0x28
 800110e:	46bd      	mov	sp, r7
 8001110:	bd80      	pop	{r7, pc}
 8001112:	bf00      	nop
 8001114:	40012000 	.word	0x40012000
 8001118:	40023800 	.word	0x40023800
 800111c:	40020000 	.word	0x40020000

08001120 <MX_GPIO_Init>:
 8001120:	b580      	push	{r7, lr}
 8001122:	b088      	sub	sp, #32
 8001124:	af00      	add	r7, sp, #0
 8001126:	f107 030c 	add.w	r3, r7, #12
 800112a:	2200      	movs	r2, #0
 800112c:	601a      	str	r2, [r3, #0]
 800112e:	605a      	str	r2, [r3, #4]
 8001130:	609a      	str	r2, [r3, #8]
 8001132:	60da      	str	r2, [r3, #12]
 8001134:	611a      	str	r2, [r3, #16]
 8001136:	2300      	movs	r3, #0
 8001138:	60bb      	str	r3, [r7, #8]
 800113a:	4b39      	ldr	r3, [pc, #228]	@ (8001220 <MX_GPIO_Init+0x100>)
 800113c:	6b1b      	ldr	r3, [r3, #48]	@ 0x30
 800113e:	4a38      	ldr	r2, [pc, #224]	@ (8001220 <MX_GPIO_Init+0x100>)
 8001140:	f043 0301 	orr.w	r3, r3, #1
 8001144:	6313      	str	r3, [r2, #48]	@ 0x30
 8001146:	4b36      	ldr	r3, [pc, #216]	@ (8001220 <MX_GPIO_Init+0x100>)
 8001148:	6b1b      	ldr	r3, [r3, #48]	@ 0x30
 800114a:	f003 0301 	and.w	r3, r3, #1
 800114e:	60bb      	str	r3, [r7, #8]
 8001150:	68bb      	ldr	r3, [r7, #8]
 8001152:	2300      	movs	r3, #0
 8001154:	607b      	str	r3, [r7, #4]
 8001156:	4b32      	ldr	r3, [pc, #200]	@ (8001220 <MX_GPIO_Init+0x100>)
 8001158:	6b1b      	ldr	r3, [r3, #48]	@ 0x30
 800115a:	4a31      	ldr	r2, [pc, #196]	@ (8001220 <MX_GPIO_Init+0x100>)
 800115c:	f043 0304 	orr.w	r3, r3, #4
 8001160:	6313      	str	r3, [r2, #48]	@ 0x30
 8001162:	4b2f      	ldr	r3, [pc, #188]	@ (8001220 <MX_GPIO_Init+0x100>)
 8001164:	6b1b      	ldr	r3, [r3, #48]	@ 0x30
 8001166:	f003 0304 	and.w	r3, r3, #4
 800116a:	607b      	str	r3, [r7, #4]
 800116c:	687b      	ldr	r3, [r7, #4]
 800116e:	2300      	movs	r3, #0
 8001170:	603b      	str	r3, [r7, #0]
 8001172:	4b2b      	ldr	r3, [pc, #172]	@ (8001220 <MX_GPIO_Init+0x100>)
 8001174:	6b1b      	ldr	r3, [r3, #48]	@ 0x30
 8001176:	4a2a      	ldr	r2, [pc, #168]	@ (8001220 <MX_GPIO_Init+0x100>)
 8001178:	f043 0302 	orr.w	r3, r3, #2
 800117c:	6313      	str	r3, [r2, #48]	@ 0x30
 800117e:	4b28      	ldr	r3, [pc, #160]	@ (8001220 <MX_GPIO_Init+0x100>)
 8001180:	6b1b      	ldr	r3, [r3, #48]	@ 0x30
 8001182:	f003 0302 	and.w	r3, r3, #2
 8001186:	603b      	str	r3, [r7, #0]
 8001188:	683b      	ldr	r3, [r7, #0]
 800118a:	2200      	movs	r2, #0
 800118c:	2180      	movs	r1, #128	@ 0x80
 800118e:	4825      	ldr	r0, [pc, #148]	@ (8001224 <MX_GPIO_Init+0x104>)
 8001190:	f001 faf8 	bl	8002784 <HAL_GPIO_WritePin>
 8001194:	2200      	movs	r2, #0
 8001196:	2180      	movs	r1, #128	@ 0x80
 8001198:	4823      	ldr	r0, [pc, #140]	@ (8001228 <MX_GPIO_Init+0x108>)
 800119a:	f001 faf3 	bl	8002784 <HAL_GPIO_WritePin>
 800119e:	2200      	movs	r2, #0
 80011a0:	2140      	movs	r1, #64	@ 0x40
 80011a2:	4822      	ldr	r0, [pc, #136]	@ (800122c <MX_GPIO_Init+0x10c>)
 80011a4:	f001 faee 	bl	8002784 <HAL_GPIO_WritePin>
 80011a8:	2380      	movs	r3, #128	@ 0x80
 80011aa:	60fb      	str	r3, [r7, #12]
 80011ac:	2301      	movs	r3, #1
 80011ae:	613b      	str	r3, [r7, #16]
 80011b0:	2300      	movs	r3, #0
 80011b2:	617b      	str	r3, [r7, #20]
 80011b4:	2300      	movs	r3, #0
 80011b6:	61bb      	str	r3, [r7, #24]
 80011b8:	f107 030c 	add.w	r3, r7, #12
 80011bc:	4619      	mov	r1, r3
 80011be:	4819      	ldr	r0, [pc, #100]	@ (8001224 <MX_GPIO_Init+0x104>)
 80011c0:	f001 f95c 	bl	800247c <HAL_GPIO_Init>
 80011c4:	2380      	movs	r3, #128	@ 0x80
 80011c6:	60fb      	str	r3, [r7, #12]
 80011c8:	2301      	movs	r3, #1
 80011ca:	613b      	str	r3, [r7, #16]
 80011cc:	2300      	movs	r3, #0
 80011ce:	617b      	str	r3, [r7, #20]
 80011d0:	2300      	movs	r3, #0
 80011d2:	61bb      	str	r3, [r7, #24]
 80011d4:	f107 030c 	add.w	r3, r7, #12
 80011d8:	4619      	mov	r1, r3
 80011da:	4813      	ldr	r0, [pc, #76]	@ (8001228 <MX_GPIO_Init+0x108>)
 80011dc:	f001 f94e 	bl	800247c <HAL_GPIO_Init>
 80011e0:	f44f 7380 	mov.w	r3, #256	@ 0x100
 80011e4:	60fb      	str	r3, [r7, #12]
 80011e6:	2300      	movs	r3, #0
 80011e8:	613b      	str	r3, [r7, #16]
 80011ea:	2300      	movs	r3, #0
 80011ec:	617b      	str	r3, [r7, #20]
 80011ee:	f107 030c 	add.w	r3, r7, #12
 80011f2:	4619      	mov	r1, r3
 80011f4:	480b      	ldr	r0, [pc, #44]	@ (8001224 <MX_GPIO_Init+0x104>)
 80011f6:	f001 f941 	bl	800247c <HAL_GPIO_Init>
 80011fa:	2340      	movs	r3, #64	@ 0x40
 80011fc:	60fb      	str	r3, [r7, #12]
 80011fe:	2301      	movs	r3, #1
 8001200:	613b      	str	r3, [r7, #16]
 8001202:	2300      	movs	r3, #0
 8001204:	617b      	str	r3, [r7, #20]
 8001206:	2300      	movs	r3, #0
 8001208:	61bb      	str	r3, [r7, #24]
 800120a:	f107 030c 	add.w	r3, r7, #12
 800120e:	4619      	mov	r1, r3
 8001210:	4806      	ldr	r0, [pc, #24]	@ (800122c <MX_GPIO_Init+0x10c>)
 8001212:	f001 f933 	bl	800247c <HAL_GPIO_Init>
 8001216:	bf00      	nop
 8001218:	3720      	adds	r7, #32
 800121a:	46bd      	mov	sp, r7
 800121c:	bd80      	pop	{r7, pc}
 800121e:	bf00      	nop
 8001220:	40023800 	.word	0x40023800
 8001224:	40020000 	.word	0x40020000
 8001228:	40020800 	.word	0x40020800
 800122c:	40020400 	.word	0x40020400

08001230 <main>:
/**
  * @brief  The application entry point.
  * @retval int
  */
int main(void)
{
 8001230:	b5f0      	push	{r4, r5, r6, r7, lr}
 8001232:	b089      	sub	sp, #36	@ 0x24
 8001234:	af02      	add	r7, sp, #8
  /* USER CODE END 1 */

  /* MCU Configuration--------------------------------------------------------*/

  /* Reset of all peripherals, Initializes the Flash interface and the Systick. */
  HAL_Init();
 8001236:	f000 fbc3 	bl	80019c0 <HAL_Init>
  /* USER CODE BEGIN Init */

  /* USER CODE END Init */

  /* Configure the system clock */
  SystemClock_Config();
 800123a:	f000 f869 	bl	8001310 <SystemClock_Config>
  /* USER CODE BEGIN SysInit */

  /* USER CODE END SysInit */

  /* Initialize all configured peripherals */
  MX_GPIO_Init();
 800123e:	f7ff ff6f 	bl	8001120 <MX_GPIO_Init>
  MX_ADC1_Init();
 8001242:	f7ff fed7 	bl	8000ff4 <MX_ADC1_Init>
  MX_USART2_UART_Init();
 8001246:	f000 fb1f 	bl	8001888 <MX_USART2_UART_Init>

    /* USER CODE END WHILE */

    /* USER CODE BEGIN 3 */

	t1 = HAL_GetTick();
 800124a:	f000 fc1f 	bl	8001a8c <HAL_GetTick>
 800124e:	6178      	str	r0, [r7, #20]


	singleConvMode = 1;
 8001250:	2301      	movs	r3, #1
 8001252:	613b      	str	r3, [r7, #16]
	if( switch_channel_and_read(&data_out, &hadc1, ADC_CHANNEL_0, ADC_SAMPLETIME_3CYCLES, singleConvMode) != HAL_OK){
 8001254:	f107 000a 	add.w	r0, r7, #10
 8001258:	693b      	ldr	r3, [r7, #16]
 800125a:	9300      	str	r3, [sp, #0]
 800125c:	2300      	movs	r3, #0
 800125e:	2200      	movs	r2, #0
 8001260:	4927      	ldr	r1, [pc, #156]	@ (8001300 <main+0xd0>)
 8001262:	f000 fa1d 	bl	80016a0 <switch_channel_and_read>
 8001266:	4603      	mov	r3, r0
 8001268:	2b00      	cmp	r3, #0
 800126a:	d003      	beq.n	8001274 <main+0x44>
		printf("\reError with ADC \r\n");
 800126c:	4825      	ldr	r0, [pc, #148]	@ (8001304 <main+0xd4>)
 800126e:	f003 fadd 	bl	800482c <puts>
 8001272:	e01c      	b.n	80012ae <main+0x7e>
	}else{
		//Sensore di temperatura
		float V, T;
		read_temperature(&data_out, &V, &T);
 8001274:	463a      	mov	r2, r7
 8001276:	1d39      	adds	r1, r7, #4
 8001278:	f107 030a 	add.w	r3, r7, #10
 800127c:	4618      	mov	r0, r3
 800127e:	f000 f8cf 	bl	8001420 <read_temperature>
		printf("\r data:%u\t, voltage:%.2f mV\t, temp:%.1f\xB0 C \n", data_out, V, T);
 8001282:	897b      	ldrh	r3, [r7, #10]
 8001284:	461e      	mov	r6, r3
 8001286:	687b      	ldr	r3, [r7, #4]
 8001288:	4618      	mov	r0, r3
 800128a:	f7ff f965 	bl	8000558 <__aeabi_f2d>
 800128e:	4604      	mov	r4, r0
 8001290:	460d      	mov	r5, r1
 8001292:	683b      	ldr	r3, [r7, #0]
 8001294:	4618      	mov	r0, r3
 8001296:	f7ff f95f 	bl	8000558 <__aeabi_f2d>
 800129a:	4602      	mov	r2, r0
 800129c:	460b      	mov	r3, r1
 800129e:	e9cd 2300 	strd	r2, r3, [sp]
 80012a2:	4622      	mov	r2, r4
 80012a4:	462b      	mov	r3, r5
 80012a6:	4631      	mov	r1, r6
 80012a8:	4817      	ldr	r0, [pc, #92]	@ (8001308 <main+0xd8>)
 80012aa:	f003 fa57 	bl	800475c <iprintf>
	}


	if( switch_channel_and_read(&data_out, &hadc1, ADC_CHANNEL_1, ADC_SAMPLETIME_3CYCLES, singleConvMode) != HAL_OK){
 80012ae:	f107 000a 	add.w	r0, r7, #10
 80012b2:	693b      	ldr	r3, [r7, #16]
 80012b4:	9300      	str	r3, [sp, #0]
 80012b6:	2300      	movs	r3, #0
 80012b8:	2201      	movs	r2, #1
 80012ba:	4911      	ldr	r1, [pc, #68]	@ (8001300 <main+0xd0>)
 80012bc:	f000 f9f0 	bl	80016a0 <switch_channel_and_read>
 80012c0:	4603      	mov	r3, r0
 80012c2:	2b00      	cmp	r3, #0
 80012c4:	d003      	beq.n	80012ce <main+0x9e>
			printf("\reError with ADC \r\n");
 80012c6:	480f      	ldr	r0, [pc, #60]	@ (8001304 <main+0xd4>)
 80012c8:	f003 fab0 	bl	800482c <puts>
 80012cc:	e008      	b.n	80012e0 <main+0xb0>
		}else{


			printf("\r data:%u\t, voltage:%.2f mV\t \n", data_out, (double) data_out  *( VREF / LEVELS));
 80012ce:	897b      	ldrh	r3, [r7, #10]
 80012d0:	4619      	mov	r1, r3
 80012d2:	f04f 0200 	mov.w	r2, #0
 80012d6:	f04f 0300 	mov.w	r3, #0
 80012da:	480c      	ldr	r0, [pc, #48]	@ (800130c <main+0xdc>)
 80012dc:	f003 fa3e 	bl	800475c <iprintf>
		HAL_GPIO_WritePin (GPIOA, GREEN_LED_Pin, GPIO_PIN_SET);
	}else {
		HAL_GPIO_WritePin (GPIOA, PUSH_BUTTON_Pin, GPIO_PIN_RESET);
	}*/

	t2 = HAL_GetTick();
 80012e0:	f000 fbd4 	bl	8001a8c <HAL_GetTick>
 80012e4:	60f8      	str	r0, [r7, #12]

	HAL_Delay(100-(t2-t1));
 80012e6:	697a      	ldr	r2, [r7, #20]
 80012e8:	68fb      	ldr	r3, [r7, #12]
 80012ea:	1ad3      	subs	r3, r2, r3
 80012ec:	3364      	adds	r3, #100	@ 0x64
 80012ee:	4618      	mov	r0, r3
 80012f0:	f000 fbd8 	bl	8001aa4 <HAL_Delay>

	HAL_Delay(1000);
 80012f4:	f44f 707a 	mov.w	r0, #1000	@ 0x3e8
 80012f8:	f000 fbd4 	bl	8001aa4 <HAL_Delay>
	t1 = HAL_GetTick();
 80012fc:	e7a5      	b.n	800124a <main+0x1a>
 80012fe:	bf00      	nop
 8001300:	200001f0 	.word	0x200001f0
 8001304:	080084c0 	.word	0x080084c0
 8001308:	080084d4 	.word	0x080084d4
 800130c:	08008504 	.word	0x08008504

08001310 <SystemClock_Config>:
/**
  * @brief System Clock Configuration
  * @retval None
  */
void SystemClock_Config(void)
{
 8001310:	b580      	push	{r7, lr}
 8001312:	b094      	sub	sp, #80	@ 0x50
 8001314:	af00      	add	r7, sp, #0
  RCC_OscInitTypeDef RCC_OscInitStruct = {0};
 8001316:	f107 0320 	add.w	r3, r7, #32
 800131a:	2230      	movs	r2, #48	@ 0x30
 800131c:	2100      	movs	r1, #0
 800131e:	4618      	mov	r0, r3
 8001320:	f003 fb84 	bl	8004a2c <memset>
  RCC_ClkInitTypeDef RCC_ClkInitStruct = {0};
 8001324:	f107 030c 	add.w	r3, r7, #12
 8001328:	2200      	movs	r2, #0
 800132a:	601a      	str	r2, [r3, #0]
 800132c:	605a      	str	r2, [r3, #4]
 800132e:	609a      	str	r2, [r3, #8]
 8001330:	60da      	str	r2, [r3, #12]
 8001332:	611a      	str	r2, [r3, #16]

  /** Configure the main internal regulator output voltage
  */
  __HAL_RCC_PWR_CLK_ENABLE();
 8001334:	2300      	movs	r3, #0
 8001336:	60bb      	str	r3, [r7, #8]
 8001338:	4b29      	ldr	r3, [pc, #164]	@ (80013e0 <SystemClock_Config+0xd0>)
 800133a:	6c1b      	ldr	r3, [r3, #64]	@ 0x40
 800133c:	4a28      	ldr	r2, [pc, #160]	@ (80013e0 <SystemClock_Config+0xd0>)
 800133e:	f043 5380 	orr.w	r3, r3, #268435456	@ 0x10000000
 8001342:	6413      	str	r3, [r2, #64]	@ 0x40
 8001344:	4b26      	ldr	r3, [pc, #152]	@ (80013e0 <SystemClock_Config+0xd0>)
 8001346:	6c1b      	ldr	r3, [r3, #64]	@ 0x40
 8001348:	f003 5380 	and.w	r3, r3, #268435456	@ 0x10000000
 800134c:	60bb      	str	r3, [r7, #8]
 800134e:	68bb      	ldr	r3, [r7, #8]
  __HAL_PWR_VOLTAGESCALING_CONFIG(PWR_REGULATOR_VOLTAGE_SCALE2);
 8001350:	2300      	movs	r3, #0
 8001352:	607b      	str	r3, [r7, #4]
 8001354:	4b23      	ldr	r3, [pc, #140]	@ (80013e4 <SystemClock_Config+0xd4>)
 8001356:	681b      	ldr	r3, [r3, #0]
 8001358:	f423 4340 	bic.w	r3, r3, #49152	@ 0xc000
 800135c:	4a21      	ldr	r2, [pc, #132]	@ (80013e4 <SystemClock_Config+0xd4>)
 800135e:	f443 4300 	orr.w	r3, r3, #32768	@ 0x8000
 8001362:	6013      	str	r3, [r2, #0]
 8001364:	4b1f      	ldr	r3, [pc, #124]	@ (80013e4 <SystemClock_Config+0xd4>)
 8001366:	681b      	ldr	r3, [r3, #0]
 8001368:	f403 4340 	and.w	r3, r3, #49152	@ 0xc000
 800136c:	607b      	str	r3, [r7, #4]
 800136e:	687b      	ldr	r3, [r7, #4]

  /** Initializes the RCC Oscillators according to the specified parameters
  * in the RCC_OscInitTypeDef structure.
  */
  RCC_OscInitStruct.OscillatorType = RCC_OSCILLATORTYPE_HSI;
 8001370:	2302      	movs	r3, #2
 8001372:	623b      	str	r3, [r7, #32]
  RCC_OscInitStruct.HSIState = RCC_HSI_ON;
 8001374:	2301      	movs	r3, #1
 8001376:	62fb      	str	r3, [r7, #44]	@ 0x2c
  RCC_OscInitStruct.HSICalibrationValue = RCC_HSICALIBRATION_DEFAULT;
 8001378:	2310      	movs	r3, #16
 800137a:	633b      	str	r3, [r7, #48]	@ 0x30
  RCC_OscInitStruct.PLL.PLLState = RCC_PLL_ON;
 800137c:	2302      	movs	r3, #2
 800137e:	63bb      	str	r3, [r7, #56]	@ 0x38
  RCC_OscInitStruct.PLL.PLLSource = RCC_PLLSOURCE_HSI;
 8001380:	2300      	movs	r3, #0
 8001382:	63fb      	str	r3, [r7, #60]	@ 0x3c
  RCC_OscInitStruct.PLL.PLLM = 16;
 8001384:	2310      	movs	r3, #16
 8001386:	643b      	str	r3, [r7, #64]	@ 0x40
  RCC_OscInitStruct.PLL.PLLN = 336;
 8001388:	f44f 73a8 	mov.w	r3, #336	@ 0x150
 800138c:	647b      	str	r3, [r7, #68]	@ 0x44
  RCC_OscInitStruct.PLL.PLLP = RCC_PLLP_DIV4;
 800138e:	2304      	movs	r3, #4
 8001390:	64bb      	str	r3, [r7, #72]	@ 0x48
  RCC_OscInitStruct.PLL.PLLQ = 7;
 8001392:	2307      	movs	r3, #7
 8001394:	64fb      	str	r3, [r7, #76]	@ 0x4c
  if (HAL_RCC_OscConfig(&RCC_OscInitStruct) != HAL_OK)
 8001396:	f107 0320 	add.w	r3, r7, #32
 800139a:	4618      	mov	r0, r3
 800139c:	f001 fa0c 	bl	80027b8 <HAL_RCC_OscConfig>
 80013a0:	4603      	mov	r3, r0
 80013a2:	2b00      	cmp	r3, #0
 80013a4:	d001      	beq.n	80013aa <SystemClock_Config+0x9a>
  {
    Error_Handler();
 80013a6:	f000 f835 	bl	8001414 <Error_Handler>
  }

  /** Initializes the CPU, AHB and APB buses clocks
  */
  RCC_ClkInitStruct.ClockType = RCC_CLOCKTYPE_HCLK|RCC_CLOCKTYPE_SYSCLK
 80013aa:	230f      	movs	r3, #15
 80013ac:	60fb      	str	r3, [r7, #12]
                              |RCC_CLOCKTYPE_PCLK1|RCC_CLOCKTYPE_PCLK2;
  RCC_ClkInitStruct.SYSCLKSource = RCC_SYSCLKSOURCE_PLLCLK;
 80013ae:	2302      	movs	r3, #2
 80013b0:	613b      	str	r3, [r7, #16]
  RCC_ClkInitStruct.AHBCLKDivider = RCC_SYSCLK_DIV1;
 80013b2:	2300      	movs	r3, #0
 80013b4:	617b      	str	r3, [r7, #20]
  RCC_ClkInitStruct.APB1CLKDivider = RCC_HCLK_DIV2;
 80013b6:	f44f 5380 	mov.w	r3, #4096	@ 0x1000
 80013ba:	61bb      	str	r3, [r7, #24]
  RCC_ClkInitStruct.APB2CLKDivider = RCC_HCLK_DIV1;
 80013bc:	2300      	movs	r3, #0
 80013be:	61fb      	str	r3, [r7, #28]

  if (HAL_RCC_ClockConfig(&RCC_ClkInitStruct, FLASH_LATENCY_2) != HAL_OK)
 80013c0:	f107 030c 	add.w	r3, r7, #12
 80013c4:	2102      	movs	r1, #2
 80013c6:	4618      	mov	r0, r3
 80013c8:	f001 fc6e 	bl	8002ca8 <HAL_RCC_ClockConfig>
 80013cc:	4603      	mov	r3, r0
 80013ce:	2b00      	cmp	r3, #0
 80013d0:	d001      	beq.n	80013d6 <SystemClock_Config+0xc6>
  {
    Error_Handler();
 80013d2:	f000 f81f 	bl	8001414 <Error_Handler>
  }
}
 80013d6:	bf00      	nop
 80013d8:	3750      	adds	r7, #80	@ 0x50
 80013da:	46bd      	mov	sp, r7
 80013dc:	bd80      	pop	{r7, pc}
 80013de:	bf00      	nop
 80013e0:	40023800 	.word	0x40023800
 80013e4:	40007000 	.word	0x40007000

080013e8 <_write>:

/* USER CODE BEGIN 4 */

int _write(int file, char *ptr, int len)
{
 80013e8:	b580      	push	{r7, lr}
 80013ea:	b084      	sub	sp, #16
 80013ec:	af00      	add	r7, sp, #0
 80013ee:	60f8      	str	r0, [r7, #12]
 80013f0:	60b9      	str	r1, [r7, #8]
 80013f2:	607a      	str	r2, [r7, #4]
	HAL_UART_Transmit(&huart2, (uint8_t *)ptr, len, HAL_MAX_DELAY);
 80013f4:	687b      	ldr	r3, [r7, #4]
 80013f6:	b29a      	uxth	r2, r3
 80013f8:	f04f 33ff 	mov.w	r3, #4294967295
 80013fc:	68b9      	ldr	r1, [r7, #8]
 80013fe:	4804      	ldr	r0, [pc, #16]	@ (8001410 <_write+0x28>)
 8001400:	f001 fec2 	bl	8003188 <HAL_UART_Transmit>
    return len;
 8001404:	687b      	ldr	r3, [r7, #4]
}
 8001406:	4618      	mov	r0, r3
 8001408:	3710      	adds	r7, #16
 800140a:	46bd      	mov	sp, r7
 800140c:	bd80      	pop	{r7, pc}
 800140e:	bf00      	nop
 8001410:	2000023c 	.word	0x2000023c

08001414 <Error_Handler>:
/**
  * @brief  This function is executed in case of error occurrence.
  * @retval None
  */
void Error_Handler(void)
{
 8001414:	b480      	push	{r7}
 8001416:	af00      	add	r7, sp, #0
  \details Disables IRQ interrupts by setting special-purpose register PRIMASK.
           Can only be executed in Privileged modes.
 */
__STATIC_FORCEINLINE void __disable_irq(void)
{
  __ASM volatile ("cpsid i" : : : "memory");
 8001418:	b672      	cpsid	i
}
 800141a:	bf00      	nop
  /* USER CODE BEGIN Error_Handler_Debug */
  /* User can add his own implementation to report the HAL error return state */
  __disable_irq();
  while (1)
 800141c:	bf00      	nop
 800141e:	e7fd      	b.n	800141c <Error_Handler+0x8>

08001420 <read_temperature>:
 8001420:	b580      	push	{r7, lr}
 8001422:	b086      	sub	sp, #24
 8001424:	af00      	add	r7, sp, #0
 8001426:	60f8      	str	r0, [r7, #12]
 8001428:	60b9      	str	r1, [r7, #8]
 800142a:	607a      	str	r2, [r7, #4]
 800142c:	68fb      	ldr	r3, [r7, #12]
 800142e:	881b      	ldrh	r3, [r3, #0]
 8001430:	4618      	mov	r0, r3
 8001432:	f7ff f86f 	bl	8000514 <__aeabi_ui2d>
 8001436:	a338      	add	r3, pc, #224	@ (adr r3, 8001518 <read_temperature+0xf8>)
 8001438:	e9d3 2300 	ldrd	r2, r3, [r3]
 800143c:	f7ff f8e4 	bl	8000608 <__aeabi_dmul>
 8001440:	4602      	mov	r2, r0
 8001442:	460b      	mov	r3, r1
 8001444:	4610      	mov	r0, r2
 8001446:	4619      	mov	r1, r3
 8001448:	f04f 0200 	mov.w	r2, #0
 800144c:	4b2e      	ldr	r3, [pc, #184]	@ (8001508 <read_temperature+0xe8>)
 800144e:	f7ff fa05 	bl	800085c <__aeabi_ddiv>
 8001452:	4602      	mov	r2, r0
 8001454:	460b      	mov	r3, r1
 8001456:	4610      	mov	r0, r2
 8001458:	4619      	mov	r1, r3
 800145a:	f7ff fbcd 	bl	8000bf8 <__aeabi_d2f>
 800145e:	4602      	mov	r2, r0
 8001460:	68bb      	ldr	r3, [r7, #8]
 8001462:	601a      	str	r2, [r3, #0]
 8001464:	68bb      	ldr	r3, [r7, #8]
 8001466:	edd3 7a00 	vldr	s15, [r3]
 800146a:	ed9f 7a28 	vldr	s14, [pc, #160]	@ 800150c <read_temperature+0xec>
 800146e:	ee67 6a87 	vmul.f32	s13, s15, s14
 8001472:	68bb      	ldr	r3, [r7, #8]
 8001474:	edd3 7a00 	vldr	s15, [r3]
 8001478:	ed9f 7a25 	vldr	s14, [pc, #148]	@ 8001510 <read_temperature+0xf0>
 800147c:	ee37 7ac7 	vsub.f32	s14, s15, s14
 8001480:	eec6 7a87 	vdiv.f32	s15, s13, s14
 8001484:	edc7 7a05 	vstr	s15, [r7, #20]
 8001488:	edd7 7a05 	vldr	s15, [r7, #20]
 800148c:	ed9f 7a21 	vldr	s14, [pc, #132]	@ 8001514 <read_temperature+0xf4>
 8001490:	eec7 6a87 	vdiv.f32	s13, s15, s14
 8001494:	ee16 0a90 	vmov	r0, s13
 8001498:	f7ff f85e 	bl	8000558 <__aeabi_f2d>
 800149c:	4602      	mov	r2, r0
 800149e:	460b      	mov	r3, r1
 80014a0:	ec43 2b10 	vmov	d0, r2, r3
 80014a4:	f006 fe08 	bl	80080b8 <log>
 80014a8:	ec51 0b10 	vmov	r0, r1, d0
 80014ac:	a310      	add	r3, pc, #64	@ (adr r3, 80014f0 <read_temperature+0xd0>)
 80014ae:	e9d3 2300 	ldrd	r2, r3, [r3]
 80014b2:	f7fe fef3 	bl	800029c <__adddf3>
 80014b6:	4602      	mov	r2, r0
 80014b8:	460b      	mov	r3, r1
 80014ba:	a10f      	add	r1, pc, #60	@ (adr r1, 80014f8 <read_temperature+0xd8>)
 80014bc:	e9d1 0100 	ldrd	r0, r1, [r1]
 80014c0:	f7ff f9cc 	bl	800085c <__aeabi_ddiv>
 80014c4:	4602      	mov	r2, r0
 80014c6:	460b      	mov	r3, r1
 80014c8:	4610      	mov	r0, r2
 80014ca:	4619      	mov	r1, r3
 80014cc:	a30c      	add	r3, pc, #48	@ (adr r3, 8001500 <read_temperature+0xe0>)
 80014ce:	e9d3 2300 	ldrd	r2, r3, [r3]
 80014d2:	f7fe fee1 	bl	8000298 <__aeabi_dsub>
 80014d6:	4602      	mov	r2, r0
 80014d8:	460b      	mov	r3, r1
 80014da:	4610      	mov	r0, r2
 80014dc:	4619      	mov	r1, r3
 80014de:	f7ff fb8b 	bl	8000bf8 <__aeabi_d2f>
 80014e2:	4602      	mov	r2, r0
 80014e4:	687b      	ldr	r3, [r7, #4]
 80014e6:	601a      	str	r2, [r3, #0]
 80014e8:	bf00      	nop
 80014ea:	3718      	adds	r7, #24
 80014ec:	46bd      	mov	sp, r7
 80014ee:	bd80      	pop	{r7, pc}
 80014f0:	afb7e010 	.word	0xafb7e010
 80014f4:	402a7f29 	.word	0x402a7f29
 80014f8:	00000000 	.word	0x00000000
 80014fc:	40aedc00 	.word	0x40aedc00
 8001500:	66666666 	.word	0x66666666
 8001504:	40711266 	.word	0x40711266
 8001508:	40b00000 	.word	0x40b00000
 800150c:	c61c4000 	.word	0xc61c4000
 8001510:	4550c000 	.word	0x4550c000
 8001514:	461c4000 	.word	0x461c4000
 8001518:	00000000 	.word	0x00000000
 800151c:	40aa1800 	.word	0x40aa1800

08001520 <HAL_MspInit>:
 8001520:	b580      	push	{r7, lr}
 8001522:	b082      	sub	sp, #8
 8001524:	af00      	add	r7, sp, #0
 8001526:	2300      	movs	r3, #0
 8001528:	607b      	str	r3, [r7, #4]
 800152a:	4b10      	ldr	r3, [pc, #64]	@ (800156c <HAL_MspInit+0x4c>)
 800152c:	6c5b      	ldr	r3, [r3, #68]	@ 0x44
 800152e:	4a0f      	ldr	r2, [pc, #60]	@ (800156c <HAL_MspInit+0x4c>)
 8001530:	f443 4380 	orr.w	r3, r3, #16384	@ 0x4000
 8001534:	6453      	str	r3, [r2, #68]	@ 0x44
 8001536:	4b0d      	ldr	r3, [pc, #52]	@ (800156c <HAL_MspInit+0x4c>)
 8001538:	6c5b      	ldr	r3, [r3, #68]	@ 0x44
 800153a:	f403 4380 	and.w	r3, r3, #16384	@ 0x4000
 800153e:	607b      	str	r3, [r7, #4]
 8001540:	687b      	ldr	r3, [r7, #4]
 8001542:	2300      	movs	r3, #0
 8001544:	603b      	str	r3, [r7, #0]
 8001546:	4b09      	ldr	r3, [pc, #36]	@ (800156c <HAL_MspInit+0x4c>)
 8001548:	6c1b      	ldr	r3, [r3, #64]	@ 0x40
 800154a:	4a08      	ldr	r2, [pc, #32]	@ (800156c <HAL_MspInit+0x4c>)
 800154c:	f043 5380 	orr.w	r3, r3, #268435456	@ 0x10000000
 8001550:	6413      	str	r3, [r2, #64]	@ 0x40
 8001552:	4b06      	ldr	r3, [pc, #24]	@ (800156c <HAL_MspInit+0x4c>)
 8001554:	6c1b      	ldr	r3, [r3, #64]	@ 0x40
 8001556:	f003 5380 	and.w	r3, r3, #268435456	@ 0x10000000
 800155a:	603b      	str	r3, [r7, #0]
 800155c:	683b      	ldr	r3, [r7, #0]
 800155e:	2007      	movs	r0, #7
 8001560:	f000 ff58 	bl	8002414 <HAL_NVIC_SetPriorityGrouping>
 8001564:	bf00      	nop
 8001566:	3708      	adds	r7, #8
 8001568:	46bd      	mov	sp, r7
 800156a:	bd80      	pop	{r7, pc}
 800156c:	40023800 	.word	0x40023800

08001570 <NMI_Handler>:
 8001570:	b480      	push	{r7}
 8001572:	af00      	add	r7, sp, #0
 8001574:	bf00      	nop
 8001576:	e7fd      	b.n	8001574 <NMI_Handler+0x4>

08001578 <HardFault_Handler>:
 8001578:	b480      	push	{r7}
 800157a:	af00      	add	r7, sp, #0
 800157c:	bf00      	nop
 800157e:	e7fd      	b.n	800157c <HardFault_Handler+0x4>

08001580 <MemManage_Handler>:
 8001580:	b480      	push	{r7}
 8001582:	af00      	add	r7, sp, #0
 8001584:	bf00      	nop
 8001586:	e7fd      	b.n	8001584 <MemManage_Handler+0x4>

08001588 <BusFault_Handler>:
 8001588:	b480      	push	{r7}
 800158a:	af00      	add	r7, sp, #0
 800158c:	bf00      	nop
 800158e:	e7fd      	b.n	800158c <BusFault_Handler+0x4>

08001590 <UsageFault_Handler>:
 8001590:	b480      	push	{r7}
 8001592:	af00      	add	r7, sp, #0
 8001594:	bf00      	nop
 8001596:	e7fd      	b.n	8001594 <UsageFault_Handler+0x4>

08001598 <SVC_Handler>:
 8001598:	b480      	push	{r7}
 800159a:	af00      	add	r7, sp, #0
 800159c:	bf00      	nop
 800159e:	46bd      	mov	sp, r7
 80015a0:	f85d 7b04 	ldr.w	r7, [sp], #4
 80015a4:	4770      	bx	lr

080015a6 <DebugMon_Handler>:
 80015a6:	b480      	push	{r7}
 80015a8:	af00      	add	r7, sp, #0
 80015aa:	bf00      	nop
 80015ac:	46bd      	mov	sp, r7
 80015ae:	f85d 7b04 	ldr.w	r7, [sp], #4
 80015b2:	4770      	bx	lr

080015b4 <PendSV_Handler>:
 80015b4:	b480      	push	{r7}
 80015b6:	af00      	add	r7, sp, #0
 80015b8:	bf00      	nop
 80015ba:	46bd      	mov	sp, r7
 80015bc:	f85d 7b04 	ldr.w	r7, [sp], #4
 80015c0:	4770      	bx	lr

080015c2 <SysTick_Handler>:
 80015c2:	b580      	push	{r7, lr}
 80015c4:	af00      	add	r7, sp, #0
 80015c6:	f000 fa4d 	bl	8001a64 <HAL_IncTick>
 80015ca:	bf00      	nop
 80015cc:	bd80      	pop	{r7, pc}
	...

080015d0 <channel_config>:
 80015d0:	b580      	push	{r7, lr}
 80015d2:	b088      	sub	sp, #32
 80015d4:	af00      	add	r7, sp, #0
 80015d6:	60f8      	str	r0, [r7, #12]
 80015d8:	60b9      	str	r1, [r7, #8]
 80015da:	607a      	str	r2, [r7, #4]
 80015dc:	603b      	str	r3, [r7, #0]
 80015de:	f107 0310 	add.w	r3, r7, #16
 80015e2:	2200      	movs	r2, #0
 80015e4:	601a      	str	r2, [r3, #0]
 80015e6:	605a      	str	r2, [r3, #4]
 80015e8:	609a      	str	r2, [r3, #8]
 80015ea:	60da      	str	r2, [r3, #12]
 80015ec:	4b29      	ldr	r3, [pc, #164]	@ (8001694 <channel_config+0xc4>)
 80015ee:	4a2a      	ldr	r2, [pc, #168]	@ (8001698 <channel_config+0xc8>)
 80015f0:	601a      	str	r2, [r3, #0]
 80015f2:	4b28      	ldr	r3, [pc, #160]	@ (8001694 <channel_config+0xc4>)
 80015f4:	f44f 3280 	mov.w	r2, #65536	@ 0x10000
 80015f8:	605a      	str	r2, [r3, #4]
 80015fa:	4b26      	ldr	r3, [pc, #152]	@ (8001694 <channel_config+0xc4>)
 80015fc:	2200      	movs	r2, #0
 80015fe:	609a      	str	r2, [r3, #8]
 8001600:	4b24      	ldr	r3, [pc, #144]	@ (8001694 <channel_config+0xc4>)
 8001602:	2200      	movs	r2, #0
 8001604:	611a      	str	r2, [r3, #16]
 8001606:	683b      	ldr	r3, [r7, #0]
 8001608:	2b00      	cmp	r3, #0
 800160a:	d006      	beq.n	800161a <channel_config+0x4a>
 800160c:	4b21      	ldr	r3, [pc, #132]	@ (8001694 <channel_config+0xc4>)
 800160e:	2200      	movs	r2, #0
 8001610:	761a      	strb	r2, [r3, #24]
 8001612:	4b20      	ldr	r3, [pc, #128]	@ (8001694 <channel_config+0xc4>)
 8001614:	2201      	movs	r2, #1
 8001616:	615a      	str	r2, [r3, #20]
 8001618:	e005      	b.n	8001626 <channel_config+0x56>
 800161a:	4b1e      	ldr	r3, [pc, #120]	@ (8001694 <channel_config+0xc4>)
 800161c:	2201      	movs	r2, #1
 800161e:	761a      	strb	r2, [r3, #24]
 8001620:	4b1c      	ldr	r3, [pc, #112]	@ (8001694 <channel_config+0xc4>)
 8001622:	2200      	movs	r2, #0
 8001624:	615a      	str	r2, [r3, #20]
 8001626:	4b1b      	ldr	r3, [pc, #108]	@ (8001694 <channel_config+0xc4>)
 8001628:	2200      	movs	r2, #0
 800162a:	f883 2020 	strb.w	r2, [r3, #32]
 800162e:	4b19      	ldr	r3, [pc, #100]	@ (8001694 <channel_config+0xc4>)
 8001630:	2200      	movs	r2, #0
 8001632:	62da      	str	r2, [r3, #44]	@ 0x2c
 8001634:	4b17      	ldr	r3, [pc, #92]	@ (8001694 <channel_config+0xc4>)
 8001636:	4a19      	ldr	r2, [pc, #100]	@ (800169c <channel_config+0xcc>)
 8001638:	629a      	str	r2, [r3, #40]	@ 0x28
 800163a:	4b16      	ldr	r3, [pc, #88]	@ (8001694 <channel_config+0xc4>)
 800163c:	2200      	movs	r2, #0
 800163e:	60da      	str	r2, [r3, #12]
 8001640:	4b14      	ldr	r3, [pc, #80]	@ (8001694 <channel_config+0xc4>)
 8001642:	2201      	movs	r2, #1
 8001644:	61da      	str	r2, [r3, #28]
 8001646:	4b13      	ldr	r3, [pc, #76]	@ (8001694 <channel_config+0xc4>)
 8001648:	2200      	movs	r2, #0
 800164a:	f883 2030 	strb.w	r2, [r3, #48]	@ 0x30
 800164e:	4811      	ldr	r0, [pc, #68]	@ (8001694 <channel_config+0xc4>)
 8001650:	f000 fa4c 	bl	8001aec <HAL_ADC_Init>
 8001654:	4603      	mov	r3, r0
 8001656:	2b00      	cmp	r3, #0
 8001658:	d003      	beq.n	8001662 <channel_config+0x92>
 800165a:	f7ff fedb 	bl	8001414 <Error_Handler>
 800165e:	2301      	movs	r3, #1
 8001660:	e013      	b.n	800168a <channel_config+0xba>
 8001662:	68bb      	ldr	r3, [r7, #8]
 8001664:	613b      	str	r3, [r7, #16]
 8001666:	2301      	movs	r3, #1
 8001668:	617b      	str	r3, [r7, #20]
 800166a:	687b      	ldr	r3, [r7, #4]
 800166c:	61bb      	str	r3, [r7, #24]
 800166e:	f107 0310 	add.w	r3, r7, #16
 8001672:	4619      	mov	r1, r3
 8001674:	68f8      	ldr	r0, [r7, #12]
 8001676:	f000 fbfd 	bl	8001e74 <HAL_ADC_ConfigChannel>
 800167a:	4603      	mov	r3, r0
 800167c:	2b00      	cmp	r3, #0
 800167e:	d003      	beq.n	8001688 <channel_config+0xb8>
 8001680:	f7ff fec8 	bl	8001414 <Error_Handler>
 8001684:	2301      	movs	r3, #1
 8001686:	e000      	b.n	800168a <channel_config+0xba>
 8001688:	2300      	movs	r3, #0
 800168a:	4618      	mov	r0, r3
 800168c:	3720      	adds	r7, #32
 800168e:	46bd      	mov	sp, r7
 8001690:	bd80      	pop	{r7, pc}
 8001692:	bf00      	nop
 8001694:	200001f0 	.word	0x200001f0
 8001698:	40012000 	.word	0x40012000
 800169c:	0f000001 	.word	0x0f000001

080016a0 <switch_channel_and_read>:
 80016a0:	b580      	push	{r7, lr}
 80016a2:	b084      	sub	sp, #16
 80016a4:	af00      	add	r7, sp, #0
 80016a6:	60f8      	str	r0, [r7, #12]
 80016a8:	60b9      	str	r1, [r7, #8]
 80016aa:	607a      	str	r2, [r7, #4]
 80016ac:	603b      	str	r3, [r7, #0]
 80016ae:	69bb      	ldr	r3, [r7, #24]
 80016b0:	683a      	ldr	r2, [r7, #0]
 80016b2:	6879      	ldr	r1, [r7, #4]
 80016b4:	68b8      	ldr	r0, [r7, #8]
 80016b6:	f7ff ff8b 	bl	80015d0 <channel_config>
 80016ba:	4603      	mov	r3, r0
 80016bc:	2b00      	cmp	r3, #0
 80016be:	d004      	beq.n	80016ca <switch_channel_and_read+0x2a>
 80016c0:	68b8      	ldr	r0, [r7, #8]
 80016c2:	f000 fb0b 	bl	8001cdc <HAL_ADC_Stop>
 80016c6:	2301      	movs	r3, #1
 80016c8:	e01d      	b.n	8001706 <switch_channel_and_read+0x66>
 80016ca:	68b8      	ldr	r0, [r7, #8]
 80016cc:	f000 fa52 	bl	8001b74 <HAL_ADC_Start>
 80016d0:	f04f 31ff 	mov.w	r1, #4294967295
 80016d4:	68b8      	ldr	r0, [r7, #8]
 80016d6:	f000 fb34 	bl	8001d42 <HAL_ADC_PollForConversion>
 80016da:	4603      	mov	r3, r0
 80016dc:	2b00      	cmp	r3, #0
 80016de:	d10e      	bne.n	80016fe <switch_channel_and_read+0x5e>
 80016e0:	68b8      	ldr	r0, [r7, #8]
 80016e2:	f000 fbb9 	bl	8001e58 <HAL_ADC_GetValue>
 80016e6:	4603      	mov	r3, r0
 80016e8:	b29a      	uxth	r2, r3
 80016ea:	68fb      	ldr	r3, [r7, #12]
 80016ec:	801a      	strh	r2, [r3, #0]
 80016ee:	69bb      	ldr	r3, [r7, #24]
 80016f0:	2b00      	cmp	r3, #0
 80016f2:	d002      	beq.n	80016fa <switch_channel_and_read+0x5a>
 80016f4:	68b8      	ldr	r0, [r7, #8]
 80016f6:	f000 faf1 	bl	8001cdc <HAL_ADC_Stop>
 80016fa:	2300      	movs	r3, #0
 80016fc:	e003      	b.n	8001706 <switch_channel_and_read+0x66>
 80016fe:	68b8      	ldr	r0, [r7, #8]
 8001700:	f000 faec 	bl	8001cdc <HAL_ADC_Stop>
 8001704:	2301      	movs	r3, #1
 8001706:	4618      	mov	r0, r3
 8001708:	3710      	adds	r7, #16
 800170a:	46bd      	mov	sp, r7
 800170c:	bd80      	pop	{r7, pc}

0800170e <_getpid>:
 800170e:	b480      	push	{r7}
 8001710:	af00      	add	r7, sp, #0
 8001712:	2301      	movs	r3, #1
 8001714:	4618      	mov	r0, r3
 8001716:	46bd      	mov	sp, r7
 8001718:	f85d 7b04 	ldr.w	r7, [sp], #4
 800171c:	4770      	bx	lr

0800171e <_kill>:
 800171e:	b580      	push	{r7, lr}
 8001720:	b082      	sub	sp, #8
 8001722:	af00      	add	r7, sp, #0
 8001724:	6078      	str	r0, [r7, #4]
 8001726:	6039      	str	r1, [r7, #0]
 8001728:	f003 f9d2 	bl	8004ad0 <__errno>
 800172c:	4603      	mov	r3, r0
 800172e:	2216      	movs	r2, #22
 8001730:	601a      	str	r2, [r3, #0]
 8001732:	f04f 33ff 	mov.w	r3, #4294967295
 8001736:	4618      	mov	r0, r3
 8001738:	3708      	adds	r7, #8
 800173a:	46bd      	mov	sp, r7
 800173c:	bd80      	pop	{r7, pc}

0800173e <_exit>:
 800173e:	b580      	push	{r7, lr}
 8001740:	b082      	sub	sp, #8
 8001742:	af00      	add	r7, sp, #0
 8001744:	6078      	str	r0, [r7, #4]
 8001746:	f04f 31ff 	mov.w	r1, #4294967295
 800174a:	6878      	ldr	r0, [r7, #4]
 800174c:	f7ff ffe7 	bl	800171e <_kill>
 8001750:	bf00      	nop
 8001752:	e7fd      	b.n	8001750 <_exit+0x12>

08001754 <_read>:
 8001754:	b580      	push	{r7, lr}
 8001756:	b086      	sub	sp, #24
 8001758:	af00      	add	r7, sp, #0
 800175a:	60f8      	str	r0, [r7, #12]
 800175c:	60b9      	str	r1, [r7, #8]
 800175e:	607a      	str	r2, [r7, #4]
 8001760:	2300      	movs	r3, #0
 8001762:	617b      	str	r3, [r7, #20]
 8001764:	e00a      	b.n	800177c <_read+0x28>
 8001766:	f3af 8000 	nop.w
 800176a:	4601      	mov	r1, r0
 800176c:	68bb      	ldr	r3, [r7, #8]
 800176e:	1c5a      	adds	r2, r3, #1
 8001770:	60ba      	str	r2, [r7, #8]
 8001772:	b2ca      	uxtb	r2, r1
 8001774:	701a      	strb	r2, [r3, #0]
 8001776:	697b      	ldr	r3, [r7, #20]
 8001778:	3301      	adds	r3, #1
 800177a:	617b      	str	r3, [r7, #20]
 800177c:	697a      	ldr	r2, [r7, #20]
 800177e:	687b      	ldr	r3, [r7, #4]
 8001780:	429a      	cmp	r2, r3
 8001782:	dbf0      	blt.n	8001766 <_read+0x12>
 8001784:	687b      	ldr	r3, [r7, #4]
 8001786:	4618      	mov	r0, r3
 8001788:	3718      	adds	r7, #24
 800178a:	46bd      	mov	sp, r7
 800178c:	bd80      	pop	{r7, pc}

0800178e <_close>:
 800178e:	b480      	push	{r7}
 8001790:	b083      	sub	sp, #12
 8001792:	af00      	add	r7, sp, #0
 8001794:	6078      	str	r0, [r7, #4]
 8001796:	f04f 33ff 	mov.w	r3, #4294967295
 800179a:	4618      	mov	r0, r3
 800179c:	370c      	adds	r7, #12
 800179e:	46bd      	mov	sp, r7
 80017a0:	f85d 7b04 	ldr.w	r7, [sp], #4
 80017a4:	4770      	bx	lr

080017a6 <_fstat>:
 80017a6:	b480      	push	{r7}
 80017a8:	b083      	sub	sp, #12
 80017aa:	af00      	add	r7, sp, #0
 80017ac:	6078      	str	r0, [r7, #4]
 80017ae:	6039      	str	r1, [r7, #0]
 80017b0:	683b      	ldr	r3, [r7, #0]
 80017b2:	f44f 5200 	mov.w	r2, #8192	@ 0x2000
 80017b6:	605a      	str	r2, [r3, #4]
 80017b8:	2300      	movs	r3, #0
 80017ba:	4618      	mov	r0, r3
 80017bc:	370c      	adds	r7, #12
 80017be:	46bd      	mov	sp, r7
 80017c0:	f85d 7b04 	ldr.w	r7, [sp], #4
 80017c4:	4770      	bx	lr

080017c6 <_isatty>:
 80017c6:	b480      	push	{r7}
 80017c8:	b083      	sub	sp, #12
 80017ca:	af00      	add	r7, sp, #0
 80017cc:	6078      	str	r0, [r7, #4]
 80017ce:	2301      	movs	r3, #1
 80017d0:	4618      	mov	r0, r3
 80017d2:	370c      	adds	r7, #12
 80017d4:	46bd      	mov	sp, r7
 80017d6:	f85d 7b04 	ldr.w	r7, [sp], #4
 80017da:	4770      	bx	lr

080017dc <_lseek>:
 80017dc:	b480      	push	{r7}
 80017de:	b085      	sub	sp, #20
 80017e0:	af00      	add	r7, sp, #0
 80017e2:	60f8      	str	r0, [r7, #12]
 80017e4:	60b9      	str	r1, [r7, #8]
 80017e6:	607a      	str	r2, [r7, #4]
 80017e8:	2300      	movs	r3, #0
 80017ea:	4618      	mov	r0, r3
 80017ec:	3714      	adds	r7, #20
 80017ee:	46bd      	mov	sp, r7
 80017f0:	f85d 7b04 	ldr.w	r7, [sp], #4
 80017f4:	4770      	bx	lr
	...

080017f8 <_sbrk>:
 80017f8:	b580      	push	{r7, lr}
 80017fa:	b086      	sub	sp, #24
 80017fc:	af00      	add	r7, sp, #0
 80017fe:	6078      	str	r0, [r7, #4]
 8001800:	4a14      	ldr	r2, [pc, #80]	@ (8001854 <_sbrk+0x5c>)
 8001802:	4b15      	ldr	r3, [pc, #84]	@ (8001858 <_sbrk+0x60>)
 8001804:	1ad3      	subs	r3, r2, r3
 8001806:	617b      	str	r3, [r7, #20]
 8001808:	697b      	ldr	r3, [r7, #20]
 800180a:	613b      	str	r3, [r7, #16]
 800180c:	4b13      	ldr	r3, [pc, #76]	@ (800185c <_sbrk+0x64>)
 800180e:	681b      	ldr	r3, [r3, #0]
 8001810:	2b00      	cmp	r3, #0
 8001812:	d102      	bne.n	800181a <_sbrk+0x22>
 8001814:	4b11      	ldr	r3, [pc, #68]	@ (800185c <_sbrk+0x64>)
 8001816:	4a12      	ldr	r2, [pc, #72]	@ (8001860 <_sbrk+0x68>)
 8001818:	601a      	str	r2, [r3, #0]
 800181a:	4b10      	ldr	r3, [pc, #64]	@ (800185c <_sbrk+0x64>)
 800181c:	681a      	ldr	r2, [r3, #0]
 800181e:	687b      	ldr	r3, [r7, #4]
 8001820:	4413      	add	r3, r2
 8001822:	693a      	ldr	r2, [r7, #16]
 8001824:	429a      	cmp	r2, r3
 8001826:	d207      	bcs.n	8001838 <_sbrk+0x40>
 8001828:	f003 f952 	bl	8004ad0 <__errno>
 800182c:	4603      	mov	r3, r0
 800182e:	220c      	movs	r2, #12
 8001830:	601a      	str	r2, [r3, #0]
 8001832:	f04f 33ff 	mov.w	r3, #4294967295
 8001836:	e009      	b.n	800184c <_sbrk+0x54>
 8001838:	4b08      	ldr	r3, [pc, #32]	@ (800185c <_sbrk+0x64>)
 800183a:	681b      	ldr	r3, [r3, #0]
 800183c:	60fb      	str	r3, [r7, #12]
 800183e:	4b07      	ldr	r3, [pc, #28]	@ (800185c <_sbrk+0x64>)
 8001840:	681a      	ldr	r2, [r3, #0]
 8001842:	687b      	ldr	r3, [r7, #4]
 8001844:	4413      	add	r3, r2
 8001846:	4a05      	ldr	r2, [pc, #20]	@ (800185c <_sbrk+0x64>)
 8001848:	6013      	str	r3, [r2, #0]
 800184a:	68fb      	ldr	r3, [r7, #12]
 800184c:	4618      	mov	r0, r3
 800184e:	3718      	adds	r7, #24
 8001850:	46bd      	mov	sp, r7
 8001852:	bd80      	pop	{r7, pc}
 8001854:	20018000 	.word	0x20018000
 8001858:	00000400 	.word	0x00000400
 800185c:	20000238 	.word	0x20000238
 8001860:	200003d8 	.word	0x200003d8

08001864 <SystemInit>:
 8001864:	b480      	push	{r7}
 8001866:	af00      	add	r7, sp, #0
 8001868:	4b06      	ldr	r3, [pc, #24]	@ (8001884 <SystemInit+0x20>)
 800186a:	f8d3 3088 	ldr.w	r3, [r3, #136]	@ 0x88
 800186e:	4a05      	ldr	r2, [pc, #20]	@ (8001884 <SystemInit+0x20>)
 8001870:	f443 0370 	orr.w	r3, r3, #15728640	@ 0xf00000
 8001874:	f8c2 3088 	str.w	r3, [r2, #136]	@ 0x88
 8001878:	bf00      	nop
 800187a:	46bd      	mov	sp, r7
 800187c:	f85d 7b04 	ldr.w	r7, [sp], #4
 8001880:	4770      	bx	lr
 8001882:	bf00      	nop
 8001884:	e000ed00 	.word	0xe000ed00

08001888 <MX_USART2_UART_Init>:
 8001888:	b580      	push	{r7, lr}
 800188a:	af00      	add	r7, sp, #0
 800188c:	4b11      	ldr	r3, [pc, #68]	@ (80018d4 <MX_USART2_UART_Init+0x4c>)
 800188e:	4a12      	ldr	r2, [pc, #72]	@ (80018d8 <MX_USART2_UART_Init+0x50>)
 8001890:	601a      	str	r2, [r3, #0]
 8001892:	4b10      	ldr	r3, [pc, #64]	@ (80018d4 <MX_USART2_UART_Init+0x4c>)
 8001894:	f44f 32e1 	mov.w	r2, #115200	@ 0x1c200
 8001898:	605a      	str	r2, [r3, #4]
 800189a:	4b0e      	ldr	r3, [pc, #56]	@ (80018d4 <MX_USART2_UART_Init+0x4c>)
 800189c:	2200      	movs	r2, #0
 800189e:	609a      	str	r2, [r3, #8]
 80018a0:	4b0c      	ldr	r3, [pc, #48]	@ (80018d4 <MX_USART2_UART_Init+0x4c>)
 80018a2:	2200      	movs	r2, #0
 80018a4:	60da      	str	r2, [r3, #12]
 80018a6:	4b0b      	ldr	r3, [pc, #44]	@ (80018d4 <MX_USART2_UART_Init+0x4c>)
 80018a8:	2200      	movs	r2, #0
 80018aa:	611a      	str	r2, [r3, #16]
 80018ac:	4b09      	ldr	r3, [pc, #36]	@ (80018d4 <MX_USART2_UART_Init+0x4c>)
 80018ae:	220c      	movs	r2, #12
 80018b0:	615a      	str	r2, [r3, #20]
 80018b2:	4b08      	ldr	r3, [pc, #32]	@ (80018d4 <MX_USART2_UART_Init+0x4c>)
 80018b4:	2200      	movs	r2, #0
 80018b6:	619a      	str	r2, [r3, #24]
 80018b8:	4b06      	ldr	r3, [pc, #24]	@ (80018d4 <MX_USART2_UART_Init+0x4c>)
 80018ba:	2200      	movs	r2, #0
 80018bc:	61da      	str	r2, [r3, #28]
 80018be:	4805      	ldr	r0, [pc, #20]	@ (80018d4 <MX_USART2_UART_Init+0x4c>)
 80018c0:	f001 fc12 	bl	80030e8 <HAL_UART_Init>
 80018c4:	4603      	mov	r3, r0
 80018c6:	2b00      	cmp	r3, #0
 80018c8:	d001      	beq.n	80018ce <MX_USART2_UART_Init+0x46>
 80018ca:	f7ff fda3 	bl	8001414 <Error_Handler>
 80018ce:	bf00      	nop
 80018d0:	bd80      	pop	{r7, pc}
 80018d2:	bf00      	nop
 80018d4:	2000023c 	.word	0x2000023c
 80018d8:	40004400 	.word	0x40004400

080018dc <HAL_UART_MspInit>:
 80018dc:	b580      	push	{r7, lr}
 80018de:	b08a      	sub	sp, #40	@ 0x28
 80018e0:	af00      	add	r7, sp, #0
 80018e2:	6078      	str	r0, [r7, #4]
 80018e4:	f107 0314 	add.w	r3, r7, #20
 80018e8:	2200      	movs	r2, #0
 80018ea:	601a      	str	r2, [r3, #0]
 80018ec:	605a      	str	r2, [r3, #4]
 80018ee:	609a      	str	r2, [r3, #8]
 80018f0:	60da      	str	r2, [r3, #12]
 80018f2:	611a      	str	r2, [r3, #16]
 80018f4:	687b      	ldr	r3, [r7, #4]
 80018f6:	681b      	ldr	r3, [r3, #0]
 80018f8:	4a19      	ldr	r2, [pc, #100]	@ (8001960 <HAL_UART_MspInit+0x84>)
 80018fa:	4293      	cmp	r3, r2
 80018fc:	d12b      	bne.n	8001956 <HAL_UART_MspInit+0x7a>
 80018fe:	2300      	movs	r3, #0
 8001900:	613b      	str	r3, [r7, #16]
 8001902:	4b18      	ldr	r3, [pc, #96]	@ (8001964 <HAL_UART_MspInit+0x88>)
 8001904:	6c1b      	ldr	r3, [r3, #64]	@ 0x40
 8001906:	4a17      	ldr	r2, [pc, #92]	@ (8001964 <HAL_UART_MspInit+0x88>)
 8001908:	f443 3300 	orr.w	r3, r3, #131072	@ 0x20000
 800190c:	6413      	str	r3, [r2, #64]	@ 0x40
 800190e:	4b15      	ldr	r3, [pc, #84]	@ (8001964 <HAL_UART_MspInit+0x88>)
 8001910:	6c1b      	ldr	r3, [r3, #64]	@ 0x40
 8001912:	f403 3300 	and.w	r3, r3, #131072	@ 0x20000
 8001916:	613b      	str	r3, [r7, #16]
 8001918:	693b      	ldr	r3, [r7, #16]
 800191a:	2300      	movs	r3, #0
 800191c:	60fb      	str	r3, [r7, #12]
 800191e:	4b11      	ldr	r3, [pc, #68]	@ (8001964 <HAL_UART_MspInit+0x88>)
 8001920:	6b1b      	ldr	r3, [r3, #48]	@ 0x30
 8001922:	4a10      	ldr	r2, [pc, #64]	@ (8001964 <HAL_UART_MspInit+0x88>)
 8001924:	f043 0301 	orr.w	r3, r3, #1
 8001928:	6313      	str	r3, [r2, #48]	@ 0x30
 800192a:	4b0e      	ldr	r3, [pc, #56]	@ (8001964 <HAL_UART_MspInit+0x88>)
 800192c:	6b1b      	ldr	r3, [r3, #48]	@ 0x30
 800192e:	f003 0301 	and.w	r3, r3, #1
 8001932:	60fb      	str	r3, [r7, #12]
 8001934:	68fb      	ldr	r3, [r7, #12]
 8001936:	230c      	movs	r3, #12
 8001938:	617b      	str	r3, [r7, #20]
 800193a:	2302      	movs	r3, #2
 800193c:	61bb      	str	r3, [r7, #24]
 800193e:	2300      	movs	r3, #0
 8001940:	61fb      	str	r3, [r7, #28]
 8001942:	2303      	movs	r3, #3
 8001944:	623b      	str	r3, [r7, #32]
 8001946:	2307      	movs	r3, #7
 8001948:	627b      	str	r3, [r7, #36]	@ 0x24
 800194a:	f107 0314 	add.w	r3, r7, #20
 800194e:	4619      	mov	r1, r3
 8001950:	4805      	ldr	r0, [pc, #20]	@ (8001968 <HAL_UART_MspInit+0x8c>)
 8001952:	f000 fd93 	bl	800247c <HAL_GPIO_Init>
 8001956:	bf00      	nop
 8001958:	3728      	adds	r7, #40	@ 0x28
 800195a:	46bd      	mov	sp, r7
 800195c:	bd80      	pop	{r7, pc}
 800195e:	bf00      	nop
 8001960:	40004400 	.word	0x40004400
 8001964:	40023800 	.word	0x40023800
 8001968:	40020000 	.word	0x40020000

0800196c <Reset_Handler>:
 800196c:	f8df d034 	ldr.w	sp, [pc, #52]	@ 80019a4 <LoopFillZerobss+0xe>
 8001970:	f7ff ff78 	bl	8001864 <SystemInit>
 8001974:	480c      	ldr	r0, [pc, #48]	@ (80019a8 <LoopFillZerobss+0x12>)
 8001976:	490d      	ldr	r1, [pc, #52]	@ (80019ac <LoopFillZerobss+0x16>)
 8001978:	4a0d      	ldr	r2, [pc, #52]	@ (80019b0 <LoopFillZerobss+0x1a>)
 800197a:	2300      	movs	r3, #0
 800197c:	e002      	b.n	8001984 <LoopCopyDataInit>

0800197e <CopyDataInit>:
 800197e:	58d4      	ldr	r4, [r2, r3]
 8001980:	50c4      	str	r4, [r0, r3]
 8001982:	3304      	adds	r3, #4

08001984 <LoopCopyDataInit>:
 8001984:	18c4      	adds	r4, r0, r3
 8001986:	428c      	cmp	r4, r1
 8001988:	d3f9      	bcc.n	800197e <CopyDataInit>
 800198a:	4a0a      	ldr	r2, [pc, #40]	@ (80019b4 <LoopFillZerobss+0x1e>)
 800198c:	4c0a      	ldr	r4, [pc, #40]	@ (80019b8 <LoopFillZerobss+0x22>)
 800198e:	2300      	movs	r3, #0
 8001990:	e001      	b.n	8001996 <LoopFillZerobss>

08001992 <FillZerobss>:
 8001992:	6013      	str	r3, [r2, #0]
 8001994:	3204      	adds	r2, #4

08001996 <LoopFillZerobss>:
 8001996:	42a2      	cmp	r2, r4
 8001998:	d3fb      	bcc.n	8001992 <FillZerobss>
 800199a:	f003 f89f 	bl	8004adc <__libc_init_array>
 800199e:	f7ff fc47 	bl	8001230 <main>
 80019a2:	4770      	bx	lr
 80019a4:	20018000 	.word	0x20018000
 80019a8:	20000000 	.word	0x20000000
 80019ac:	200001d4 	.word	0x200001d4
 80019b0:	08008978 	.word	0x08008978
 80019b4:	200001d4 	.word	0x200001d4
 80019b8:	200003d4 	.word	0x200003d4

080019bc <ADC_IRQHandler>:
 80019bc:	e7fe      	b.n	80019bc <ADC_IRQHandler>
	...

080019c0 <HAL_Init>:
 80019c0:	b580      	push	{r7, lr}
 80019c2:	af00      	add	r7, sp, #0
 80019c4:	4b0e      	ldr	r3, [pc, #56]	@ (8001a00 <HAL_Init+0x40>)
 80019c6:	681b      	ldr	r3, [r3, #0]
 80019c8:	4a0d      	ldr	r2, [pc, #52]	@ (8001a00 <HAL_Init+0x40>)
 80019ca:	f443 7300 	orr.w	r3, r3, #512	@ 0x200
 80019ce:	6013      	str	r3, [r2, #0]
 80019d0:	4b0b      	ldr	r3, [pc, #44]	@ (8001a00 <HAL_Init+0x40>)
 80019d2:	681b      	ldr	r3, [r3, #0]
 80019d4:	4a0a      	ldr	r2, [pc, #40]	@ (8001a00 <HAL_Init+0x40>)
 80019d6:	f443 6380 	orr.w	r3, r3, #1024	@ 0x400
 80019da:	6013      	str	r3, [r2, #0]
 80019dc:	4b08      	ldr	r3, [pc, #32]	@ (8001a00 <HAL_Init+0x40>)
 80019de:	681b      	ldr	r3, [r3, #0]
 80019e0:	4a07      	ldr	r2, [pc, #28]	@ (8001a00 <HAL_Init+0x40>)
 80019e2:	f443 7380 	orr.w	r3, r3, #256	@ 0x100
 80019e6:	6013      	str	r3, [r2, #0]
 80019e8:	2003      	movs	r0, #3
 80019ea:	f000 fd13 	bl	8002414 <HAL_NVIC_SetPriorityGrouping>
 80019ee:	2000      	movs	r0, #0
 80019f0:	f000 f808 	bl	8001a04 <HAL_InitTick>
 80019f4:	f7ff fd94 	bl	8001520 <HAL_MspInit>
 80019f8:	2300      	movs	r3, #0
 80019fa:	4618      	mov	r0, r3
 80019fc:	bd80      	pop	{r7, pc}
 80019fe:	bf00      	nop
 8001a00:	40023c00 	.word	0x40023c00

08001a04 <HAL_InitTick>:
 8001a04:	b580      	push	{r7, lr}
 8001a06:	b082      	sub	sp, #8
 8001a08:	af00      	add	r7, sp, #0
 8001a0a:	6078      	str	r0, [r7, #4]
 8001a0c:	4b12      	ldr	r3, [pc, #72]	@ (8001a58 <HAL_InitTick+0x54>)
 8001a0e:	681a      	ldr	r2, [r3, #0]
 8001a10:	4b12      	ldr	r3, [pc, #72]	@ (8001a5c <HAL_InitTick+0x58>)
 8001a12:	781b      	ldrb	r3, [r3, #0]
 8001a14:	4619      	mov	r1, r3
 8001a16:	f44f 737a 	mov.w	r3, #1000	@ 0x3e8
 8001a1a:	fbb3 f3f1 	udiv	r3, r3, r1
 8001a1e:	fbb2 f3f3 	udiv	r3, r2, r3
 8001a22:	4618      	mov	r0, r3
 8001a24:	f000 fd1d 	bl	8002462 <HAL_SYSTICK_Config>
 8001a28:	4603      	mov	r3, r0
 8001a2a:	2b00      	cmp	r3, #0
 8001a2c:	d001      	beq.n	8001a32 <HAL_InitTick+0x2e>
 8001a2e:	2301      	movs	r3, #1
 8001a30:	e00e      	b.n	8001a50 <HAL_InitTick+0x4c>
 8001a32:	687b      	ldr	r3, [r7, #4]
 8001a34:	2b0f      	cmp	r3, #15
 8001a36:	d80a      	bhi.n	8001a4e <HAL_InitTick+0x4a>
 8001a38:	2200      	movs	r2, #0
 8001a3a:	6879      	ldr	r1, [r7, #4]
 8001a3c:	f04f 30ff 	mov.w	r0, #4294967295
 8001a40:	f000 fcf3 	bl	800242a <HAL_NVIC_SetPriority>
 8001a44:	4a06      	ldr	r2, [pc, #24]	@ (8001a60 <HAL_InitTick+0x5c>)
 8001a46:	687b      	ldr	r3, [r7, #4]
 8001a48:	6013      	str	r3, [r2, #0]
 8001a4a:	2300      	movs	r3, #0
 8001a4c:	e000      	b.n	8001a50 <HAL_InitTick+0x4c>
 8001a4e:	2301      	movs	r3, #1
 8001a50:	4618      	mov	r0, r3
 8001a52:	3708      	adds	r7, #8
 8001a54:	46bd      	mov	sp, r7
 8001a56:	bd80      	pop	{r7, pc}
 8001a58:	20000000 	.word	0x20000000
 8001a5c:	20000008 	.word	0x20000008
 8001a60:	20000004 	.word	0x20000004

08001a64 <HAL_IncTick>:
 8001a64:	b480      	push	{r7}
 8001a66:	af00      	add	r7, sp, #0
 8001a68:	4b06      	ldr	r3, [pc, #24]	@ (8001a84 <HAL_IncTick+0x20>)
 8001a6a:	781b      	ldrb	r3, [r3, #0]
 8001a6c:	461a      	mov	r2, r3
 8001a6e:	4b06      	ldr	r3, [pc, #24]	@ (8001a88 <HAL_IncTick+0x24>)
 8001a70:	681b      	ldr	r3, [r3, #0]
 8001a72:	4413      	add	r3, r2
 8001a74:	4a04      	ldr	r2, [pc, #16]	@ (8001a88 <HAL_IncTick+0x24>)
 8001a76:	6013      	str	r3, [r2, #0]
 8001a78:	bf00      	nop
 8001a7a:	46bd      	mov	sp, r7
 8001a7c:	f85d 7b04 	ldr.w	r7, [sp], #4
 8001a80:	4770      	bx	lr
 8001a82:	bf00      	nop
 8001a84:	20000008 	.word	0x20000008
 8001a88:	20000284 	.word	0x20000284

08001a8c <HAL_GetTick>:
 8001a8c:	b480      	push	{r7}
 8001a8e:	af00      	add	r7, sp, #0
 8001a90:	4b03      	ldr	r3, [pc, #12]	@ (8001aa0 <HAL_GetTick+0x14>)
 8001a92:	681b      	ldr	r3, [r3, #0]
 8001a94:	4618      	mov	r0, r3
 8001a96:	46bd      	mov	sp, r7
 8001a98:	f85d 7b04 	ldr.w	r7, [sp], #4
 8001a9c:	4770      	bx	lr
 8001a9e:	bf00      	nop
 8001aa0:	20000284 	.word	0x20000284

08001aa4 <HAL_Delay>:
 8001aa4:	b580      	push	{r7, lr}
 8001aa6:	b084      	sub	sp, #16
 8001aa8:	af00      	add	r7, sp, #0
 8001aaa:	6078      	str	r0, [r7, #4]
 8001aac:	f7ff ffee 	bl	8001a8c <HAL_GetTick>
 8001ab0:	60b8      	str	r0, [r7, #8]
 8001ab2:	687b      	ldr	r3, [r7, #4]
 8001ab4:	60fb      	str	r3, [r7, #12]
 8001ab6:	68fb      	ldr	r3, [r7, #12]
 8001ab8:	f1b3 3fff 	cmp.w	r3, #4294967295
 8001abc:	d005      	beq.n	8001aca <HAL_Delay+0x26>
 8001abe:	4b0a      	ldr	r3, [pc, #40]	@ (8001ae8 <HAL_Delay+0x44>)
 8001ac0:	781b      	ldrb	r3, [r3, #0]
 8001ac2:	461a      	mov	r2, r3
 8001ac4:	68fb      	ldr	r3, [r7, #12]
 8001ac6:	4413      	add	r3, r2
 8001ac8:	60fb      	str	r3, [r7, #12]
 8001aca:	bf00      	nop
 8001acc:	f7ff ffde 	bl	8001a8c <HAL_GetTick>
 8001ad0:	4602      	mov	r2, r0
 8001ad2:	68bb      	ldr	r3, [r7, #8]
 8001ad4:	1ad3      	subs	r3, r2, r3
 8001ad6:	68fa      	ldr	r2, [r7, #12]
 8001ad8:	429a      	cmp	r2, r3
 8001ada:	d8f7      	bhi.n	8001acc <HAL_Delay+0x28>
 8001adc:	bf00      	nop
 8001ade:	bf00      	nop
 8001ae0:	3710      	adds	r7, #16
 8001ae2:	46bd      	mov	sp, r7
 8001ae4:	bd80      	pop	{r7, pc}
 8001ae6:	bf00      	nop
 8001ae8:	20000008 	.word	0x20000008

08001aec <HAL_ADC_Init>:
 8001aec:	b580      	push	{r7, lr}
 8001aee:	b084      	sub	sp, #16
 8001af0:	af00      	add	r7, sp, #0
 8001af2:	6078      	str	r0, [r7, #4]
 8001af4:	2300      	movs	r3, #0
 8001af6:	73fb      	strb	r3, [r7, #15]
 8001af8:	687b      	ldr	r3, [r7, #4]
 8001afa:	2b00      	cmp	r3, #0
 8001afc:	d101      	bne.n	8001b02 <HAL_ADC_Init+0x16>
 8001afe:	2301      	movs	r3, #1
 8001b00:	e033      	b.n	8001b6a <HAL_ADC_Init+0x7e>
 8001b02:	687b      	ldr	r3, [r7, #4]
 8001b04:	6c1b      	ldr	r3, [r3, #64]	@ 0x40
 8001b06:	2b00      	cmp	r3, #0
 8001b08:	d109      	bne.n	8001b1e <HAL_ADC_Init+0x32>
 8001b0a:	6878      	ldr	r0, [r7, #4]
 8001b0c:	f7ff fac4 	bl	8001098 <HAL_ADC_MspInit>
 8001b10:	687b      	ldr	r3, [r7, #4]
 8001b12:	2200      	movs	r2, #0
 8001b14:	645a      	str	r2, [r3, #68]	@ 0x44
 8001b16:	687b      	ldr	r3, [r7, #4]
 8001b18:	2200      	movs	r2, #0
 8001b1a:	f883 203c 	strb.w	r2, [r3, #60]	@ 0x3c
 8001b1e:	687b      	ldr	r3, [r7, #4]
 8001b20:	6c1b      	ldr	r3, [r3, #64]	@ 0x40
 8001b22:	f003 0310 	and.w	r3, r3, #16
 8001b26:	2b00      	cmp	r3, #0
 8001b28:	d118      	bne.n	8001b5c <HAL_ADC_Init+0x70>
 8001b2a:	687b      	ldr	r3, [r7, #4]
 8001b2c:	6c1b      	ldr	r3, [r3, #64]	@ 0x40
 8001b2e:	f423 5388 	bic.w	r3, r3, #4352	@ 0x1100
 8001b32:	f023 0302 	bic.w	r3, r3, #2
 8001b36:	f043 0202 	orr.w	r2, r3, #2
 8001b3a:	687b      	ldr	r3, [r7, #4]
 8001b3c:	641a      	str	r2, [r3, #64]	@ 0x40
 8001b3e:	6878      	ldr	r0, [r7, #4]
 8001b40:	f000 faba 	bl	80020b8 <ADC_Init>
 8001b44:	687b      	ldr	r3, [r7, #4]
 8001b46:	2200      	movs	r2, #0
 8001b48:	645a      	str	r2, [r3, #68]	@ 0x44
 8001b4a:	687b      	ldr	r3, [r7, #4]
 8001b4c:	6c1b      	ldr	r3, [r3, #64]	@ 0x40
 8001b4e:	f023 0303 	bic.w	r3, r3, #3
 8001b52:	f043 0201 	orr.w	r2, r3, #1
 8001b56:	687b      	ldr	r3, [r7, #4]
 8001b58:	641a      	str	r2, [r3, #64]	@ 0x40
 8001b5a:	e001      	b.n	8001b60 <HAL_ADC_Init+0x74>
 8001b5c:	2301      	movs	r3, #1
 8001b5e:	73fb      	strb	r3, [r7, #15]
 8001b60:	687b      	ldr	r3, [r7, #4]
 8001b62:	2200      	movs	r2, #0
 8001b64:	f883 203c 	strb.w	r2, [r3, #60]	@ 0x3c
 8001b68:	7bfb      	ldrb	r3, [r7, #15]
 8001b6a:	4618      	mov	r0, r3
 8001b6c:	3710      	adds	r7, #16
 8001b6e:	46bd      	mov	sp, r7
 8001b70:	bd80      	pop	{r7, pc}
	...

08001b74 <HAL_ADC_Start>:
 8001b74:	b480      	push	{r7}
 8001b76:	b085      	sub	sp, #20
 8001b78:	af00      	add	r7, sp, #0
 8001b7a:	6078      	str	r0, [r7, #4]
 8001b7c:	2300      	movs	r3, #0
 8001b7e:	60bb      	str	r3, [r7, #8]
 8001b80:	687b      	ldr	r3, [r7, #4]
 8001b82:	f893 303c 	ldrb.w	r3, [r3, #60]	@ 0x3c
 8001b86:	2b01      	cmp	r3, #1
 8001b88:	d101      	bne.n	8001b8e <HAL_ADC_Start+0x1a>
 8001b8a:	2302      	movs	r3, #2
 8001b8c:	e097      	b.n	8001cbe <HAL_ADC_Start+0x14a>
 8001b8e:	687b      	ldr	r3, [r7, #4]
 8001b90:	2201      	movs	r2, #1
 8001b92:	f883 203c 	strb.w	r2, [r3, #60]	@ 0x3c
 8001b96:	687b      	ldr	r3, [r7, #4]
 8001b98:	681b      	ldr	r3, [r3, #0]
 8001b9a:	689b      	ldr	r3, [r3, #8]
 8001b9c:	f003 0301 	and.w	r3, r3, #1
 8001ba0:	2b01      	cmp	r3, #1
 8001ba2:	d018      	beq.n	8001bd6 <HAL_ADC_Start+0x62>
 8001ba4:	687b      	ldr	r3, [r7, #4]
 8001ba6:	681b      	ldr	r3, [r3, #0]
 8001ba8:	689a      	ldr	r2, [r3, #8]
 8001baa:	687b      	ldr	r3, [r7, #4]
 8001bac:	681b      	ldr	r3, [r3, #0]
 8001bae:	f042 0201 	orr.w	r2, r2, #1
 8001bb2:	609a      	str	r2, [r3, #8]
 8001bb4:	4b45      	ldr	r3, [pc, #276]	@ (8001ccc <HAL_ADC_Start+0x158>)
 8001bb6:	681b      	ldr	r3, [r3, #0]
 8001bb8:	4a45      	ldr	r2, [pc, #276]	@ (8001cd0 <HAL_ADC_Start+0x15c>)
 8001bba:	fba2 2303 	umull	r2, r3, r2, r3
 8001bbe:	0c9a      	lsrs	r2, r3, #18
 8001bc0:	4613      	mov	r3, r2
 8001bc2:	005b      	lsls	r3, r3, #1
 8001bc4:	4413      	add	r3, r2
 8001bc6:	60bb      	str	r3, [r7, #8]
 8001bc8:	e002      	b.n	8001bd0 <HAL_ADC_Start+0x5c>
 8001bca:	68bb      	ldr	r3, [r7, #8]
 8001bcc:	3b01      	subs	r3, #1
 8001bce:	60bb      	str	r3, [r7, #8]
 8001bd0:	68bb      	ldr	r3, [r7, #8]
 8001bd2:	2b00      	cmp	r3, #0
 8001bd4:	d1f9      	bne.n	8001bca <HAL_ADC_Start+0x56>
 8001bd6:	687b      	ldr	r3, [r7, #4]
 8001bd8:	681b      	ldr	r3, [r3, #0]
 8001bda:	689b      	ldr	r3, [r3, #8]
 8001bdc:	f003 0301 	and.w	r3, r3, #1
 8001be0:	2b01      	cmp	r3, #1
 8001be2:	d15f      	bne.n	8001ca4 <HAL_ADC_Start+0x130>
 8001be4:	687b      	ldr	r3, [r7, #4]
 8001be6:	6c1b      	ldr	r3, [r3, #64]	@ 0x40
 8001be8:	f423 63e0 	bic.w	r3, r3, #1792	@ 0x700
 8001bec:	f023 0301 	bic.w	r3, r3, #1
 8001bf0:	f443 7280 	orr.w	r2, r3, #256	@ 0x100
 8001bf4:	687b      	ldr	r3, [r7, #4]
 8001bf6:	641a      	str	r2, [r3, #64]	@ 0x40
 8001bf8:	687b      	ldr	r3, [r7, #4]
 8001bfa:	681b      	ldr	r3, [r3, #0]
 8001bfc:	685b      	ldr	r3, [r3, #4]
 8001bfe:	f403 6380 	and.w	r3, r3, #1024	@ 0x400
 8001c02:	2b00      	cmp	r3, #0
 8001c04:	d007      	beq.n	8001c16 <HAL_ADC_Start+0xa2>
 8001c06:	687b      	ldr	r3, [r7, #4]
 8001c08:	6c1b      	ldr	r3, [r3, #64]	@ 0x40
 8001c0a:	f423 5340 	bic.w	r3, r3, #12288	@ 0x3000
 8001c0e:	f443 5280 	orr.w	r2, r3, #4096	@ 0x1000
 8001c12:	687b      	ldr	r3, [r7, #4]
 8001c14:	641a      	str	r2, [r3, #64]	@ 0x40
 8001c16:	687b      	ldr	r3, [r7, #4]
 8001c18:	6c1b      	ldr	r3, [r3, #64]	@ 0x40
 8001c1a:	f403 5380 	and.w	r3, r3, #4096	@ 0x1000
 8001c1e:	f5b3 5f80 	cmp.w	r3, #4096	@ 0x1000
 8001c22:	d106      	bne.n	8001c32 <HAL_ADC_Start+0xbe>
 8001c24:	687b      	ldr	r3, [r7, #4]
 8001c26:	6c5b      	ldr	r3, [r3, #68]	@ 0x44
 8001c28:	f023 0206 	bic.w	r2, r3, #6
 8001c2c:	687b      	ldr	r3, [r7, #4]
 8001c2e:	645a      	str	r2, [r3, #68]	@ 0x44
 8001c30:	e002      	b.n	8001c38 <HAL_ADC_Start+0xc4>
 8001c32:	687b      	ldr	r3, [r7, #4]
 8001c34:	2200      	movs	r2, #0
 8001c36:	645a      	str	r2, [r3, #68]	@ 0x44
 8001c38:	687b      	ldr	r3, [r7, #4]
 8001c3a:	2200      	movs	r2, #0
 8001c3c:	f883 203c 	strb.w	r2, [r3, #60]	@ 0x3c
 8001c40:	4b24      	ldr	r3, [pc, #144]	@ (8001cd4 <HAL_ADC_Start+0x160>)
 8001c42:	60fb      	str	r3, [r7, #12]
 8001c44:	687b      	ldr	r3, [r7, #4]
 8001c46:	681b      	ldr	r3, [r3, #0]
 8001c48:	f06f 0222 	mvn.w	r2, #34	@ 0x22
 8001c4c:	601a      	str	r2, [r3, #0]
 8001c4e:	68fb      	ldr	r3, [r7, #12]
 8001c50:	685b      	ldr	r3, [r3, #4]
 8001c52:	f003 031f 	and.w	r3, r3, #31
 8001c56:	2b00      	cmp	r3, #0
 8001c58:	d10f      	bne.n	8001c7a <HAL_ADC_Start+0x106>
 8001c5a:	687b      	ldr	r3, [r7, #4]
 8001c5c:	681b      	ldr	r3, [r3, #0]
 8001c5e:	689b      	ldr	r3, [r3, #8]
 8001c60:	f003 5340 	and.w	r3, r3, #805306368	@ 0x30000000
 8001c64:	2b00      	cmp	r3, #0
 8001c66:	d129      	bne.n	8001cbc <HAL_ADC_Start+0x148>
 8001c68:	687b      	ldr	r3, [r7, #4]
 8001c6a:	681b      	ldr	r3, [r3, #0]
 8001c6c:	689a      	ldr	r2, [r3, #8]
 8001c6e:	687b      	ldr	r3, [r7, #4]
 8001c70:	681b      	ldr	r3, [r3, #0]
 8001c72:	f042 4280 	orr.w	r2, r2, #1073741824	@ 0x40000000
 8001c76:	609a      	str	r2, [r3, #8]
 8001c78:	e020      	b.n	8001cbc <HAL_ADC_Start+0x148>
 8001c7a:	687b      	ldr	r3, [r7, #4]
 8001c7c:	681b      	ldr	r3, [r3, #0]
 8001c7e:	4a16      	ldr	r2, [pc, #88]	@ (8001cd8 <HAL_ADC_Start+0x164>)
 8001c80:	4293      	cmp	r3, r2
 8001c82:	d11b      	bne.n	8001cbc <HAL_ADC_Start+0x148>
 8001c84:	687b      	ldr	r3, [r7, #4]
 8001c86:	681b      	ldr	r3, [r3, #0]
 8001c88:	689b      	ldr	r3, [r3, #8]
 8001c8a:	f003 5340 	and.w	r3, r3, #805306368	@ 0x30000000
 8001c8e:	2b00      	cmp	r3, #0
 8001c90:	d114      	bne.n	8001cbc <HAL_ADC_Start+0x148>
 8001c92:	687b      	ldr	r3, [r7, #4]
 8001c94:	681b      	ldr	r3, [r3, #0]
 8001c96:	689a      	ldr	r2, [r3, #8]
 8001c98:	687b      	ldr	r3, [r7, #4]
 8001c9a:	681b      	ldr	r3, [r3, #0]
 8001c9c:	f042 4280 	orr.w	r2, r2, #1073741824	@ 0x40000000
 8001ca0:	609a      	str	r2, [r3, #8]
 8001ca2:	e00b      	b.n	8001cbc <HAL_ADC_Start+0x148>
 8001ca4:	687b      	ldr	r3, [r7, #4]
 8001ca6:	6c1b      	ldr	r3, [r3, #64]	@ 0x40
 8001ca8:	f043 0210 	orr.w	r2, r3, #16
 8001cac:	687b      	ldr	r3, [r7, #4]
 8001cae:	641a      	str	r2, [r3, #64]	@ 0x40
 8001cb0:	687b      	ldr	r3, [r7, #4]
 8001cb2:	6c5b      	ldr	r3, [r3, #68]	@ 0x44
 8001cb4:	f043 0201 	orr.w	r2, r3, #1
 8001cb8:	687b      	ldr	r3, [r7, #4]
 8001cba:	645a      	str	r2, [r3, #68]	@ 0x44
 8001cbc:	2300      	movs	r3, #0
 8001cbe:	4618      	mov	r0, r3
 8001cc0:	3714      	adds	r7, #20
 8001cc2:	46bd      	mov	sp, r7
 8001cc4:	f85d 7b04 	ldr.w	r7, [sp], #4
 8001cc8:	4770      	bx	lr
 8001cca:	bf00      	nop
 8001ccc:	20000000 	.word	0x20000000
 8001cd0:	431bde83 	.word	0x431bde83
 8001cd4:	40012300 	.word	0x40012300
 8001cd8:	40012000 	.word	0x40012000

08001cdc <HAL_ADC_Stop>:
 8001cdc:	b480      	push	{r7}
 8001cde:	b083      	sub	sp, #12
 8001ce0:	af00      	add	r7, sp, #0
 8001ce2:	6078      	str	r0, [r7, #4]
 8001ce4:	687b      	ldr	r3, [r7, #4]
 8001ce6:	f893 303c 	ldrb.w	r3, [r3, #60]	@ 0x3c
 8001cea:	2b01      	cmp	r3, #1
 8001cec:	d101      	bne.n	8001cf2 <HAL_ADC_Stop+0x16>
 8001cee:	2302      	movs	r3, #2
 8001cf0:	e021      	b.n	8001d36 <HAL_ADC_Stop+0x5a>
 8001cf2:	687b      	ldr	r3, [r7, #4]
 8001cf4:	2201      	movs	r2, #1
 8001cf6:	f883 203c 	strb.w	r2, [r3, #60]	@ 0x3c
 8001cfa:	687b      	ldr	r3, [r7, #4]
 8001cfc:	681b      	ldr	r3, [r3, #0]
 8001cfe:	689a      	ldr	r2, [r3, #8]
 8001d00:	687b      	ldr	r3, [r7, #4]
 8001d02:	681b      	ldr	r3, [r3, #0]
 8001d04:	f022 0201 	bic.w	r2, r2, #1
 8001d08:	609a      	str	r2, [r3, #8]
 8001d0a:	687b      	ldr	r3, [r7, #4]
 8001d0c:	681b      	ldr	r3, [r3, #0]
 8001d0e:	689b      	ldr	r3, [r3, #8]
 8001d10:	f003 0301 	and.w	r3, r3, #1
 8001d14:	2b00      	cmp	r3, #0
 8001d16:	d109      	bne.n	8001d2c <HAL_ADC_Stop+0x50>
 8001d18:	687b      	ldr	r3, [r7, #4]
 8001d1a:	6c1b      	ldr	r3, [r3, #64]	@ 0x40
 8001d1c:	f423 5388 	bic.w	r3, r3, #4352	@ 0x1100
 8001d20:	f023 0301 	bic.w	r3, r3, #1
 8001d24:	f043 0201 	orr.w	r2, r3, #1
 8001d28:	687b      	ldr	r3, [r7, #4]
 8001d2a:	641a      	str	r2, [r3, #64]	@ 0x40
 8001d2c:	687b      	ldr	r3, [r7, #4]
 8001d2e:	2200      	movs	r2, #0
 8001d30:	f883 203c 	strb.w	r2, [r3, #60]	@ 0x3c
 8001d34:	2300      	movs	r3, #0
 8001d36:	4618      	mov	r0, r3
 8001d38:	370c      	adds	r7, #12
 8001d3a:	46bd      	mov	sp, r7
 8001d3c:	f85d 7b04 	ldr.w	r7, [sp], #4
 8001d40:	4770      	bx	lr

08001d42 <HAL_ADC_PollForConversion>:
 8001d42:	b580      	push	{r7, lr}
 8001d44:	b084      	sub	sp, #16
 8001d46:	af00      	add	r7, sp, #0
 8001d48:	6078      	str	r0, [r7, #4]
 8001d4a:	6039      	str	r1, [r7, #0]
 8001d4c:	2300      	movs	r3, #0
 8001d4e:	60fb      	str	r3, [r7, #12]
 8001d50:	687b      	ldr	r3, [r7, #4]
 8001d52:	681b      	ldr	r3, [r3, #0]
 8001d54:	689b      	ldr	r3, [r3, #8]
 8001d56:	f403 6380 	and.w	r3, r3, #1024	@ 0x400
 8001d5a:	f5b3 6f80 	cmp.w	r3, #1024	@ 0x400
 8001d5e:	d113      	bne.n	8001d88 <HAL_ADC_PollForConversion+0x46>
 8001d60:	687b      	ldr	r3, [r7, #4]
 8001d62:	681b      	ldr	r3, [r3, #0]
 8001d64:	689b      	ldr	r3, [r3, #8]
 8001d66:	f403 7380 	and.w	r3, r3, #256	@ 0x100
 8001d6a:	f5b3 7f80 	cmp.w	r3, #256	@ 0x100
 8001d6e:	d10b      	bne.n	8001d88 <HAL_ADC_PollForConversion+0x46>
 8001d70:	687b      	ldr	r3, [r7, #4]
 8001d72:	6c1b      	ldr	r3, [r3, #64]	@ 0x40
 8001d74:	f043 0220 	orr.w	r2, r3, #32
 8001d78:	687b      	ldr	r3, [r7, #4]
 8001d7a:	641a      	str	r2, [r3, #64]	@ 0x40
 8001d7c:	687b      	ldr	r3, [r7, #4]
 8001d7e:	2200      	movs	r2, #0
 8001d80:	f883 203c 	strb.w	r2, [r3, #60]	@ 0x3c
 8001d84:	2301      	movs	r3, #1
 8001d86:	e063      	b.n	8001e50 <HAL_ADC_PollForConversion+0x10e>
 8001d88:	f7ff fe80 	bl	8001a8c <HAL_GetTick>
 8001d8c:	60f8      	str	r0, [r7, #12]
 8001d8e:	e021      	b.n	8001dd4 <HAL_ADC_PollForConversion+0x92>
 8001d90:	683b      	ldr	r3, [r7, #0]
 8001d92:	f1b3 3fff 	cmp.w	r3, #4294967295
 8001d96:	d01d      	beq.n	8001dd4 <HAL_ADC_PollForConversion+0x92>
 8001d98:	683b      	ldr	r3, [r7, #0]
 8001d9a:	2b00      	cmp	r3, #0
 8001d9c:	d007      	beq.n	8001dae <HAL_ADC_PollForConversion+0x6c>
 8001d9e:	f7ff fe75 	bl	8001a8c <HAL_GetTick>
 8001da2:	4602      	mov	r2, r0
 8001da4:	68fb      	ldr	r3, [r7, #12]
 8001da6:	1ad3      	subs	r3, r2, r3
 8001da8:	683a      	ldr	r2, [r7, #0]
 8001daa:	429a      	cmp	r2, r3
 8001dac:	d212      	bcs.n	8001dd4 <HAL_ADC_PollForConversion+0x92>
 8001dae:	687b      	ldr	r3, [r7, #4]
 8001db0:	681b      	ldr	r3, [r3, #0]
 8001db2:	681b      	ldr	r3, [r3, #0]
 8001db4:	f003 0302 	and.w	r3, r3, #2
 8001db8:	2b02      	cmp	r3, #2
 8001dba:	d00b      	beq.n	8001dd4 <HAL_ADC_PollForConversion+0x92>
 8001dbc:	687b      	ldr	r3, [r7, #4]
 8001dbe:	6c1b      	ldr	r3, [r3, #64]	@ 0x40
 8001dc0:	f043 0204 	orr.w	r2, r3, #4
 8001dc4:	687b      	ldr	r3, [r7, #4]
 8001dc6:	641a      	str	r2, [r3, #64]	@ 0x40
 8001dc8:	687b      	ldr	r3, [r7, #4]
 8001dca:	2200      	movs	r2, #0
 8001dcc:	f883 203c 	strb.w	r2, [r3, #60]	@ 0x3c
 8001dd0:	2303      	movs	r3, #3
 8001dd2:	e03d      	b.n	8001e50 <HAL_ADC_PollForConversion+0x10e>
 8001dd4:	687b      	ldr	r3, [r7, #4]
 8001dd6:	681b      	ldr	r3, [r3, #0]
 8001dd8:	681b      	ldr	r3, [r3, #0]
 8001dda:	f003 0302 	and.w	r3, r3, #2
 8001dde:	2b02      	cmp	r3, #2
 8001de0:	d1d6      	bne.n	8001d90 <HAL_ADC_PollForConversion+0x4e>
 8001de2:	687b      	ldr	r3, [r7, #4]
 8001de4:	681b      	ldr	r3, [r3, #0]
 8001de6:	f06f 0212 	mvn.w	r2, #18
 8001dea:	601a      	str	r2, [r3, #0]
 8001dec:	687b      	ldr	r3, [r7, #4]
 8001dee:	6c1b      	ldr	r3, [r3, #64]	@ 0x40
 8001df0:	f443 7200 	orr.w	r2, r3, #512	@ 0x200
 8001df4:	687b      	ldr	r3, [r7, #4]
 8001df6:	641a      	str	r2, [r3, #64]	@ 0x40
 8001df8:	687b      	ldr	r3, [r7, #4]
 8001dfa:	681b      	ldr	r3, [r3, #0]
 8001dfc:	689b      	ldr	r3, [r3, #8]
 8001dfe:	f003 5340 	and.w	r3, r3, #805306368	@ 0x30000000
 8001e02:	2b00      	cmp	r3, #0
 8001e04:	d123      	bne.n	8001e4e <HAL_ADC_PollForConversion+0x10c>
 8001e06:	687b      	ldr	r3, [r7, #4]
 8001e08:	7e1b      	ldrb	r3, [r3, #24]
 8001e0a:	2b00      	cmp	r3, #0
 8001e0c:	d11f      	bne.n	8001e4e <HAL_ADC_PollForConversion+0x10c>
 8001e0e:	687b      	ldr	r3, [r7, #4]
 8001e10:	681b      	ldr	r3, [r3, #0]
 8001e12:	6adb      	ldr	r3, [r3, #44]	@ 0x2c
 8001e14:	f403 0370 	and.w	r3, r3, #15728640	@ 0xf00000
 8001e18:	2b00      	cmp	r3, #0
 8001e1a:	d006      	beq.n	8001e2a <HAL_ADC_PollForConversion+0xe8>
 8001e1c:	687b      	ldr	r3, [r7, #4]
 8001e1e:	681b      	ldr	r3, [r3, #0]
 8001e20:	689b      	ldr	r3, [r3, #8]
 8001e22:	f403 6380 	and.w	r3, r3, #1024	@ 0x400
 8001e26:	2b00      	cmp	r3, #0
 8001e28:	d111      	bne.n	8001e4e <HAL_ADC_PollForConversion+0x10c>
 8001e2a:	687b      	ldr	r3, [r7, #4]
 8001e2c:	6c1b      	ldr	r3, [r3, #64]	@ 0x40
 8001e2e:	f423 7280 	bic.w	r2, r3, #256	@ 0x100
 8001e32:	687b      	ldr	r3, [r7, #4]
 8001e34:	641a      	str	r2, [r3, #64]	@ 0x40
 8001e36:	687b      	ldr	r3, [r7, #4]
 8001e38:	6c1b      	ldr	r3, [r3, #64]	@ 0x40
 8001e3a:	f403 5380 	and.w	r3, r3, #4096	@ 0x1000
 8001e3e:	2b00      	cmp	r3, #0
 8001e40:	d105      	bne.n	8001e4e <HAL_ADC_PollForConversion+0x10c>
 8001e42:	687b      	ldr	r3, [r7, #4]
 8001e44:	6c1b      	ldr	r3, [r3, #64]	@ 0x40
 8001e46:	f043 0201 	orr.w	r2, r3, #1
 8001e4a:	687b      	ldr	r3, [r7, #4]
 8001e4c:	641a      	str	r2, [r3, #64]	@ 0x40
 8001e4e:	2300      	movs	r3, #0
 8001e50:	4618      	mov	r0, r3
 8001e52:	3710      	adds	r7, #16
 8001e54:	46bd      	mov	sp, r7
 8001e56:	bd80      	pop	{r7, pc}

08001e58 <HAL_ADC_GetValue>:
 8001e58:	b480      	push	{r7}
 8001e5a:	b083      	sub	sp, #12
 8001e5c:	af00      	add	r7, sp, #0
 8001e5e:	6078      	str	r0, [r7, #4]
 8001e60:	687b      	ldr	r3, [r7, #4]
 8001e62:	681b      	ldr	r3, [r3, #0]
 8001e64:	6cdb      	ldr	r3, [r3, #76]	@ 0x4c
 8001e66:	4618      	mov	r0, r3
 8001e68:	370c      	adds	r7, #12
 8001e6a:	46bd      	mov	sp, r7
 8001e6c:	f85d 7b04 	ldr.w	r7, [sp], #4
 8001e70:	4770      	bx	lr
	...

08001e74 <HAL_ADC_ConfigChannel>:
 8001e74:	b480      	push	{r7}
 8001e76:	b085      	sub	sp, #20
 8001e78:	af00      	add	r7, sp, #0
 8001e7a:	6078      	str	r0, [r7, #4]
 8001e7c:	6039      	str	r1, [r7, #0]
 8001e7e:	2300      	movs	r3, #0
 8001e80:	60bb      	str	r3, [r7, #8]
 8001e82:	687b      	ldr	r3, [r7, #4]
 8001e84:	f893 303c 	ldrb.w	r3, [r3, #60]	@ 0x3c
 8001e88:	2b01      	cmp	r3, #1
 8001e8a:	d101      	bne.n	8001e90 <HAL_ADC_ConfigChannel+0x1c>
 8001e8c:	2302      	movs	r3, #2
 8001e8e:	e105      	b.n	800209c <HAL_ADC_ConfigChannel+0x228>
 8001e90:	687b      	ldr	r3, [r7, #4]
 8001e92:	2201      	movs	r2, #1
 8001e94:	f883 203c 	strb.w	r2, [r3, #60]	@ 0x3c
 8001e98:	683b      	ldr	r3, [r7, #0]
 8001e9a:	681b      	ldr	r3, [r3, #0]
 8001e9c:	2b09      	cmp	r3, #9
 8001e9e:	d925      	bls.n	8001eec <HAL_ADC_ConfigChannel+0x78>
 8001ea0:	687b      	ldr	r3, [r7, #4]
 8001ea2:	681b      	ldr	r3, [r3, #0]
 8001ea4:	68d9      	ldr	r1, [r3, #12]
 8001ea6:	683b      	ldr	r3, [r7, #0]
 8001ea8:	681b      	ldr	r3, [r3, #0]
 8001eaa:	b29b      	uxth	r3, r3
 8001eac:	461a      	mov	r2, r3
 8001eae:	4613      	mov	r3, r2
 8001eb0:	005b      	lsls	r3, r3, #1
 8001eb2:	4413      	add	r3, r2
 8001eb4:	3b1e      	subs	r3, #30
 8001eb6:	2207      	movs	r2, #7
 8001eb8:	fa02 f303 	lsl.w	r3, r2, r3
 8001ebc:	43da      	mvns	r2, r3
 8001ebe:	687b      	ldr	r3, [r7, #4]
 8001ec0:	681b      	ldr	r3, [r3, #0]
 8001ec2:	400a      	ands	r2, r1
 8001ec4:	60da      	str	r2, [r3, #12]
 8001ec6:	687b      	ldr	r3, [r7, #4]
 8001ec8:	681b      	ldr	r3, [r3, #0]
 8001eca:	68d9      	ldr	r1, [r3, #12]
 8001ecc:	683b      	ldr	r3, [r7, #0]
 8001ece:	689a      	ldr	r2, [r3, #8]
 8001ed0:	683b      	ldr	r3, [r7, #0]
 8001ed2:	681b      	ldr	r3, [r3, #0]
 8001ed4:	b29b      	uxth	r3, r3
 8001ed6:	4618      	mov	r0, r3
 8001ed8:	4603      	mov	r3, r0
 8001eda:	005b      	lsls	r3, r3, #1
 8001edc:	4403      	add	r3, r0
 8001ede:	3b1e      	subs	r3, #30
 8001ee0:	409a      	lsls	r2, r3
 8001ee2:	687b      	ldr	r3, [r7, #4]
 8001ee4:	681b      	ldr	r3, [r3, #0]
 8001ee6:	430a      	orrs	r2, r1
 8001ee8:	60da      	str	r2, [r3, #12]
 8001eea:	e022      	b.n	8001f32 <HAL_ADC_ConfigChannel+0xbe>
 8001eec:	687b      	ldr	r3, [r7, #4]
 8001eee:	681b      	ldr	r3, [r3, #0]
 8001ef0:	6919      	ldr	r1, [r3, #16]
 8001ef2:	683b      	ldr	r3, [r7, #0]
 8001ef4:	681b      	ldr	r3, [r3, #0]
 8001ef6:	b29b      	uxth	r3, r3
 8001ef8:	461a      	mov	r2, r3
 8001efa:	4613      	mov	r3, r2
 8001efc:	005b      	lsls	r3, r3, #1
 8001efe:	4413      	add	r3, r2
 8001f00:	2207      	movs	r2, #7
 8001f02:	fa02 f303 	lsl.w	r3, r2, r3
 8001f06:	43da      	mvns	r2, r3
 8001f08:	687b      	ldr	r3, [r7, #4]
 8001f0a:	681b      	ldr	r3, [r3, #0]
 8001f0c:	400a      	ands	r2, r1
 8001f0e:	611a      	str	r2, [r3, #16]
 8001f10:	687b      	ldr	r3, [r7, #4]
 8001f12:	681b      	ldr	r3, [r3, #0]
 8001f14:	6919      	ldr	r1, [r3, #16]
 8001f16:	683b      	ldr	r3, [r7, #0]
 8001f18:	689a      	ldr	r2, [r3, #8]
 8001f1a:	683b      	ldr	r3, [r7, #0]
 8001f1c:	681b      	ldr	r3, [r3, #0]
 8001f1e:	b29b      	uxth	r3, r3
 8001f20:	4618      	mov	r0, r3
 8001f22:	4603      	mov	r3, r0
 8001f24:	005b      	lsls	r3, r3, #1
 8001f26:	4403      	add	r3, r0
 8001f28:	409a      	lsls	r2, r3
 8001f2a:	687b      	ldr	r3, [r7, #4]
 8001f2c:	681b      	ldr	r3, [r3, #0]
 8001f2e:	430a      	orrs	r2, r1
 8001f30:	611a      	str	r2, [r3, #16]
 8001f32:	683b      	ldr	r3, [r7, #0]
 8001f34:	685b      	ldr	r3, [r3, #4]
 8001f36:	2b06      	cmp	r3, #6
 8001f38:	d824      	bhi.n	8001f84 <HAL_ADC_ConfigChannel+0x110>
 8001f3a:	687b      	ldr	r3, [r7, #4]
 8001f3c:	681b      	ldr	r3, [r3, #0]
 8001f3e:	6b59      	ldr	r1, [r3, #52]	@ 0x34
 8001f40:	683b      	ldr	r3, [r7, #0]
 8001f42:	685a      	ldr	r2, [r3, #4]
 8001f44:	4613      	mov	r3, r2
 8001f46:	009b      	lsls	r3, r3, #2
 8001f48:	4413      	add	r3, r2
 8001f4a:	3b05      	subs	r3, #5
 8001f4c:	221f      	movs	r2, #31
 8001f4e:	fa02 f303 	lsl.w	r3, r2, r3
 8001f52:	43da      	mvns	r2, r3
 8001f54:	687b      	ldr	r3, [r7, #4]
 8001f56:	681b      	ldr	r3, [r3, #0]
 8001f58:	400a      	ands	r2, r1
 8001f5a:	635a      	str	r2, [r3, #52]	@ 0x34
 8001f5c:	687b      	ldr	r3, [r7, #4]
 8001f5e:	681b      	ldr	r3, [r3, #0]
 8001f60:	6b59      	ldr	r1, [r3, #52]	@ 0x34
 8001f62:	683b      	ldr	r3, [r7, #0]
 8001f64:	681b      	ldr	r3, [r3, #0]
 8001f66:	b29b      	uxth	r3, r3
 8001f68:	4618      	mov	r0, r3
 8001f6a:	683b      	ldr	r3, [r7, #0]
 8001f6c:	685a      	ldr	r2, [r3, #4]
 8001f6e:	4613      	mov	r3, r2
 8001f70:	009b      	lsls	r3, r3, #2
 8001f72:	4413      	add	r3, r2
 8001f74:	3b05      	subs	r3, #5
 8001f76:	fa00 f203 	lsl.w	r2, r0, r3
 8001f7a:	687b      	ldr	r3, [r7, #4]
 8001f7c:	681b      	ldr	r3, [r3, #0]
 8001f7e:	430a      	orrs	r2, r1
 8001f80:	635a      	str	r2, [r3, #52]	@ 0x34
 8001f82:	e04c      	b.n	800201e <HAL_ADC_ConfigChannel+0x1aa>
 8001f84:	683b      	ldr	r3, [r7, #0]
 8001f86:	685b      	ldr	r3, [r3, #4]
 8001f88:	2b0c      	cmp	r3, #12
 8001f8a:	d824      	bhi.n	8001fd6 <HAL_ADC_ConfigChannel+0x162>
 8001f8c:	687b      	ldr	r3, [r7, #4]
 8001f8e:	681b      	ldr	r3, [r3, #0]
 8001f90:	6b19      	ldr	r1, [r3, #48]	@ 0x30
 8001f92:	683b      	ldr	r3, [r7, #0]
 8001f94:	685a      	ldr	r2, [r3, #4]
 8001f96:	4613      	mov	r3, r2
 8001f98:	009b      	lsls	r3, r3, #2
 8001f9a:	4413      	add	r3, r2
 8001f9c:	3b23      	subs	r3, #35	@ 0x23
 8001f9e:	221f      	movs	r2, #31
 8001fa0:	fa02 f303 	lsl.w	r3, r2, r3
 8001fa4:	43da      	mvns	r2, r3
 8001fa6:	687b      	ldr	r3, [r7, #4]
 8001fa8:	681b      	ldr	r3, [r3, #0]
 8001faa:	400a      	ands	r2, r1
 8001fac:	631a      	str	r2, [r3, #48]	@ 0x30
 8001fae:	687b      	ldr	r3, [r7, #4]
 8001fb0:	681b      	ldr	r3, [r3, #0]
 8001fb2:	6b19      	ldr	r1, [r3, #48]	@ 0x30
 8001fb4:	683b      	ldr	r3, [r7, #0]
 8001fb6:	681b      	ldr	r3, [r3, #0]
 8001fb8:	b29b      	uxth	r3, r3
 8001fba:	4618      	mov	r0, r3
 8001fbc:	683b      	ldr	r3, [r7, #0]
 8001fbe:	685a      	ldr	r2, [r3, #4]
 8001fc0:	4613      	mov	r3, r2
 8001fc2:	009b      	lsls	r3, r3, #2
 8001fc4:	4413      	add	r3, r2
 8001fc6:	3b23      	subs	r3, #35	@ 0x23
 8001fc8:	fa00 f203 	lsl.w	r2, r0, r3
 8001fcc:	687b      	ldr	r3, [r7, #4]
 8001fce:	681b      	ldr	r3, [r3, #0]
 8001fd0:	430a      	orrs	r2, r1
 8001fd2:	631a      	str	r2, [r3, #48]	@ 0x30
 8001fd4:	e023      	b.n	800201e <HAL_ADC_ConfigChannel+0x1aa>
 8001fd6:	687b      	ldr	r3, [r7, #4]
 8001fd8:	681b      	ldr	r3, [r3, #0]
 8001fda:	6ad9      	ldr	r1, [r3, #44]	@ 0x2c
 8001fdc:	683b      	ldr	r3, [r7, #0]
 8001fde:	685a      	ldr	r2, [r3, #4]
 8001fe0:	4613      	mov	r3, r2
 8001fe2:	009b      	lsls	r3, r3, #2
 8001fe4:	4413      	add	r3, r2
 8001fe6:	3b41      	subs	r3, #65	@ 0x41
 8001fe8:	221f      	movs	r2, #31
 8001fea:	fa02 f303 	lsl.w	r3, r2, r3
 8001fee:	43da      	mvns	r2, r3
 8001ff0:	687b      	ldr	r3, [r7, #4]
 8001ff2:	681b      	ldr	r3, [r3, #0]
 8001ff4:	400a      	ands	r2, r1
 8001ff6:	62da      	str	r2, [r3, #44]	@ 0x2c
 8001ff8:	687b      	ldr	r3, [r7, #4]
 8001ffa:	681b      	ldr	r3, [r3, #0]
 8001ffc:	6ad9      	ldr	r1, [r3, #44]	@ 0x2c
 8001ffe:	683b      	ldr	r3, [r7, #0]
 8002000:	681b      	ldr	r3, [r3, #0]
 8002002:	b29b      	uxth	r3, r3
 8002004:	4618      	mov	r0, r3
 8002006:	683b      	ldr	r3, [r7, #0]
 8002008:	685a      	ldr	r2, [r3, #4]
 800200a:	4613      	mov	r3, r2
 800200c:	009b      	lsls	r3, r3, #2
 800200e:	4413      	add	r3, r2
 8002010:	3b41      	subs	r3, #65	@ 0x41
 8002012:	fa00 f203 	lsl.w	r2, r0, r3
 8002016:	687b      	ldr	r3, [r7, #4]
 8002018:	681b      	ldr	r3, [r3, #0]
 800201a:	430a      	orrs	r2, r1
 800201c:	62da      	str	r2, [r3, #44]	@ 0x2c
 800201e:	4b22      	ldr	r3, [pc, #136]	@ (80020a8 <HAL_ADC_ConfigChannel+0x234>)
 8002020:	60fb      	str	r3, [r7, #12]
 8002022:	687b      	ldr	r3, [r7, #4]
 8002024:	681b      	ldr	r3, [r3, #0]
 8002026:	4a21      	ldr	r2, [pc, #132]	@ (80020ac <HAL_ADC_ConfigChannel+0x238>)
 8002028:	4293      	cmp	r3, r2
 800202a:	d109      	bne.n	8002040 <HAL_ADC_ConfigChannel+0x1cc>
 800202c:	683b      	ldr	r3, [r7, #0]
 800202e:	681b      	ldr	r3, [r3, #0]
 8002030:	2b12      	cmp	r3, #18
 8002032:	d105      	bne.n	8002040 <HAL_ADC_ConfigChannel+0x1cc>
 8002034:	68fb      	ldr	r3, [r7, #12]
 8002036:	685b      	ldr	r3, [r3, #4]
 8002038:	f443 0280 	orr.w	r2, r3, #4194304	@ 0x400000
 800203c:	68fb      	ldr	r3, [r7, #12]
 800203e:	605a      	str	r2, [r3, #4]
 8002040:	687b      	ldr	r3, [r7, #4]
 8002042:	681b      	ldr	r3, [r3, #0]
 8002044:	4a19      	ldr	r2, [pc, #100]	@ (80020ac <HAL_ADC_ConfigChannel+0x238>)
 8002046:	4293      	cmp	r3, r2
 8002048:	d123      	bne.n	8002092 <HAL_ADC_ConfigChannel+0x21e>
 800204a:	683b      	ldr	r3, [r7, #0]
 800204c:	681b      	ldr	r3, [r3, #0]
 800204e:	2b10      	cmp	r3, #16
 8002050:	d003      	beq.n	800205a <HAL_ADC_ConfigChannel+0x1e6>
 8002052:	683b      	ldr	r3, [r7, #0]
 8002054:	681b      	ldr	r3, [r3, #0]
 8002056:	2b11      	cmp	r3, #17
 8002058:	d11b      	bne.n	8002092 <HAL_ADC_ConfigChannel+0x21e>
 800205a:	68fb      	ldr	r3, [r7, #12]
 800205c:	685b      	ldr	r3, [r3, #4]
 800205e:	f443 0200 	orr.w	r2, r3, #8388608	@ 0x800000
 8002062:	68fb      	ldr	r3, [r7, #12]
 8002064:	605a      	str	r2, [r3, #4]
 8002066:	683b      	ldr	r3, [r7, #0]
 8002068:	681b      	ldr	r3, [r3, #0]
 800206a:	2b10      	cmp	r3, #16
 800206c:	d111      	bne.n	8002092 <HAL_ADC_ConfigChannel+0x21e>
 800206e:	4b10      	ldr	r3, [pc, #64]	@ (80020b0 <HAL_ADC_ConfigChannel+0x23c>)
 8002070:	681b      	ldr	r3, [r3, #0]
 8002072:	4a10      	ldr	r2, [pc, #64]	@ (80020b4 <HAL_ADC_ConfigChannel+0x240>)
 8002074:	fba2 2303 	umull	r2, r3, r2, r3
 8002078:	0c9a      	lsrs	r2, r3, #18
 800207a:	4613      	mov	r3, r2
 800207c:	009b      	lsls	r3, r3, #2
 800207e:	4413      	add	r3, r2
 8002080:	005b      	lsls	r3, r3, #1
 8002082:	60bb      	str	r3, [r7, #8]
 8002084:	e002      	b.n	800208c <HAL_ADC_ConfigChannel+0x218>
 8002086:	68bb      	ldr	r3, [r7, #8]
 8002088:	3b01      	subs	r3, #1
 800208a:	60bb      	str	r3, [r7, #8]
 800208c:	68bb      	ldr	r3, [r7, #8]
 800208e:	2b00      	cmp	r3, #0
 8002090:	d1f9      	bne.n	8002086 <HAL_ADC_ConfigChannel+0x212>
 8002092:	687b      	ldr	r3, [r7, #4]
 8002094:	2200      	movs	r2, #0
 8002096:	f883 203c 	strb.w	r2, [r3, #60]	@ 0x3c
 800209a:	2300      	movs	r3, #0
 800209c:	4618      	mov	r0, r3
 800209e:	3714      	adds	r7, #20
 80020a0:	46bd      	mov	sp, r7
 80020a2:	f85d 7b04 	ldr.w	r7, [sp], #4
 80020a6:	4770      	bx	lr
 80020a8:	40012300 	.word	0x40012300
 80020ac:	40012000 	.word	0x40012000
 80020b0:	20000000 	.word	0x20000000
 80020b4:	431bde83 	.word	0x431bde83

080020b8 <ADC_Init>:
 80020b8:	b480      	push	{r7}
 80020ba:	b085      	sub	sp, #20
 80020bc:	af00      	add	r7, sp, #0
 80020be:	6078      	str	r0, [r7, #4]
 80020c0:	4b79      	ldr	r3, [pc, #484]	@ (80022a8 <ADC_Init+0x1f0>)
 80020c2:	60fb      	str	r3, [r7, #12]
 80020c4:	68fb      	ldr	r3, [r7, #12]
 80020c6:	685b      	ldr	r3, [r3, #4]
 80020c8:	f423 3240 	bic.w	r2, r3, #196608	@ 0x30000
 80020cc:	68fb      	ldr	r3, [r7, #12]
 80020ce:	605a      	str	r2, [r3, #4]
 80020d0:	68fb      	ldr	r3, [r7, #12]
 80020d2:	685a      	ldr	r2, [r3, #4]
 80020d4:	687b      	ldr	r3, [r7, #4]
 80020d6:	685b      	ldr	r3, [r3, #4]
 80020d8:	431a      	orrs	r2, r3
 80020da:	68fb      	ldr	r3, [r7, #12]
 80020dc:	605a      	str	r2, [r3, #4]
 80020de:	687b      	ldr	r3, [r7, #4]
 80020e0:	681b      	ldr	r3, [r3, #0]
 80020e2:	685a      	ldr	r2, [r3, #4]
 80020e4:	687b      	ldr	r3, [r7, #4]
 80020e6:	681b      	ldr	r3, [r3, #0]
 80020e8:	f422 7280 	bic.w	r2, r2, #256	@ 0x100
 80020ec:	605a      	str	r2, [r3, #4]
 80020ee:	687b      	ldr	r3, [r7, #4]
 80020f0:	681b      	ldr	r3, [r3, #0]
 80020f2:	6859      	ldr	r1, [r3, #4]
 80020f4:	687b      	ldr	r3, [r7, #4]
 80020f6:	691b      	ldr	r3, [r3, #16]
 80020f8:	021a      	lsls	r2, r3, #8
 80020fa:	687b      	ldr	r3, [r7, #4]
 80020fc:	681b      	ldr	r3, [r3, #0]
 80020fe:	430a      	orrs	r2, r1
 8002100:	605a      	str	r2, [r3, #4]
 8002102:	687b      	ldr	r3, [r7, #4]
 8002104:	681b      	ldr	r3, [r3, #0]
 8002106:	685a      	ldr	r2, [r3, #4]
 8002108:	687b      	ldr	r3, [r7, #4]
 800210a:	681b      	ldr	r3, [r3, #0]
 800210c:	f022 7240 	bic.w	r2, r2, #50331648	@ 0x3000000
 8002110:	605a      	str	r2, [r3, #4]
 8002112:	687b      	ldr	r3, [r7, #4]
 8002114:	681b      	ldr	r3, [r3, #0]
 8002116:	6859      	ldr	r1, [r3, #4]
 8002118:	687b      	ldr	r3, [r7, #4]
 800211a:	689a      	ldr	r2, [r3, #8]
 800211c:	687b      	ldr	r3, [r7, #4]
 800211e:	681b      	ldr	r3, [r3, #0]
 8002120:	430a      	orrs	r2, r1
 8002122:	605a      	str	r2, [r3, #4]
 8002124:	687b      	ldr	r3, [r7, #4]
 8002126:	681b      	ldr	r3, [r3, #0]
 8002128:	689a      	ldr	r2, [r3, #8]
 800212a:	687b      	ldr	r3, [r7, #4]
 800212c:	681b      	ldr	r3, [r3, #0]
 800212e:	f422 6200 	bic.w	r2, r2, #2048	@ 0x800
 8002132:	609a      	str	r2, [r3, #8]
 8002134:	687b      	ldr	r3, [r7, #4]
 8002136:	681b      	ldr	r3, [r3, #0]
 8002138:	6899      	ldr	r1, [r3, #8]
 800213a:	687b      	ldr	r3, [r7, #4]
 800213c:	68da      	ldr	r2, [r3, #12]
 800213e:	687b      	ldr	r3, [r7, #4]
 8002140:	681b      	ldr	r3, [r3, #0]
 8002142:	430a      	orrs	r2, r1
 8002144:	609a      	str	r2, [r3, #8]
 8002146:	687b      	ldr	r3, [r7, #4]
 8002148:	6a9b      	ldr	r3, [r3, #40]	@ 0x28
 800214a:	4a58      	ldr	r2, [pc, #352]	@ (80022ac <ADC_Init+0x1f4>)
 800214c:	4293      	cmp	r3, r2
 800214e:	d022      	beq.n	8002196 <ADC_Init+0xde>
 8002150:	687b      	ldr	r3, [r7, #4]
 8002152:	681b      	ldr	r3, [r3, #0]
 8002154:	689a      	ldr	r2, [r3, #8]
 8002156:	687b      	ldr	r3, [r7, #4]
 8002158:	681b      	ldr	r3, [r3, #0]
 800215a:	f022 6270 	bic.w	r2, r2, #251658240	@ 0xf000000
 800215e:	609a      	str	r2, [r3, #8]
 8002160:	687b      	ldr	r3, [r7, #4]
 8002162:	681b      	ldr	r3, [r3, #0]
 8002164:	6899      	ldr	r1, [r3, #8]
 8002166:	687b      	ldr	r3, [r7, #4]
 8002168:	6a9a      	ldr	r2, [r3, #40]	@ 0x28
 800216a:	687b      	ldr	r3, [r7, #4]
 800216c:	681b      	ldr	r3, [r3, #0]
 800216e:	430a      	orrs	r2, r1
 8002170:	609a      	str	r2, [r3, #8]
 8002172:	687b      	ldr	r3, [r7, #4]
 8002174:	681b      	ldr	r3, [r3, #0]
 8002176:	689a      	ldr	r2, [r3, #8]
 8002178:	687b      	ldr	r3, [r7, #4]
 800217a:	681b      	ldr	r3, [r3, #0]
 800217c:	f022 5240 	bic.w	r2, r2, #805306368	@ 0x30000000
 8002180:	609a      	str	r2, [r3, #8]
 8002182:	687b      	ldr	r3, [r7, #4]
 8002184:	681b      	ldr	r3, [r3, #0]
 8002186:	6899      	ldr	r1, [r3, #8]
 8002188:	687b      	ldr	r3, [r7, #4]
 800218a:	6ada      	ldr	r2, [r3, #44]	@ 0x2c
 800218c:	687b      	ldr	r3, [r7, #4]
 800218e:	681b      	ldr	r3, [r3, #0]
 8002190:	430a      	orrs	r2, r1
 8002192:	609a      	str	r2, [r3, #8]
 8002194:	e00f      	b.n	80021b6 <ADC_Init+0xfe>
 8002196:	687b      	ldr	r3, [r7, #4]
 8002198:	681b      	ldr	r3, [r3, #0]
 800219a:	689a      	ldr	r2, [r3, #8]
 800219c:	687b      	ldr	r3, [r7, #4]
 800219e:	681b      	ldr	r3, [r3, #0]
 80021a0:	f022 6270 	bic.w	r2, r2, #251658240	@ 0xf000000
 80021a4:	609a      	str	r2, [r3, #8]
 80021a6:	687b      	ldr	r3, [r7, #4]
 80021a8:	681b      	ldr	r3, [r3, #0]
 80021aa:	689a      	ldr	r2, [r3, #8]
 80021ac:	687b      	ldr	r3, [r7, #4]
 80021ae:	681b      	ldr	r3, [r3, #0]
 80021b0:	f022 5240 	bic.w	r2, r2, #805306368	@ 0x30000000
 80021b4:	609a      	str	r2, [r3, #8]
 80021b6:	687b      	ldr	r3, [r7, #4]
 80021b8:	681b      	ldr	r3, [r3, #0]
 80021ba:	689a      	ldr	r2, [r3, #8]
 80021bc:	687b      	ldr	r3, [r7, #4]
 80021be:	681b      	ldr	r3, [r3, #0]
 80021c0:	f022 0202 	bic.w	r2, r2, #2
 80021c4:	609a      	str	r2, [r3, #8]
 80021c6:	687b      	ldr	r3, [r7, #4]
 80021c8:	681b      	ldr	r3, [r3, #0]
 80021ca:	6899      	ldr	r1, [r3, #8]
 80021cc:	687b      	ldr	r3, [r7, #4]
 80021ce:	7e1b      	ldrb	r3, [r3, #24]
 80021d0:	005a      	lsls	r2, r3, #1
 80021d2:	687b      	ldr	r3, [r7, #4]
 80021d4:	681b      	ldr	r3, [r3, #0]
 80021d6:	430a      	orrs	r2, r1
 80021d8:	609a      	str	r2, [r3, #8]
 80021da:	687b      	ldr	r3, [r7, #4]
 80021dc:	f893 3020 	ldrb.w	r3, [r3, #32]
 80021e0:	2b00      	cmp	r3, #0
 80021e2:	d01b      	beq.n	800221c <ADC_Init+0x164>
 80021e4:	687b      	ldr	r3, [r7, #4]
 80021e6:	681b      	ldr	r3, [r3, #0]
 80021e8:	685a      	ldr	r2, [r3, #4]
 80021ea:	687b      	ldr	r3, [r7, #4]
 80021ec:	681b      	ldr	r3, [r3, #0]
 80021ee:	f442 6200 	orr.w	r2, r2, #2048	@ 0x800
 80021f2:	605a      	str	r2, [r3, #4]
 80021f4:	687b      	ldr	r3, [r7, #4]
 80021f6:	681b      	ldr	r3, [r3, #0]
 80021f8:	685a      	ldr	r2, [r3, #4]
 80021fa:	687b      	ldr	r3, [r7, #4]
 80021fc:	681b      	ldr	r3, [r3, #0]
 80021fe:	f422 4260 	bic.w	r2, r2, #57344	@ 0xe000
 8002202:	605a      	str	r2, [r3, #4]
 8002204:	687b      	ldr	r3, [r7, #4]
 8002206:	681b      	ldr	r3, [r3, #0]
 8002208:	6859      	ldr	r1, [r3, #4]
 800220a:	687b      	ldr	r3, [r7, #4]
 800220c:	6a5b      	ldr	r3, [r3, #36]	@ 0x24
 800220e:	3b01      	subs	r3, #1
 8002210:	035a      	lsls	r2, r3, #13
 8002212:	687b      	ldr	r3, [r7, #4]
 8002214:	681b      	ldr	r3, [r3, #0]
 8002216:	430a      	orrs	r2, r1
 8002218:	605a      	str	r2, [r3, #4]
 800221a:	e007      	b.n	800222c <ADC_Init+0x174>
 800221c:	687b      	ldr	r3, [r7, #4]
 800221e:	681b      	ldr	r3, [r3, #0]
 8002220:	685a      	ldr	r2, [r3, #4]
 8002222:	687b      	ldr	r3, [r7, #4]
 8002224:	681b      	ldr	r3, [r3, #0]
 8002226:	f422 6200 	bic.w	r2, r2, #2048	@ 0x800
 800222a:	605a      	str	r2, [r3, #4]
 800222c:	687b      	ldr	r3, [r7, #4]
 800222e:	681b      	ldr	r3, [r3, #0]
 8002230:	6ada      	ldr	r2, [r3, #44]	@ 0x2c
 8002232:	687b      	ldr	r3, [r7, #4]
 8002234:	681b      	ldr	r3, [r3, #0]
 8002236:	f422 0270 	bic.w	r2, r2, #15728640	@ 0xf00000
 800223a:	62da      	str	r2, [r3, #44]	@ 0x2c
 800223c:	687b      	ldr	r3, [r7, #4]
 800223e:	681b      	ldr	r3, [r3, #0]
 8002240:	6ad9      	ldr	r1, [r3, #44]	@ 0x2c
 8002242:	687b      	ldr	r3, [r7, #4]
 8002244:	69db      	ldr	r3, [r3, #28]
 8002246:	3b01      	subs	r3, #1
 8002248:	051a      	lsls	r2, r3, #20
 800224a:	687b      	ldr	r3, [r7, #4]
 800224c:	681b      	ldr	r3, [r3, #0]
 800224e:	430a      	orrs	r2, r1
 8002250:	62da      	str	r2, [r3, #44]	@ 0x2c
 8002252:	687b      	ldr	r3, [r7, #4]
 8002254:	681b      	ldr	r3, [r3, #0]
 8002256:	689a      	ldr	r2, [r3, #8]
 8002258:	687b      	ldr	r3, [r7, #4]
 800225a:	681b      	ldr	r3, [r3, #0]
 800225c:	f422 7200 	bic.w	r2, r2, #512	@ 0x200
 8002260:	609a      	str	r2, [r3, #8]
 8002262:	687b      	ldr	r3, [r7, #4]
 8002264:	681b      	ldr	r3, [r3, #0]
 8002266:	6899      	ldr	r1, [r3, #8]
 8002268:	687b      	ldr	r3, [r7, #4]
 800226a:	f893 3030 	ldrb.w	r3, [r3, #48]	@ 0x30
 800226e:	025a      	lsls	r2, r3, #9
 8002270:	687b      	ldr	r3, [r7, #4]
 8002272:	681b      	ldr	r3, [r3, #0]
 8002274:	430a      	orrs	r2, r1
 8002276:	609a      	str	r2, [r3, #8]
 8002278:	687b      	ldr	r3, [r7, #4]
 800227a:	681b      	ldr	r3, [r3, #0]
 800227c:	689a      	ldr	r2, [r3, #8]
 800227e:	687b      	ldr	r3, [r7, #4]
 8002280:	681b      	ldr	r3, [r3, #0]
 8002282:	f422 6280 	bic.w	r2, r2, #1024	@ 0x400
 8002286:	609a      	str	r2, [r3, #8]
 8002288:	687b      	ldr	r3, [r7, #4]
 800228a:	681b      	ldr	r3, [r3, #0]
 800228c:	6899      	ldr	r1, [r3, #8]
 800228e:	687b      	ldr	r3, [r7, #4]
 8002290:	695b      	ldr	r3, [r3, #20]
 8002292:	029a      	lsls	r2, r3, #10
 8002294:	687b      	ldr	r3, [r7, #4]
 8002296:	681b      	ldr	r3, [r3, #0]
 8002298:	430a      	orrs	r2, r1
 800229a:	609a      	str	r2, [r3, #8]
 800229c:	bf00      	nop
 800229e:	3714      	adds	r7, #20
 80022a0:	46bd      	mov	sp, r7
 80022a2:	f85d 7b04 	ldr.w	r7, [sp], #4
 80022a6:	4770      	bx	lr
 80022a8:	40012300 	.word	0x40012300
 80022ac:	0f000001 	.word	0x0f000001

080022b0 <__NVIC_SetPriorityGrouping>:
 80022b0:	b480      	push	{r7}
 80022b2:	b085      	sub	sp, #20
 80022b4:	af00      	add	r7, sp, #0
 80022b6:	6078      	str	r0, [r7, #4]
 80022b8:	687b      	ldr	r3, [r7, #4]
 80022ba:	f003 0307 	and.w	r3, r3, #7
 80022be:	60fb      	str	r3, [r7, #12]
 80022c0:	4b0c      	ldr	r3, [pc, #48]	@ (80022f4 <__NVIC_SetPriorityGrouping+0x44>)
 80022c2:	68db      	ldr	r3, [r3, #12]
 80022c4:	60bb      	str	r3, [r7, #8]
 80022c6:	68ba      	ldr	r2, [r7, #8]
 80022c8:	f64f 03ff 	movw	r3, #63743	@ 0xf8ff
 80022cc:	4013      	ands	r3, r2
 80022ce:	60bb      	str	r3, [r7, #8]
 80022d0:	68fb      	ldr	r3, [r7, #12]
 80022d2:	021a      	lsls	r2, r3, #8
 80022d4:	68bb      	ldr	r3, [r7, #8]
 80022d6:	4313      	orrs	r3, r2
 80022d8:	f043 63bf 	orr.w	r3, r3, #100139008	@ 0x5f80000
 80022dc:	f443 3300 	orr.w	r3, r3, #131072	@ 0x20000
 80022e0:	60bb      	str	r3, [r7, #8]
 80022e2:	4a04      	ldr	r2, [pc, #16]	@ (80022f4 <__NVIC_SetPriorityGrouping+0x44>)
 80022e4:	68bb      	ldr	r3, [r7, #8]
 80022e6:	60d3      	str	r3, [r2, #12]
 80022e8:	bf00      	nop
 80022ea:	3714      	adds	r7, #20
 80022ec:	46bd      	mov	sp, r7
 80022ee:	f85d 7b04 	ldr.w	r7, [sp], #4
 80022f2:	4770      	bx	lr
 80022f4:	e000ed00 	.word	0xe000ed00

080022f8 <__NVIC_GetPriorityGrouping>:
 80022f8:	b480      	push	{r7}
 80022fa:	af00      	add	r7, sp, #0
 80022fc:	4b04      	ldr	r3, [pc, #16]	@ (8002310 <__NVIC_GetPriorityGrouping+0x18>)
 80022fe:	68db      	ldr	r3, [r3, #12]
 8002300:	0a1b      	lsrs	r3, r3, #8
 8002302:	f003 0307 	and.w	r3, r3, #7
 8002306:	4618      	mov	r0, r3
 8002308:	46bd      	mov	sp, r7
 800230a:	f85d 7b04 	ldr.w	r7, [sp], #4
 800230e:	4770      	bx	lr
 8002310:	e000ed00 	.word	0xe000ed00

08002314 <__NVIC_SetPriority>:
 8002314:	b480      	push	{r7}
 8002316:	b083      	sub	sp, #12
 8002318:	af00      	add	r7, sp, #0
 800231a:	4603      	mov	r3, r0
 800231c:	6039      	str	r1, [r7, #0]
 800231e:	71fb      	strb	r3, [r7, #7]
 8002320:	f997 3007 	ldrsb.w	r3, [r7, #7]
 8002324:	2b00      	cmp	r3, #0
 8002326:	db0a      	blt.n	800233e <__NVIC_SetPriority+0x2a>
 8002328:	683b      	ldr	r3, [r7, #0]
 800232a:	b2da      	uxtb	r2, r3
 800232c:	490c      	ldr	r1, [pc, #48]	@ (8002360 <__NVIC_SetPriority+0x4c>)
 800232e:	f997 3007 	ldrsb.w	r3, [r7, #7]
 8002332:	0112      	lsls	r2, r2, #4
 8002334:	b2d2      	uxtb	r2, r2
 8002336:	440b      	add	r3, r1
 8002338:	f883 2300 	strb.w	r2, [r3, #768]	@ 0x300
 800233c:	e00a      	b.n	8002354 <__NVIC_SetPriority+0x40>
 800233e:	683b      	ldr	r3, [r7, #0]
 8002340:	b2da      	uxtb	r2, r3
 8002342:	4908      	ldr	r1, [pc, #32]	@ (8002364 <__NVIC_SetPriority+0x50>)
 8002344:	79fb      	ldrb	r3, [r7, #7]
 8002346:	f003 030f 	and.w	r3, r3, #15
 800234a:	3b04      	subs	r3, #4
 800234c:	0112      	lsls	r2, r2, #4
 800234e:	b2d2      	uxtb	r2, r2
 8002350:	440b      	add	r3, r1
 8002352:	761a      	strb	r2, [r3, #24]
 8002354:	bf00      	nop
 8002356:	370c      	adds	r7, #12
 8002358:	46bd      	mov	sp, r7
 800235a:	f85d 7b04 	ldr.w	r7, [sp], #4
 800235e:	4770      	bx	lr
 8002360:	e000e100 	.word	0xe000e100
 8002364:	e000ed00 	.word	0xe000ed00

08002368 <NVIC_EncodePriority>:
 8002368:	b480      	push	{r7}
 800236a:	b089      	sub	sp, #36	@ 0x24
 800236c:	af00      	add	r7, sp, #0
 800236e:	60f8      	str	r0, [r7, #12]
 8002370:	60b9      	str	r1, [r7, #8]
 8002372:	607a      	str	r2, [r7, #4]
 8002374:	68fb      	ldr	r3, [r7, #12]
 8002376:	f003 0307 	and.w	r3, r3, #7
 800237a:	61fb      	str	r3, [r7, #28]
 800237c:	69fb      	ldr	r3, [r7, #28]
 800237e:	f1c3 0307 	rsb	r3, r3, #7
 8002382:	2b04      	cmp	r3, #4
 8002384:	bf28      	it	cs
 8002386:	2304      	movcs	r3, #4
 8002388:	61bb      	str	r3, [r7, #24]
 800238a:	69fb      	ldr	r3, [r7, #28]
 800238c:	3304      	adds	r3, #4
 800238e:	2b06      	cmp	r3, #6
 8002390:	d902      	bls.n	8002398 <NVIC_EncodePriority+0x30>
 8002392:	69fb      	ldr	r3, [r7, #28]
 8002394:	3b03      	subs	r3, #3
 8002396:	e000      	b.n	800239a <NVIC_EncodePriority+0x32>
 8002398:	2300      	movs	r3, #0
 800239a:	617b      	str	r3, [r7, #20]
 800239c:	f04f 32ff 	mov.w	r2, #4294967295
 80023a0:	69bb      	ldr	r3, [r7, #24]
 80023a2:	fa02 f303 	lsl.w	r3, r2, r3
 80023a6:	43da      	mvns	r2, r3
 80023a8:	68bb      	ldr	r3, [r7, #8]
 80023aa:	401a      	ands	r2, r3
 80023ac:	697b      	ldr	r3, [r7, #20]
 80023ae:	409a      	lsls	r2, r3
 80023b0:	f04f 31ff 	mov.w	r1, #4294967295
 80023b4:	697b      	ldr	r3, [r7, #20]
 80023b6:	fa01 f303 	lsl.w	r3, r1, r3
 80023ba:	43d9      	mvns	r1, r3
 80023bc:	687b      	ldr	r3, [r7, #4]
 80023be:	400b      	ands	r3, r1
 80023c0:	4313      	orrs	r3, r2
 80023c2:	4618      	mov	r0, r3
 80023c4:	3724      	adds	r7, #36	@ 0x24
 80023c6:	46bd      	mov	sp, r7
 80023c8:	f85d 7b04 	ldr.w	r7, [sp], #4
 80023cc:	4770      	bx	lr
	...

080023d0 <SysTick_Config>:
 80023d0:	b580      	push	{r7, lr}
 80023d2:	b082      	sub	sp, #8
 80023d4:	af00      	add	r7, sp, #0
 80023d6:	6078      	str	r0, [r7, #4]
 80023d8:	687b      	ldr	r3, [r7, #4]
 80023da:	3b01      	subs	r3, #1
 80023dc:	f1b3 7f80 	cmp.w	r3, #16777216	@ 0x1000000
 80023e0:	d301      	bcc.n	80023e6 <SysTick_Config+0x16>
 80023e2:	2301      	movs	r3, #1
 80023e4:	e00f      	b.n	8002406 <SysTick_Config+0x36>
 80023e6:	4a0a      	ldr	r2, [pc, #40]	@ (8002410 <SysTick_Config+0x40>)
 80023e8:	687b      	ldr	r3, [r7, #4]
 80023ea:	3b01      	subs	r3, #1
 80023ec:	6053      	str	r3, [r2, #4]
 80023ee:	210f      	movs	r1, #15
 80023f0:	f04f 30ff 	mov.w	r0, #4294967295
 80023f4:	f7ff ff8e 	bl	8002314 <__NVIC_SetPriority>
 80023f8:	4b05      	ldr	r3, [pc, #20]	@ (8002410 <SysTick_Config+0x40>)
 80023fa:	2200      	movs	r2, #0
 80023fc:	609a      	str	r2, [r3, #8]
 80023fe:	4b04      	ldr	r3, [pc, #16]	@ (8002410 <SysTick_Config+0x40>)
 8002400:	2207      	movs	r2, #7
 8002402:	601a      	str	r2, [r3, #0]
 8002404:	2300      	movs	r3, #0
 8002406:	4618      	mov	r0, r3
 8002408:	3708      	adds	r7, #8
 800240a:	46bd      	mov	sp, r7
 800240c:	bd80      	pop	{r7, pc}
 800240e:	bf00      	nop
 8002410:	e000e010 	.word	0xe000e010

08002414 <HAL_NVIC_SetPriorityGrouping>:
 8002414:	b580      	push	{r7, lr}
 8002416:	b082      	sub	sp, #8
 8002418:	af00      	add	r7, sp, #0
 800241a:	6078      	str	r0, [r7, #4]
 800241c:	6878      	ldr	r0, [r7, #4]
 800241e:	f7ff ff47 	bl	80022b0 <__NVIC_SetPriorityGrouping>
 8002422:	bf00      	nop
 8002424:	3708      	adds	r7, #8
 8002426:	46bd      	mov	sp, r7
 8002428:	bd80      	pop	{r7, pc}

0800242a <HAL_NVIC_SetPriority>:
 800242a:	b580      	push	{r7, lr}
 800242c:	b086      	sub	sp, #24
 800242e:	af00      	add	r7, sp, #0
 8002430:	4603      	mov	r3, r0
 8002432:	60b9      	str	r1, [r7, #8]
 8002434:	607a      	str	r2, [r7, #4]
 8002436:	73fb      	strb	r3, [r7, #15]
 8002438:	2300      	movs	r3, #0
 800243a:	617b      	str	r3, [r7, #20]
 800243c:	f7ff ff5c 	bl	80022f8 <__NVIC_GetPriorityGrouping>
 8002440:	6178      	str	r0, [r7, #20]
 8002442:	687a      	ldr	r2, [r7, #4]
 8002444:	68b9      	ldr	r1, [r7, #8]
 8002446:	6978      	ldr	r0, [r7, #20]
 8002448:	f7ff ff8e 	bl	8002368 <NVIC_EncodePriority>
 800244c:	4602      	mov	r2, r0
 800244e:	f997 300f 	ldrsb.w	r3, [r7, #15]
 8002452:	4611      	mov	r1, r2
 8002454:	4618      	mov	r0, r3
 8002456:	f7ff ff5d 	bl	8002314 <__NVIC_SetPriority>
 800245a:	bf00      	nop
 800245c:	3718      	adds	r7, #24
 800245e:	46bd      	mov	sp, r7
 8002460:	bd80      	pop	{r7, pc}

08002462 <HAL_SYSTICK_Config>:
 8002462:	b580      	push	{r7, lr}
 8002464:	b082      	sub	sp, #8
 8002466:	af00      	add	r7, sp, #0
 8002468:	6078      	str	r0, [r7, #4]
 800246a:	6878      	ldr	r0, [r7, #4]
 800246c:	f7ff ffb0 	bl	80023d0 <SysTick_Config>
 8002470:	4603      	mov	r3, r0
 8002472:	4618      	mov	r0, r3
 8002474:	3708      	adds	r7, #8
 8002476:	46bd      	mov	sp, r7
 8002478:	bd80      	pop	{r7, pc}
	...

0800247c <HAL_GPIO_Init>:
 800247c:	b480      	push	{r7}
 800247e:	b089      	sub	sp, #36	@ 0x24
 8002480:	af00      	add	r7, sp, #0
 8002482:	6078      	str	r0, [r7, #4]
 8002484:	6039      	str	r1, [r7, #0]
 8002486:	2300      	movs	r3, #0
 8002488:	617b      	str	r3, [r7, #20]
 800248a:	2300      	movs	r3, #0
 800248c:	613b      	str	r3, [r7, #16]
 800248e:	2300      	movs	r3, #0
 8002490:	61bb      	str	r3, [r7, #24]
 8002492:	2300      	movs	r3, #0
 8002494:	61fb      	str	r3, [r7, #28]
 8002496:	e159      	b.n	800274c <HAL_GPIO_Init+0x2d0>
 8002498:	2201      	movs	r2, #1
 800249a:	69fb      	ldr	r3, [r7, #28]
 800249c:	fa02 f303 	lsl.w	r3, r2, r3
 80024a0:	617b      	str	r3, [r7, #20]
 80024a2:	683b      	ldr	r3, [r7, #0]
 80024a4:	681b      	ldr	r3, [r3, #0]
 80024a6:	697a      	ldr	r2, [r7, #20]
 80024a8:	4013      	ands	r3, r2
 80024aa:	613b      	str	r3, [r7, #16]
 80024ac:	693a      	ldr	r2, [r7, #16]
 80024ae:	697b      	ldr	r3, [r7, #20]
 80024b0:	429a      	cmp	r2, r3
 80024b2:	f040 8148 	bne.w	8002746 <HAL_GPIO_Init+0x2ca>
 80024b6:	683b      	ldr	r3, [r7, #0]
 80024b8:	685b      	ldr	r3, [r3, #4]
 80024ba:	f003 0303 	and.w	r3, r3, #3
 80024be:	2b01      	cmp	r3, #1
 80024c0:	d005      	beq.n	80024ce <HAL_GPIO_Init+0x52>
 80024c2:	683b      	ldr	r3, [r7, #0]
 80024c4:	685b      	ldr	r3, [r3, #4]
 80024c6:	f003 0303 	and.w	r3, r3, #3
 80024ca:	2b02      	cmp	r3, #2
 80024cc:	d130      	bne.n	8002530 <HAL_GPIO_Init+0xb4>
 80024ce:	687b      	ldr	r3, [r7, #4]
 80024d0:	689b      	ldr	r3, [r3, #8]
 80024d2:	61bb      	str	r3, [r7, #24]
 80024d4:	69fb      	ldr	r3, [r7, #28]
 80024d6:	005b      	lsls	r3, r3, #1
 80024d8:	2203      	movs	r2, #3
 80024da:	fa02 f303 	lsl.w	r3, r2, r3
 80024de:	43db      	mvns	r3, r3
 80024e0:	69ba      	ldr	r2, [r7, #24]
 80024e2:	4013      	ands	r3, r2
 80024e4:	61bb      	str	r3, [r7, #24]
 80024e6:	683b      	ldr	r3, [r7, #0]
 80024e8:	68da      	ldr	r2, [r3, #12]
 80024ea:	69fb      	ldr	r3, [r7, #28]
 80024ec:	005b      	lsls	r3, r3, #1
 80024ee:	fa02 f303 	lsl.w	r3, r2, r3
 80024f2:	69ba      	ldr	r2, [r7, #24]
 80024f4:	4313      	orrs	r3, r2
 80024f6:	61bb      	str	r3, [r7, #24]
 80024f8:	687b      	ldr	r3, [r7, #4]
 80024fa:	69ba      	ldr	r2, [r7, #24]
 80024fc:	609a      	str	r2, [r3, #8]
 80024fe:	687b      	ldr	r3, [r7, #4]
 8002500:	685b      	ldr	r3, [r3, #4]
 8002502:	61bb      	str	r3, [r7, #24]
 8002504:	2201      	movs	r2, #1
 8002506:	69fb      	ldr	r3, [r7, #28]
 8002508:	fa02 f303 	lsl.w	r3, r2, r3
 800250c:	43db      	mvns	r3, r3
 800250e:	69ba      	ldr	r2, [r7, #24]
 8002510:	4013      	ands	r3, r2
 8002512:	61bb      	str	r3, [r7, #24]
 8002514:	683b      	ldr	r3, [r7, #0]
 8002516:	685b      	ldr	r3, [r3, #4]
 8002518:	091b      	lsrs	r3, r3, #4
 800251a:	f003 0201 	and.w	r2, r3, #1
 800251e:	69fb      	ldr	r3, [r7, #28]
 8002520:	fa02 f303 	lsl.w	r3, r2, r3
 8002524:	69ba      	ldr	r2, [r7, #24]
 8002526:	4313      	orrs	r3, r2
 8002528:	61bb      	str	r3, [r7, #24]
 800252a:	687b      	ldr	r3, [r7, #4]
 800252c:	69ba      	ldr	r2, [r7, #24]
 800252e:	605a      	str	r2, [r3, #4]
 8002530:	683b      	ldr	r3, [r7, #0]
 8002532:	685b      	ldr	r3, [r3, #4]
 8002534:	f003 0303 	and.w	r3, r3, #3
 8002538:	2b03      	cmp	r3, #3
 800253a:	d017      	beq.n	800256c <HAL_GPIO_Init+0xf0>
 800253c:	687b      	ldr	r3, [r7, #4]
 800253e:	68db      	ldr	r3, [r3, #12]
 8002540:	61bb      	str	r3, [r7, #24]
 8002542:	69fb      	ldr	r3, [r7, #28]
 8002544:	005b      	lsls	r3, r3, #1
 8002546:	2203      	movs	r2, #3
 8002548:	fa02 f303 	lsl.w	r3, r2, r3
 800254c:	43db      	mvns	r3, r3
 800254e:	69ba      	ldr	r2, [r7, #24]
 8002550:	4013      	ands	r3, r2
 8002552:	61bb      	str	r3, [r7, #24]
 8002554:	683b      	ldr	r3, [r7, #0]
 8002556:	689a      	ldr	r2, [r3, #8]
 8002558:	69fb      	ldr	r3, [r7, #28]
 800255a:	005b      	lsls	r3, r3, #1
 800255c:	fa02 f303 	lsl.w	r3, r2, r3
 8002560:	69ba      	ldr	r2, [r7, #24]
 8002562:	4313      	orrs	r3, r2
 8002564:	61bb      	str	r3, [r7, #24]
 8002566:	687b      	ldr	r3, [r7, #4]
 8002568:	69ba      	ldr	r2, [r7, #24]
 800256a:	60da      	str	r2, [r3, #12]
 800256c:	683b      	ldr	r3, [r7, #0]
 800256e:	685b      	ldr	r3, [r3, #4]
 8002570:	f003 0303 	and.w	r3, r3, #3
 8002574:	2b02      	cmp	r3, #2
 8002576:	d123      	bne.n	80025c0 <HAL_GPIO_Init+0x144>
 8002578:	69fb      	ldr	r3, [r7, #28]
 800257a:	08da      	lsrs	r2, r3, #3
 800257c:	687b      	ldr	r3, [r7, #4]
 800257e:	3208      	adds	r2, #8
 8002580:	f853 3022 	ldr.w	r3, [r3, r2, lsl #2]
 8002584:	61bb      	str	r3, [r7, #24]
 8002586:	69fb      	ldr	r3, [r7, #28]
 8002588:	f003 0307 	and.w	r3, r3, #7
 800258c:	009b      	lsls	r3, r3, #2
 800258e:	220f      	movs	r2, #15
 8002590:	fa02 f303 	lsl.w	r3, r2, r3
 8002594:	43db      	mvns	r3, r3
 8002596:	69ba      	ldr	r2, [r7, #24]
 8002598:	4013      	ands	r3, r2
 800259a:	61bb      	str	r3, [r7, #24]
 800259c:	683b      	ldr	r3, [r7, #0]
 800259e:	691a      	ldr	r2, [r3, #16]
 80025a0:	69fb      	ldr	r3, [r7, #28]
 80025a2:	f003 0307 	and.w	r3, r3, #7
 80025a6:	009b      	lsls	r3, r3, #2
 80025a8:	fa02 f303 	lsl.w	r3, r2, r3
 80025ac:	69ba      	ldr	r2, [r7, #24]
 80025ae:	4313      	orrs	r3, r2
 80025b0:	61bb      	str	r3, [r7, #24]
 80025b2:	69fb      	ldr	r3, [r7, #28]
 80025b4:	08da      	lsrs	r2, r3, #3
 80025b6:	687b      	ldr	r3, [r7, #4]
 80025b8:	3208      	adds	r2, #8
 80025ba:	69b9      	ldr	r1, [r7, #24]
 80025bc:	f843 1022 	str.w	r1, [r3, r2, lsl #2]
 80025c0:	687b      	ldr	r3, [r7, #4]
 80025c2:	681b      	ldr	r3, [r3, #0]
 80025c4:	61bb      	str	r3, [r7, #24]
 80025c6:	69fb      	ldr	r3, [r7, #28]
 80025c8:	005b      	lsls	r3, r3, #1
 80025ca:	2203      	movs	r2, #3
 80025cc:	fa02 f303 	lsl.w	r3, r2, r3
 80025d0:	43db      	mvns	r3, r3
 80025d2:	69ba      	ldr	r2, [r7, #24]
 80025d4:	4013      	ands	r3, r2
 80025d6:	61bb      	str	r3, [r7, #24]
 80025d8:	683b      	ldr	r3, [r7, #0]
 80025da:	685b      	ldr	r3, [r3, #4]
 80025dc:	f003 0203 	and.w	r2, r3, #3
 80025e0:	69fb      	ldr	r3, [r7, #28]
 80025e2:	005b      	lsls	r3, r3, #1
 80025e4:	fa02 f303 	lsl.w	r3, r2, r3
 80025e8:	69ba      	ldr	r2, [r7, #24]
 80025ea:	4313      	orrs	r3, r2
 80025ec:	61bb      	str	r3, [r7, #24]
 80025ee:	687b      	ldr	r3, [r7, #4]
 80025f0:	69ba      	ldr	r2, [r7, #24]
 80025f2:	601a      	str	r2, [r3, #0]
 80025f4:	683b      	ldr	r3, [r7, #0]
 80025f6:	685b      	ldr	r3, [r3, #4]
 80025f8:	f403 3340 	and.w	r3, r3, #196608	@ 0x30000
 80025fc:	2b00      	cmp	r3, #0
 80025fe:	f000 80a2 	beq.w	8002746 <HAL_GPIO_Init+0x2ca>
 8002602:	2300      	movs	r3, #0
 8002604:	60fb      	str	r3, [r7, #12]
 8002606:	4b57      	ldr	r3, [pc, #348]	@ (8002764 <HAL_GPIO_Init+0x2e8>)
 8002608:	6c5b      	ldr	r3, [r3, #68]	@ 0x44
 800260a:	4a56      	ldr	r2, [pc, #344]	@ (8002764 <HAL_GPIO_Init+0x2e8>)
 800260c:	f443 4380 	orr.w	r3, r3, #16384	@ 0x4000
 8002610:	6453      	str	r3, [r2, #68]	@ 0x44
 8002612:	4b54      	ldr	r3, [pc, #336]	@ (8002764 <HAL_GPIO_Init+0x2e8>)
 8002614:	6c5b      	ldr	r3, [r3, #68]	@ 0x44
 8002616:	f403 4380 	and.w	r3, r3, #16384	@ 0x4000
 800261a:	60fb      	str	r3, [r7, #12]
 800261c:	68fb      	ldr	r3, [r7, #12]
 800261e:	4a52      	ldr	r2, [pc, #328]	@ (8002768 <HAL_GPIO_Init+0x2ec>)
 8002620:	69fb      	ldr	r3, [r7, #28]
 8002622:	089b      	lsrs	r3, r3, #2
 8002624:	3302      	adds	r3, #2
 8002626:	f852 3023 	ldr.w	r3, [r2, r3, lsl #2]
 800262a:	61bb      	str	r3, [r7, #24]
 800262c:	69fb      	ldr	r3, [r7, #28]
 800262e:	f003 0303 	and.w	r3, r3, #3
 8002632:	009b      	lsls	r3, r3, #2
 8002634:	220f      	movs	r2, #15
 8002636:	fa02 f303 	lsl.w	r3, r2, r3
 800263a:	43db      	mvns	r3, r3
 800263c:	69ba      	ldr	r2, [r7, #24]
 800263e:	4013      	ands	r3, r2
 8002640:	61bb      	str	r3, [r7, #24]
 8002642:	687b      	ldr	r3, [r7, #4]
 8002644:	4a49      	ldr	r2, [pc, #292]	@ (800276c <HAL_GPIO_Init+0x2f0>)
 8002646:	4293      	cmp	r3, r2
 8002648:	d019      	beq.n	800267e <HAL_GPIO_Init+0x202>
 800264a:	687b      	ldr	r3, [r7, #4]
 800264c:	4a48      	ldr	r2, [pc, #288]	@ (8002770 <HAL_GPIO_Init+0x2f4>)
 800264e:	4293      	cmp	r3, r2
 8002650:	d013      	beq.n	800267a <HAL_GPIO_Init+0x1fe>
 8002652:	687b      	ldr	r3, [r7, #4]
 8002654:	4a47      	ldr	r2, [pc, #284]	@ (8002774 <HAL_GPIO_Init+0x2f8>)
 8002656:	4293      	cmp	r3, r2
 8002658:	d00d      	beq.n	8002676 <HAL_GPIO_Init+0x1fa>
 800265a:	687b      	ldr	r3, [r7, #4]
 800265c:	4a46      	ldr	r2, [pc, #280]	@ (8002778 <HAL_GPIO_Init+0x2fc>)
 800265e:	4293      	cmp	r3, r2
 8002660:	d007      	beq.n	8002672 <HAL_GPIO_Init+0x1f6>
 8002662:	687b      	ldr	r3, [r7, #4]
 8002664:	4a45      	ldr	r2, [pc, #276]	@ (800277c <HAL_GPIO_Init+0x300>)
 8002666:	4293      	cmp	r3, r2
 8002668:	d101      	bne.n	800266e <HAL_GPIO_Init+0x1f2>
 800266a:	2304      	movs	r3, #4
 800266c:	e008      	b.n	8002680 <HAL_GPIO_Init+0x204>
 800266e:	2307      	movs	r3, #7
 8002670:	e006      	b.n	8002680 <HAL_GPIO_Init+0x204>
 8002672:	2303      	movs	r3, #3
 8002674:	e004      	b.n	8002680 <HAL_GPIO_Init+0x204>
 8002676:	2302      	movs	r3, #2
 8002678:	e002      	b.n	8002680 <HAL_GPIO_Init+0x204>
 800267a:	2301      	movs	r3, #1
 800267c:	e000      	b.n	8002680 <HAL_GPIO_Init+0x204>
 800267e:	2300      	movs	r3, #0
 8002680:	69fa      	ldr	r2, [r7, #28]
 8002682:	f002 0203 	and.w	r2, r2, #3
 8002686:	0092      	lsls	r2, r2, #2
 8002688:	4093      	lsls	r3, r2
 800268a:	69ba      	ldr	r2, [r7, #24]
 800268c:	4313      	orrs	r3, r2
 800268e:	61bb      	str	r3, [r7, #24]
 8002690:	4935      	ldr	r1, [pc, #212]	@ (8002768 <HAL_GPIO_Init+0x2ec>)
 8002692:	69fb      	ldr	r3, [r7, #28]
 8002694:	089b      	lsrs	r3, r3, #2
 8002696:	3302      	adds	r3, #2
 8002698:	69ba      	ldr	r2, [r7, #24]
 800269a:	f841 2023 	str.w	r2, [r1, r3, lsl #2]
 800269e:	4b38      	ldr	r3, [pc, #224]	@ (8002780 <HAL_GPIO_Init+0x304>)
 80026a0:	689b      	ldr	r3, [r3, #8]
 80026a2:	61bb      	str	r3, [r7, #24]
 80026a4:	693b      	ldr	r3, [r7, #16]
 80026a6:	43db      	mvns	r3, r3
 80026a8:	69ba      	ldr	r2, [r7, #24]
 80026aa:	4013      	ands	r3, r2
 80026ac:	61bb      	str	r3, [r7, #24]
 80026ae:	683b      	ldr	r3, [r7, #0]
 80026b0:	685b      	ldr	r3, [r3, #4]
 80026b2:	f403 1380 	and.w	r3, r3, #1048576	@ 0x100000
 80026b6:	2b00      	cmp	r3, #0
 80026b8:	d003      	beq.n	80026c2 <HAL_GPIO_Init+0x246>
 80026ba:	69ba      	ldr	r2, [r7, #24]
 80026bc:	693b      	ldr	r3, [r7, #16]
 80026be:	4313      	orrs	r3, r2
 80026c0:	61bb      	str	r3, [r7, #24]
 80026c2:	4a2f      	ldr	r2, [pc, #188]	@ (8002780 <HAL_GPIO_Init+0x304>)
 80026c4:	69bb      	ldr	r3, [r7, #24]
 80026c6:	6093      	str	r3, [r2, #8]
 80026c8:	4b2d      	ldr	r3, [pc, #180]	@ (8002780 <HAL_GPIO_Init+0x304>)
 80026ca:	68db      	ldr	r3, [r3, #12]
 80026cc:	61bb      	str	r3, [r7, #24]
 80026ce:	693b      	ldr	r3, [r7, #16]
 80026d0:	43db      	mvns	r3, r3
 80026d2:	69ba      	ldr	r2, [r7, #24]
 80026d4:	4013      	ands	r3, r2
 80026d6:	61bb      	str	r3, [r7, #24]
 80026d8:	683b      	ldr	r3, [r7, #0]
 80026da:	685b      	ldr	r3, [r3, #4]
 80026dc:	f403 1300 	and.w	r3, r3, #2097152	@ 0x200000
 80026e0:	2b00      	cmp	r3, #0
 80026e2:	d003      	beq.n	80026ec <HAL_GPIO_Init+0x270>
 80026e4:	69ba      	ldr	r2, [r7, #24]
 80026e6:	693b      	ldr	r3, [r7, #16]
 80026e8:	4313      	orrs	r3, r2
 80026ea:	61bb      	str	r3, [r7, #24]
 80026ec:	4a24      	ldr	r2, [pc, #144]	@ (8002780 <HAL_GPIO_Init+0x304>)
 80026ee:	69bb      	ldr	r3, [r7, #24]
 80026f0:	60d3      	str	r3, [r2, #12]
 80026f2:	4b23      	ldr	r3, [pc, #140]	@ (8002780 <HAL_GPIO_Init+0x304>)
 80026f4:	685b      	ldr	r3, [r3, #4]
 80026f6:	61bb      	str	r3, [r7, #24]
 80026f8:	693b      	ldr	r3, [r7, #16]
 80026fa:	43db      	mvns	r3, r3
 80026fc:	69ba      	ldr	r2, [r7, #24]
 80026fe:	4013      	ands	r3, r2
 8002700:	61bb      	str	r3, [r7, #24]
 8002702:	683b      	ldr	r3, [r7, #0]
 8002704:	685b      	ldr	r3, [r3, #4]
 8002706:	f403 3300 	and.w	r3, r3, #131072	@ 0x20000
 800270a:	2b00      	cmp	r3, #0
 800270c:	d003      	beq.n	8002716 <HAL_GPIO_Init+0x29a>
 800270e:	69ba      	ldr	r2, [r7, #24]
 8002710:	693b      	ldr	r3, [r7, #16]
 8002712:	4313      	orrs	r3, r2
 8002714:	61bb      	str	r3, [r7, #24]
 8002716:	4a1a      	ldr	r2, [pc, #104]	@ (8002780 <HAL_GPIO_Init+0x304>)
 8002718:	69bb      	ldr	r3, [r7, #24]
 800271a:	6053      	str	r3, [r2, #4]
 800271c:	4b18      	ldr	r3, [pc, #96]	@ (8002780 <HAL_GPIO_Init+0x304>)
 800271e:	681b      	ldr	r3, [r3, #0]
 8002720:	61bb      	str	r3, [r7, #24]
 8002722:	693b      	ldr	r3, [r7, #16]
 8002724:	43db      	mvns	r3, r3
 8002726:	69ba      	ldr	r2, [r7, #24]
 8002728:	4013      	ands	r3, r2
 800272a:	61bb      	str	r3, [r7, #24]
 800272c:	683b      	ldr	r3, [r7, #0]
 800272e:	685b      	ldr	r3, [r3, #4]
 8002730:	f403 3380 	and.w	r3, r3, #65536	@ 0x10000
 8002734:	2b00      	cmp	r3, #0
 8002736:	d003      	beq.n	8002740 <HAL_GPIO_Init+0x2c4>
 8002738:	69ba      	ldr	r2, [r7, #24]
 800273a:	693b      	ldr	r3, [r7, #16]
 800273c:	4313      	orrs	r3, r2
 800273e:	61bb      	str	r3, [r7, #24]
 8002740:	4a0f      	ldr	r2, [pc, #60]	@ (8002780 <HAL_GPIO_Init+0x304>)
 8002742:	69bb      	ldr	r3, [r7, #24]
 8002744:	6013      	str	r3, [r2, #0]
 8002746:	69fb      	ldr	r3, [r7, #28]
 8002748:	3301      	adds	r3, #1
 800274a:	61fb      	str	r3, [r7, #28]
 800274c:	69fb      	ldr	r3, [r7, #28]
 800274e:	2b0f      	cmp	r3, #15
 8002750:	f67f aea2 	bls.w	8002498 <HAL_GPIO_Init+0x1c>
 8002754:	bf00      	nop
 8002756:	bf00      	nop
 8002758:	3724      	adds	r7, #36	@ 0x24
 800275a:	46bd      	mov	sp, r7
 800275c:	f85d 7b04 	ldr.w	r7, [sp], #4
 8002760:	4770      	bx	lr
 8002762:	bf00      	nop
 8002764:	40023800 	.word	0x40023800
 8002768:	40013800 	.word	0x40013800
 800276c:	40020000 	.word	0x40020000
 8002770:	40020400 	.word	0x40020400
 8002774:	40020800 	.word	0x40020800
 8002778:	40020c00 	.word	0x40020c00
 800277c:	40021000 	.word	0x40021000
 8002780:	40013c00 	.word	0x40013c00

08002784 <HAL_GPIO_WritePin>:
 8002784:	b480      	push	{r7}
 8002786:	b083      	sub	sp, #12
 8002788:	af00      	add	r7, sp, #0
 800278a:	6078      	str	r0, [r7, #4]
 800278c:	460b      	mov	r3, r1
 800278e:	807b      	strh	r3, [r7, #2]
 8002790:	4613      	mov	r3, r2
 8002792:	707b      	strb	r3, [r7, #1]
 8002794:	787b      	ldrb	r3, [r7, #1]
 8002796:	2b00      	cmp	r3, #0
 8002798:	d003      	beq.n	80027a2 <HAL_GPIO_WritePin+0x1e>
 800279a:	887a      	ldrh	r2, [r7, #2]
 800279c:	687b      	ldr	r3, [r7, #4]
 800279e:	619a      	str	r2, [r3, #24]
 80027a0:	e003      	b.n	80027aa <HAL_GPIO_WritePin+0x26>
 80027a2:	887b      	ldrh	r3, [r7, #2]
 80027a4:	041a      	lsls	r2, r3, #16
 80027a6:	687b      	ldr	r3, [r7, #4]
 80027a8:	619a      	str	r2, [r3, #24]
 80027aa:	bf00      	nop
 80027ac:	370c      	adds	r7, #12
 80027ae:	46bd      	mov	sp, r7
 80027b0:	f85d 7b04 	ldr.w	r7, [sp], #4
 80027b4:	4770      	bx	lr
	...

080027b8 <HAL_RCC_OscConfig>:
 80027b8:	b580      	push	{r7, lr}
 80027ba:	b086      	sub	sp, #24
 80027bc:	af00      	add	r7, sp, #0
 80027be:	6078      	str	r0, [r7, #4]
 80027c0:	687b      	ldr	r3, [r7, #4]
 80027c2:	2b00      	cmp	r3, #0
 80027c4:	d101      	bne.n	80027ca <HAL_RCC_OscConfig+0x12>
 80027c6:	2301      	movs	r3, #1
 80027c8:	e267      	b.n	8002c9a <HAL_RCC_OscConfig+0x4e2>
 80027ca:	687b      	ldr	r3, [r7, #4]
 80027cc:	681b      	ldr	r3, [r3, #0]
 80027ce:	f003 0301 	and.w	r3, r3, #1
 80027d2:	2b00      	cmp	r3, #0
 80027d4:	d075      	beq.n	80028c2 <HAL_RCC_OscConfig+0x10a>
 80027d6:	4b88      	ldr	r3, [pc, #544]	@ (80029f8 <HAL_RCC_OscConfig+0x240>)
 80027d8:	689b      	ldr	r3, [r3, #8]
 80027da:	f003 030c 	and.w	r3, r3, #12
 80027de:	2b04      	cmp	r3, #4
 80027e0:	d00c      	beq.n	80027fc <HAL_RCC_OscConfig+0x44>
 80027e2:	4b85      	ldr	r3, [pc, #532]	@ (80029f8 <HAL_RCC_OscConfig+0x240>)
 80027e4:	689b      	ldr	r3, [r3, #8]
 80027e6:	f003 030c 	and.w	r3, r3, #12
 80027ea:	2b08      	cmp	r3, #8
 80027ec:	d112      	bne.n	8002814 <HAL_RCC_OscConfig+0x5c>
 80027ee:	4b82      	ldr	r3, [pc, #520]	@ (80029f8 <HAL_RCC_OscConfig+0x240>)
 80027f0:	685b      	ldr	r3, [r3, #4]
 80027f2:	f403 0380 	and.w	r3, r3, #4194304	@ 0x400000
 80027f6:	f5b3 0f80 	cmp.w	r3, #4194304	@ 0x400000
 80027fa:	d10b      	bne.n	8002814 <HAL_RCC_OscConfig+0x5c>
 80027fc:	4b7e      	ldr	r3, [pc, #504]	@ (80029f8 <HAL_RCC_OscConfig+0x240>)
 80027fe:	681b      	ldr	r3, [r3, #0]
 8002800:	f403 3300 	and.w	r3, r3, #131072	@ 0x20000
 8002804:	2b00      	cmp	r3, #0
 8002806:	d05b      	beq.n	80028c0 <HAL_RCC_OscConfig+0x108>
 8002808:	687b      	ldr	r3, [r7, #4]
 800280a:	685b      	ldr	r3, [r3, #4]
 800280c:	2b00      	cmp	r3, #0
 800280e:	d157      	bne.n	80028c0 <HAL_RCC_OscConfig+0x108>
 8002810:	2301      	movs	r3, #1
 8002812:	e242      	b.n	8002c9a <HAL_RCC_OscConfig+0x4e2>
 8002814:	687b      	ldr	r3, [r7, #4]
 8002816:	685b      	ldr	r3, [r3, #4]
 8002818:	f5b3 3f80 	cmp.w	r3, #65536	@ 0x10000
 800281c:	d106      	bne.n	800282c <HAL_RCC_OscConfig+0x74>
 800281e:	4b76      	ldr	r3, [pc, #472]	@ (80029f8 <HAL_RCC_OscConfig+0x240>)
 8002820:	681b      	ldr	r3, [r3, #0]
 8002822:	4a75      	ldr	r2, [pc, #468]	@ (80029f8 <HAL_RCC_OscConfig+0x240>)
 8002824:	f443 3380 	orr.w	r3, r3, #65536	@ 0x10000
 8002828:	6013      	str	r3, [r2, #0]
 800282a:	e01d      	b.n	8002868 <HAL_RCC_OscConfig+0xb0>
 800282c:	687b      	ldr	r3, [r7, #4]
 800282e:	685b      	ldr	r3, [r3, #4]
 8002830:	f5b3 2fa0 	cmp.w	r3, #327680	@ 0x50000
 8002834:	d10c      	bne.n	8002850 <HAL_RCC_OscConfig+0x98>
 8002836:	4b70      	ldr	r3, [pc, #448]	@ (80029f8 <HAL_RCC_OscConfig+0x240>)
 8002838:	681b      	ldr	r3, [r3, #0]
 800283a:	4a6f      	ldr	r2, [pc, #444]	@ (80029f8 <HAL_RCC_OscConfig+0x240>)
 800283c:	f443 2380 	orr.w	r3, r3, #262144	@ 0x40000
 8002840:	6013      	str	r3, [r2, #0]
 8002842:	4b6d      	ldr	r3, [pc, #436]	@ (80029f8 <HAL_RCC_OscConfig+0x240>)
 8002844:	681b      	ldr	r3, [r3, #0]
 8002846:	4a6c      	ldr	r2, [pc, #432]	@ (80029f8 <HAL_RCC_OscConfig+0x240>)
 8002848:	f443 3380 	orr.w	r3, r3, #65536	@ 0x10000
 800284c:	6013      	str	r3, [r2, #0]
 800284e:	e00b      	b.n	8002868 <HAL_RCC_OscConfig+0xb0>
 8002850:	4b69      	ldr	r3, [pc, #420]	@ (80029f8 <HAL_RCC_OscConfig+0x240>)
 8002852:	681b      	ldr	r3, [r3, #0]
 8002854:	4a68      	ldr	r2, [pc, #416]	@ (80029f8 <HAL_RCC_OscConfig+0x240>)
 8002856:	f423 3380 	bic.w	r3, r3, #65536	@ 0x10000
 800285a:	6013      	str	r3, [r2, #0]
 800285c:	4b66      	ldr	r3, [pc, #408]	@ (80029f8 <HAL_RCC_OscConfig+0x240>)
 800285e:	681b      	ldr	r3, [r3, #0]
 8002860:	4a65      	ldr	r2, [pc, #404]	@ (80029f8 <HAL_RCC_OscConfig+0x240>)
 8002862:	f423 2380 	bic.w	r3, r3, #262144	@ 0x40000
 8002866:	6013      	str	r3, [r2, #0]
 8002868:	687b      	ldr	r3, [r7, #4]
 800286a:	685b      	ldr	r3, [r3, #4]
 800286c:	2b00      	cmp	r3, #0
 800286e:	d013      	beq.n	8002898 <HAL_RCC_OscConfig+0xe0>
 8002870:	f7ff f90c 	bl	8001a8c <HAL_GetTick>
 8002874:	6138      	str	r0, [r7, #16]
 8002876:	e008      	b.n	800288a <HAL_RCC_OscConfig+0xd2>
 8002878:	f7ff f908 	bl	8001a8c <HAL_GetTick>
 800287c:	4602      	mov	r2, r0
 800287e:	693b      	ldr	r3, [r7, #16]
 8002880:	1ad3      	subs	r3, r2, r3
 8002882:	2b64      	cmp	r3, #100	@ 0x64
 8002884:	d901      	bls.n	800288a <HAL_RCC_OscConfig+0xd2>
 8002886:	2303      	movs	r3, #3
 8002888:	e207      	b.n	8002c9a <HAL_RCC_OscConfig+0x4e2>
 800288a:	4b5b      	ldr	r3, [pc, #364]	@ (80029f8 <HAL_RCC_OscConfig+0x240>)
 800288c:	681b      	ldr	r3, [r3, #0]
 800288e:	f403 3300 	and.w	r3, r3, #131072	@ 0x20000
 8002892:	2b00      	cmp	r3, #0
 8002894:	d0f0      	beq.n	8002878 <HAL_RCC_OscConfig+0xc0>
 8002896:	e014      	b.n	80028c2 <HAL_RCC_OscConfig+0x10a>
 8002898:	f7ff f8f8 	bl	8001a8c <HAL_GetTick>
 800289c:	6138      	str	r0, [r7, #16]
 800289e:	e008      	b.n	80028b2 <HAL_RCC_OscConfig+0xfa>
 80028a0:	f7ff f8f4 	bl	8001a8c <HAL_GetTick>
 80028a4:	4602      	mov	r2, r0
 80028a6:	693b      	ldr	r3, [r7, #16]
 80028a8:	1ad3      	subs	r3, r2, r3
 80028aa:	2b64      	cmp	r3, #100	@ 0x64
 80028ac:	d901      	bls.n	80028b2 <HAL_RCC_OscConfig+0xfa>
 80028ae:	2303      	movs	r3, #3
 80028b0:	e1f3      	b.n	8002c9a <HAL_RCC_OscConfig+0x4e2>
 80028b2:	4b51      	ldr	r3, [pc, #324]	@ (80029f8 <HAL_RCC_OscConfig+0x240>)
 80028b4:	681b      	ldr	r3, [r3, #0]
 80028b6:	f403 3300 	and.w	r3, r3, #131072	@ 0x20000
 80028ba:	2b00      	cmp	r3, #0
 80028bc:	d1f0      	bne.n	80028a0 <HAL_RCC_OscConfig+0xe8>
 80028be:	e000      	b.n	80028c2 <HAL_RCC_OscConfig+0x10a>
 80028c0:	bf00      	nop
 80028c2:	687b      	ldr	r3, [r7, #4]
 80028c4:	681b      	ldr	r3, [r3, #0]
 80028c6:	f003 0302 	and.w	r3, r3, #2
 80028ca:	2b00      	cmp	r3, #0
 80028cc:	d063      	beq.n	8002996 <HAL_RCC_OscConfig+0x1de>
 80028ce:	4b4a      	ldr	r3, [pc, #296]	@ (80029f8 <HAL_RCC_OscConfig+0x240>)
 80028d0:	689b      	ldr	r3, [r3, #8]
 80028d2:	f003 030c 	and.w	r3, r3, #12
 80028d6:	2b00      	cmp	r3, #0
 80028d8:	d00b      	beq.n	80028f2 <HAL_RCC_OscConfig+0x13a>
 80028da:	4b47      	ldr	r3, [pc, #284]	@ (80029f8 <HAL_RCC_OscConfig+0x240>)
 80028dc:	689b      	ldr	r3, [r3, #8]
 80028de:	f003 030c 	and.w	r3, r3, #12
 80028e2:	2b08      	cmp	r3, #8
 80028e4:	d11c      	bne.n	8002920 <HAL_RCC_OscConfig+0x168>
 80028e6:	4b44      	ldr	r3, [pc, #272]	@ (80029f8 <HAL_RCC_OscConfig+0x240>)
 80028e8:	685b      	ldr	r3, [r3, #4]
 80028ea:	f403 0380 	and.w	r3, r3, #4194304	@ 0x400000
 80028ee:	2b00      	cmp	r3, #0
 80028f0:	d116      	bne.n	8002920 <HAL_RCC_OscConfig+0x168>
 80028f2:	4b41      	ldr	r3, [pc, #260]	@ (80029f8 <HAL_RCC_OscConfig+0x240>)
 80028f4:	681b      	ldr	r3, [r3, #0]
 80028f6:	f003 0302 	and.w	r3, r3, #2
 80028fa:	2b00      	cmp	r3, #0
 80028fc:	d005      	beq.n	800290a <HAL_RCC_OscConfig+0x152>
 80028fe:	687b      	ldr	r3, [r7, #4]
 8002900:	68db      	ldr	r3, [r3, #12]
 8002902:	2b01      	cmp	r3, #1
 8002904:	d001      	beq.n	800290a <HAL_RCC_OscConfig+0x152>
 8002906:	2301      	movs	r3, #1
 8002908:	e1c7      	b.n	8002c9a <HAL_RCC_OscConfig+0x4e2>
 800290a:	4b3b      	ldr	r3, [pc, #236]	@ (80029f8 <HAL_RCC_OscConfig+0x240>)
 800290c:	681b      	ldr	r3, [r3, #0]
 800290e:	f023 02f8 	bic.w	r2, r3, #248	@ 0xf8
 8002912:	687b      	ldr	r3, [r7, #4]
 8002914:	691b      	ldr	r3, [r3, #16]
 8002916:	00db      	lsls	r3, r3, #3
 8002918:	4937      	ldr	r1, [pc, #220]	@ (80029f8 <HAL_RCC_OscConfig+0x240>)
 800291a:	4313      	orrs	r3, r2
 800291c:	600b      	str	r3, [r1, #0]
 800291e:	e03a      	b.n	8002996 <HAL_RCC_OscConfig+0x1de>
 8002920:	687b      	ldr	r3, [r7, #4]
 8002922:	68db      	ldr	r3, [r3, #12]
 8002924:	2b00      	cmp	r3, #0
 8002926:	d020      	beq.n	800296a <HAL_RCC_OscConfig+0x1b2>
 8002928:	4b34      	ldr	r3, [pc, #208]	@ (80029fc <HAL_RCC_OscConfig+0x244>)
 800292a:	2201      	movs	r2, #1
 800292c:	601a      	str	r2, [r3, #0]
 800292e:	f7ff f8ad 	bl	8001a8c <HAL_GetTick>
 8002932:	6138      	str	r0, [r7, #16]
 8002934:	e008      	b.n	8002948 <HAL_RCC_OscConfig+0x190>
 8002936:	f7ff f8a9 	bl	8001a8c <HAL_GetTick>
 800293a:	4602      	mov	r2, r0
 800293c:	693b      	ldr	r3, [r7, #16]
 800293e:	1ad3      	subs	r3, r2, r3
 8002940:	2b02      	cmp	r3, #2
 8002942:	d901      	bls.n	8002948 <HAL_RCC_OscConfig+0x190>
 8002944:	2303      	movs	r3, #3
 8002946:	e1a8      	b.n	8002c9a <HAL_RCC_OscConfig+0x4e2>
 8002948:	4b2b      	ldr	r3, [pc, #172]	@ (80029f8 <HAL_RCC_OscConfig+0x240>)
 800294a:	681b      	ldr	r3, [r3, #0]
 800294c:	f003 0302 	and.w	r3, r3, #2
 8002950:	2b00      	cmp	r3, #0
 8002952:	d0f0      	beq.n	8002936 <HAL_RCC_OscConfig+0x17e>
 8002954:	4b28      	ldr	r3, [pc, #160]	@ (80029f8 <HAL_RCC_OscConfig+0x240>)
 8002956:	681b      	ldr	r3, [r3, #0]
 8002958:	f023 02f8 	bic.w	r2, r3, #248	@ 0xf8
 800295c:	687b      	ldr	r3, [r7, #4]
 800295e:	691b      	ldr	r3, [r3, #16]
 8002960:	00db      	lsls	r3, r3, #3
 8002962:	4925      	ldr	r1, [pc, #148]	@ (80029f8 <HAL_RCC_OscConfig+0x240>)
 8002964:	4313      	orrs	r3, r2
 8002966:	600b      	str	r3, [r1, #0]
 8002968:	e015      	b.n	8002996 <HAL_RCC_OscConfig+0x1de>
 800296a:	4b24      	ldr	r3, [pc, #144]	@ (80029fc <HAL_RCC_OscConfig+0x244>)
 800296c:	2200      	movs	r2, #0
 800296e:	601a      	str	r2, [r3, #0]
 8002970:	f7ff f88c 	bl	8001a8c <HAL_GetTick>
 8002974:	6138      	str	r0, [r7, #16]
 8002976:	e008      	b.n	800298a <HAL_RCC_OscConfig+0x1d2>
 8002978:	f7ff f888 	bl	8001a8c <HAL_GetTick>
 800297c:	4602      	mov	r2, r0
 800297e:	693b      	ldr	r3, [r7, #16]
 8002980:	1ad3      	subs	r3, r2, r3
 8002982:	2b02      	cmp	r3, #2
 8002984:	d901      	bls.n	800298a <HAL_RCC_OscConfig+0x1d2>
 8002986:	2303      	movs	r3, #3
 8002988:	e187      	b.n	8002c9a <HAL_RCC_OscConfig+0x4e2>
 800298a:	4b1b      	ldr	r3, [pc, #108]	@ (80029f8 <HAL_RCC_OscConfig+0x240>)
 800298c:	681b      	ldr	r3, [r3, #0]
 800298e:	f003 0302 	and.w	r3, r3, #2
 8002992:	2b00      	cmp	r3, #0
 8002994:	d1f0      	bne.n	8002978 <HAL_RCC_OscConfig+0x1c0>
 8002996:	687b      	ldr	r3, [r7, #4]
 8002998:	681b      	ldr	r3, [r3, #0]
 800299a:	f003 0308 	and.w	r3, r3, #8
 800299e:	2b00      	cmp	r3, #0
 80029a0:	d036      	beq.n	8002a10 <HAL_RCC_OscConfig+0x258>
 80029a2:	687b      	ldr	r3, [r7, #4]
 80029a4:	695b      	ldr	r3, [r3, #20]
 80029a6:	2b00      	cmp	r3, #0
 80029a8:	d016      	beq.n	80029d8 <HAL_RCC_OscConfig+0x220>
 80029aa:	4b15      	ldr	r3, [pc, #84]	@ (8002a00 <HAL_RCC_OscConfig+0x248>)
 80029ac:	2201      	movs	r2, #1
 80029ae:	601a      	str	r2, [r3, #0]
 80029b0:	f7ff f86c 	bl	8001a8c <HAL_GetTick>
 80029b4:	6138      	str	r0, [r7, #16]
 80029b6:	e008      	b.n	80029ca <HAL_RCC_OscConfig+0x212>
 80029b8:	f7ff f868 	bl	8001a8c <HAL_GetTick>
 80029bc:	4602      	mov	r2, r0
 80029be:	693b      	ldr	r3, [r7, #16]
 80029c0:	1ad3      	subs	r3, r2, r3
 80029c2:	2b02      	cmp	r3, #2
 80029c4:	d901      	bls.n	80029ca <HAL_RCC_OscConfig+0x212>
 80029c6:	2303      	movs	r3, #3
 80029c8:	e167      	b.n	8002c9a <HAL_RCC_OscConfig+0x4e2>
 80029ca:	4b0b      	ldr	r3, [pc, #44]	@ (80029f8 <HAL_RCC_OscConfig+0x240>)
 80029cc:	6f5b      	ldr	r3, [r3, #116]	@ 0x74
 80029ce:	f003 0302 	and.w	r3, r3, #2
 80029d2:	2b00      	cmp	r3, #0
 80029d4:	d0f0      	beq.n	80029b8 <HAL_RCC_OscConfig+0x200>
 80029d6:	e01b      	b.n	8002a10 <HAL_RCC_OscConfig+0x258>
 80029d8:	4b09      	ldr	r3, [pc, #36]	@ (8002a00 <HAL_RCC_OscConfig+0x248>)
 80029da:	2200      	movs	r2, #0
 80029dc:	601a      	str	r2, [r3, #0]
 80029de:	f7ff f855 	bl	8001a8c <HAL_GetTick>
 80029e2:	6138      	str	r0, [r7, #16]
 80029e4:	e00e      	b.n	8002a04 <HAL_RCC_OscConfig+0x24c>
 80029e6:	f7ff f851 	bl	8001a8c <HAL_GetTick>
 80029ea:	4602      	mov	r2, r0
 80029ec:	693b      	ldr	r3, [r7, #16]
 80029ee:	1ad3      	subs	r3, r2, r3
 80029f0:	2b02      	cmp	r3, #2
 80029f2:	d907      	bls.n	8002a04 <HAL_RCC_OscConfig+0x24c>
 80029f4:	2303      	movs	r3, #3
 80029f6:	e150      	b.n	8002c9a <HAL_RCC_OscConfig+0x4e2>
 80029f8:	40023800 	.word	0x40023800
 80029fc:	42470000 	.word	0x42470000
 8002a00:	42470e80 	.word	0x42470e80
 8002a04:	4b88      	ldr	r3, [pc, #544]	@ (8002c28 <HAL_RCC_OscConfig+0x470>)
 8002a06:	6f5b      	ldr	r3, [r3, #116]	@ 0x74
 8002a08:	f003 0302 	and.w	r3, r3, #2
 8002a0c:	2b00      	cmp	r3, #0
 8002a0e:	d1ea      	bne.n	80029e6 <HAL_RCC_OscConfig+0x22e>
 8002a10:	687b      	ldr	r3, [r7, #4]
 8002a12:	681b      	ldr	r3, [r3, #0]
 8002a14:	f003 0304 	and.w	r3, r3, #4
 8002a18:	2b00      	cmp	r3, #0
 8002a1a:	f000 8097 	beq.w	8002b4c <HAL_RCC_OscConfig+0x394>
 8002a1e:	2300      	movs	r3, #0
 8002a20:	75fb      	strb	r3, [r7, #23]
 8002a22:	4b81      	ldr	r3, [pc, #516]	@ (8002c28 <HAL_RCC_OscConfig+0x470>)
 8002a24:	6c1b      	ldr	r3, [r3, #64]	@ 0x40
 8002a26:	f003 5380 	and.w	r3, r3, #268435456	@ 0x10000000
 8002a2a:	2b00      	cmp	r3, #0
 8002a2c:	d10f      	bne.n	8002a4e <HAL_RCC_OscConfig+0x296>
 8002a2e:	2300      	movs	r3, #0
 8002a30:	60bb      	str	r3, [r7, #8]
 8002a32:	4b7d      	ldr	r3, [pc, #500]	@ (8002c28 <HAL_RCC_OscConfig+0x470>)
 8002a34:	6c1b      	ldr	r3, [r3, #64]	@ 0x40
 8002a36:	4a7c      	ldr	r2, [pc, #496]	@ (8002c28 <HAL_RCC_OscConfig+0x470>)
 8002a38:	f043 5380 	orr.w	r3, r3, #268435456	@ 0x10000000
 8002a3c:	6413      	str	r3, [r2, #64]	@ 0x40
 8002a3e:	4b7a      	ldr	r3, [pc, #488]	@ (8002c28 <HAL_RCC_OscConfig+0x470>)
 8002a40:	6c1b      	ldr	r3, [r3, #64]	@ 0x40
 8002a42:	f003 5380 	and.w	r3, r3, #268435456	@ 0x10000000
 8002a46:	60bb      	str	r3, [r7, #8]
 8002a48:	68bb      	ldr	r3, [r7, #8]
 8002a4a:	2301      	movs	r3, #1
 8002a4c:	75fb      	strb	r3, [r7, #23]
 8002a4e:	4b77      	ldr	r3, [pc, #476]	@ (8002c2c <HAL_RCC_OscConfig+0x474>)
 8002a50:	681b      	ldr	r3, [r3, #0]
 8002a52:	f403 7380 	and.w	r3, r3, #256	@ 0x100
 8002a56:	2b00      	cmp	r3, #0
 8002a58:	d118      	bne.n	8002a8c <HAL_RCC_OscConfig+0x2d4>
 8002a5a:	4b74      	ldr	r3, [pc, #464]	@ (8002c2c <HAL_RCC_OscConfig+0x474>)
 8002a5c:	681b      	ldr	r3, [r3, #0]
 8002a5e:	4a73      	ldr	r2, [pc, #460]	@ (8002c2c <HAL_RCC_OscConfig+0x474>)
 8002a60:	f443 7380 	orr.w	r3, r3, #256	@ 0x100
 8002a64:	6013      	str	r3, [r2, #0]
 8002a66:	f7ff f811 	bl	8001a8c <HAL_GetTick>
 8002a6a:	6138      	str	r0, [r7, #16]
 8002a6c:	e008      	b.n	8002a80 <HAL_RCC_OscConfig+0x2c8>
 8002a6e:	f7ff f80d 	bl	8001a8c <HAL_GetTick>
 8002a72:	4602      	mov	r2, r0
 8002a74:	693b      	ldr	r3, [r7, #16]
 8002a76:	1ad3      	subs	r3, r2, r3
 8002a78:	2b02      	cmp	r3, #2
 8002a7a:	d901      	bls.n	8002a80 <HAL_RCC_OscConfig+0x2c8>
 8002a7c:	2303      	movs	r3, #3
 8002a7e:	e10c      	b.n	8002c9a <HAL_RCC_OscConfig+0x4e2>
 8002a80:	4b6a      	ldr	r3, [pc, #424]	@ (8002c2c <HAL_RCC_OscConfig+0x474>)
 8002a82:	681b      	ldr	r3, [r3, #0]
 8002a84:	f403 7380 	and.w	r3, r3, #256	@ 0x100
 8002a88:	2b00      	cmp	r3, #0
 8002a8a:	d0f0      	beq.n	8002a6e <HAL_RCC_OscConfig+0x2b6>
 8002a8c:	687b      	ldr	r3, [r7, #4]
 8002a8e:	689b      	ldr	r3, [r3, #8]
 8002a90:	2b01      	cmp	r3, #1
 8002a92:	d106      	bne.n	8002aa2 <HAL_RCC_OscConfig+0x2ea>
 8002a94:	4b64      	ldr	r3, [pc, #400]	@ (8002c28 <HAL_RCC_OscConfig+0x470>)
 8002a96:	6f1b      	ldr	r3, [r3, #112]	@ 0x70
 8002a98:	4a63      	ldr	r2, [pc, #396]	@ (8002c28 <HAL_RCC_OscConfig+0x470>)
 8002a9a:	f043 0301 	orr.w	r3, r3, #1
 8002a9e:	6713      	str	r3, [r2, #112]	@ 0x70
 8002aa0:	e01c      	b.n	8002adc <HAL_RCC_OscConfig+0x324>
 8002aa2:	687b      	ldr	r3, [r7, #4]
 8002aa4:	689b      	ldr	r3, [r3, #8]
 8002aa6:	2b05      	cmp	r3, #5
 8002aa8:	d10c      	bne.n	8002ac4 <HAL_RCC_OscConfig+0x30c>
 8002aaa:	4b5f      	ldr	r3, [pc, #380]	@ (8002c28 <HAL_RCC_OscConfig+0x470>)
 8002aac:	6f1b      	ldr	r3, [r3, #112]	@ 0x70
 8002aae:	4a5e      	ldr	r2, [pc, #376]	@ (8002c28 <HAL_RCC_OscConfig+0x470>)
 8002ab0:	f043 0304 	orr.w	r3, r3, #4
 8002ab4:	6713      	str	r3, [r2, #112]	@ 0x70
 8002ab6:	4b5c      	ldr	r3, [pc, #368]	@ (8002c28 <HAL_RCC_OscConfig+0x470>)
 8002ab8:	6f1b      	ldr	r3, [r3, #112]	@ 0x70
 8002aba:	4a5b      	ldr	r2, [pc, #364]	@ (8002c28 <HAL_RCC_OscConfig+0x470>)
 8002abc:	f043 0301 	orr.w	r3, r3, #1
 8002ac0:	6713      	str	r3, [r2, #112]	@ 0x70
 8002ac2:	e00b      	b.n	8002adc <HAL_RCC_OscConfig+0x324>
 8002ac4:	4b58      	ldr	r3, [pc, #352]	@ (8002c28 <HAL_RCC_OscConfig+0x470>)
 8002ac6:	6f1b      	ldr	r3, [r3, #112]	@ 0x70
 8002ac8:	4a57      	ldr	r2, [pc, #348]	@ (8002c28 <HAL_RCC_OscConfig+0x470>)
 8002aca:	f023 0301 	bic.w	r3, r3, #1
 8002ace:	6713      	str	r3, [r2, #112]	@ 0x70
 8002ad0:	4b55      	ldr	r3, [pc, #340]	@ (8002c28 <HAL_RCC_OscConfig+0x470>)
 8002ad2:	6f1b      	ldr	r3, [r3, #112]	@ 0x70
 8002ad4:	4a54      	ldr	r2, [pc, #336]	@ (8002c28 <HAL_RCC_OscConfig+0x470>)
 8002ad6:	f023 0304 	bic.w	r3, r3, #4
 8002ada:	6713      	str	r3, [r2, #112]	@ 0x70
 8002adc:	687b      	ldr	r3, [r7, #4]
 8002ade:	689b      	ldr	r3, [r3, #8]
 8002ae0:	2b00      	cmp	r3, #0
 8002ae2:	d015      	beq.n	8002b10 <HAL_RCC_OscConfig+0x358>
 8002ae4:	f7fe ffd2 	bl	8001a8c <HAL_GetTick>
 8002ae8:	6138      	str	r0, [r7, #16]
 8002aea:	e00a      	b.n	8002b02 <HAL_RCC_OscConfig+0x34a>
 8002aec:	f7fe ffce 	bl	8001a8c <HAL_GetTick>
 8002af0:	4602      	mov	r2, r0
 8002af2:	693b      	ldr	r3, [r7, #16]
 8002af4:	1ad3      	subs	r3, r2, r3
 8002af6:	f241 3288 	movw	r2, #5000	@ 0x1388
 8002afa:	4293      	cmp	r3, r2
 8002afc:	d901      	bls.n	8002b02 <HAL_RCC_OscConfig+0x34a>
 8002afe:	2303      	movs	r3, #3
 8002b00:	e0cb      	b.n	8002c9a <HAL_RCC_OscConfig+0x4e2>
 8002b02:	4b49      	ldr	r3, [pc, #292]	@ (8002c28 <HAL_RCC_OscConfig+0x470>)
 8002b04:	6f1b      	ldr	r3, [r3, #112]	@ 0x70
 8002b06:	f003 0302 	and.w	r3, r3, #2
 8002b0a:	2b00      	cmp	r3, #0
 8002b0c:	d0ee      	beq.n	8002aec <HAL_RCC_OscConfig+0x334>
 8002b0e:	e014      	b.n	8002b3a <HAL_RCC_OscConfig+0x382>
 8002b10:	f7fe ffbc 	bl	8001a8c <HAL_GetTick>
 8002b14:	6138      	str	r0, [r7, #16]
 8002b16:	e00a      	b.n	8002b2e <HAL_RCC_OscConfig+0x376>
 8002b18:	f7fe ffb8 	bl	8001a8c <HAL_GetTick>
 8002b1c:	4602      	mov	r2, r0
 8002b1e:	693b      	ldr	r3, [r7, #16]
 8002b20:	1ad3      	subs	r3, r2, r3
 8002b22:	f241 3288 	movw	r2, #5000	@ 0x1388
 8002b26:	4293      	cmp	r3, r2
 8002b28:	d901      	bls.n	8002b2e <HAL_RCC_OscConfig+0x376>
 8002b2a:	2303      	movs	r3, #3
 8002b2c:	e0b5      	b.n	8002c9a <HAL_RCC_OscConfig+0x4e2>
 8002b2e:	4b3e      	ldr	r3, [pc, #248]	@ (8002c28 <HAL_RCC_OscConfig+0x470>)
 8002b30:	6f1b      	ldr	r3, [r3, #112]	@ 0x70
 8002b32:	f003 0302 	and.w	r3, r3, #2
 8002b36:	2b00      	cmp	r3, #0
 8002b38:	d1ee      	bne.n	8002b18 <HAL_RCC_OscConfig+0x360>
 8002b3a:	7dfb      	ldrb	r3, [r7, #23]
 8002b3c:	2b01      	cmp	r3, #1
 8002b3e:	d105      	bne.n	8002b4c <HAL_RCC_OscConfig+0x394>
 8002b40:	4b39      	ldr	r3, [pc, #228]	@ (8002c28 <HAL_RCC_OscConfig+0x470>)
 8002b42:	6c1b      	ldr	r3, [r3, #64]	@ 0x40
 8002b44:	4a38      	ldr	r2, [pc, #224]	@ (8002c28 <HAL_RCC_OscConfig+0x470>)
 8002b46:	f023 5380 	bic.w	r3, r3, #268435456	@ 0x10000000
 8002b4a:	6413      	str	r3, [r2, #64]	@ 0x40
 8002b4c:	687b      	ldr	r3, [r7, #4]
 8002b4e:	699b      	ldr	r3, [r3, #24]
 8002b50:	2b00      	cmp	r3, #0
 8002b52:	f000 80a1 	beq.w	8002c98 <HAL_RCC_OscConfig+0x4e0>
 8002b56:	4b34      	ldr	r3, [pc, #208]	@ (8002c28 <HAL_RCC_OscConfig+0x470>)
 8002b58:	689b      	ldr	r3, [r3, #8]
 8002b5a:	f003 030c 	and.w	r3, r3, #12
 8002b5e:	2b08      	cmp	r3, #8
 8002b60:	d05c      	beq.n	8002c1c <HAL_RCC_OscConfig+0x464>
 8002b62:	687b      	ldr	r3, [r7, #4]
 8002b64:	699b      	ldr	r3, [r3, #24]
 8002b66:	2b02      	cmp	r3, #2
 8002b68:	d141      	bne.n	8002bee <HAL_RCC_OscConfig+0x436>
 8002b6a:	4b31      	ldr	r3, [pc, #196]	@ (8002c30 <HAL_RCC_OscConfig+0x478>)
 8002b6c:	2200      	movs	r2, #0
 8002b6e:	601a      	str	r2, [r3, #0]
 8002b70:	f7fe ff8c 	bl	8001a8c <HAL_GetTick>
 8002b74:	6138      	str	r0, [r7, #16]
 8002b76:	e008      	b.n	8002b8a <HAL_RCC_OscConfig+0x3d2>
 8002b78:	f7fe ff88 	bl	8001a8c <HAL_GetTick>
 8002b7c:	4602      	mov	r2, r0
 8002b7e:	693b      	ldr	r3, [r7, #16]
 8002b80:	1ad3      	subs	r3, r2, r3
 8002b82:	2b02      	cmp	r3, #2
 8002b84:	d901      	bls.n	8002b8a <HAL_RCC_OscConfig+0x3d2>
 8002b86:	2303      	movs	r3, #3
 8002b88:	e087      	b.n	8002c9a <HAL_RCC_OscConfig+0x4e2>
 8002b8a:	4b27      	ldr	r3, [pc, #156]	@ (8002c28 <HAL_RCC_OscConfig+0x470>)
 8002b8c:	681b      	ldr	r3, [r3, #0]
 8002b8e:	f003 7300 	and.w	r3, r3, #33554432	@ 0x2000000
 8002b92:	2b00      	cmp	r3, #0
 8002b94:	d1f0      	bne.n	8002b78 <HAL_RCC_OscConfig+0x3c0>
 8002b96:	687b      	ldr	r3, [r7, #4]
 8002b98:	69da      	ldr	r2, [r3, #28]
 8002b9a:	687b      	ldr	r3, [r7, #4]
 8002b9c:	6a1b      	ldr	r3, [r3, #32]
 8002b9e:	431a      	orrs	r2, r3
 8002ba0:	687b      	ldr	r3, [r7, #4]
 8002ba2:	6a5b      	ldr	r3, [r3, #36]	@ 0x24
 8002ba4:	019b      	lsls	r3, r3, #6
 8002ba6:	431a      	orrs	r2, r3
 8002ba8:	687b      	ldr	r3, [r7, #4]
 8002baa:	6a9b      	ldr	r3, [r3, #40]	@ 0x28
 8002bac:	085b      	lsrs	r3, r3, #1
 8002bae:	3b01      	subs	r3, #1
 8002bb0:	041b      	lsls	r3, r3, #16
 8002bb2:	431a      	orrs	r2, r3
 8002bb4:	687b      	ldr	r3, [r7, #4]
 8002bb6:	6adb      	ldr	r3, [r3, #44]	@ 0x2c
 8002bb8:	061b      	lsls	r3, r3, #24
 8002bba:	491b      	ldr	r1, [pc, #108]	@ (8002c28 <HAL_RCC_OscConfig+0x470>)
 8002bbc:	4313      	orrs	r3, r2
 8002bbe:	604b      	str	r3, [r1, #4]
 8002bc0:	4b1b      	ldr	r3, [pc, #108]	@ (8002c30 <HAL_RCC_OscConfig+0x478>)
 8002bc2:	2201      	movs	r2, #1
 8002bc4:	601a      	str	r2, [r3, #0]
 8002bc6:	f7fe ff61 	bl	8001a8c <HAL_GetTick>
 8002bca:	6138      	str	r0, [r7, #16]
 8002bcc:	e008      	b.n	8002be0 <HAL_RCC_OscConfig+0x428>
 8002bce:	f7fe ff5d 	bl	8001a8c <HAL_GetTick>
 8002bd2:	4602      	mov	r2, r0
 8002bd4:	693b      	ldr	r3, [r7, #16]
 8002bd6:	1ad3      	subs	r3, r2, r3
 8002bd8:	2b02      	cmp	r3, #2
 8002bda:	d901      	bls.n	8002be0 <HAL_RCC_OscConfig+0x428>
 8002bdc:	2303      	movs	r3, #3
 8002bde:	e05c      	b.n	8002c9a <HAL_RCC_OscConfig+0x4e2>
 8002be0:	4b11      	ldr	r3, [pc, #68]	@ (8002c28 <HAL_RCC_OscConfig+0x470>)
 8002be2:	681b      	ldr	r3, [r3, #0]
 8002be4:	f003 7300 	and.w	r3, r3, #33554432	@ 0x2000000
 8002be8:	2b00      	cmp	r3, #0
 8002bea:	d0f0      	beq.n	8002bce <HAL_RCC_OscConfig+0x416>
 8002bec:	e054      	b.n	8002c98 <HAL_RCC_OscConfig+0x4e0>
 8002bee:	4b10      	ldr	r3, [pc, #64]	@ (8002c30 <HAL_RCC_OscConfig+0x478>)
 8002bf0:	2200      	movs	r2, #0
 8002bf2:	601a      	str	r2, [r3, #0]
 8002bf4:	f7fe ff4a 	bl	8001a8c <HAL_GetTick>
 8002bf8:	6138      	str	r0, [r7, #16]
 8002bfa:	e008      	b.n	8002c0e <HAL_RCC_OscConfig+0x456>
 8002bfc:	f7fe ff46 	bl	8001a8c <HAL_GetTick>
 8002c00:	4602      	mov	r2, r0
 8002c02:	693b      	ldr	r3, [r7, #16]
 8002c04:	1ad3      	subs	r3, r2, r3
 8002c06:	2b02      	cmp	r3, #2
 8002c08:	d901      	bls.n	8002c0e <HAL_RCC_OscConfig+0x456>
 8002c0a:	2303      	movs	r3, #3
 8002c0c:	e045      	b.n	8002c9a <HAL_RCC_OscConfig+0x4e2>
 8002c0e:	4b06      	ldr	r3, [pc, #24]	@ (8002c28 <HAL_RCC_OscConfig+0x470>)
 8002c10:	681b      	ldr	r3, [r3, #0]
 8002c12:	f003 7300 	and.w	r3, r3, #33554432	@ 0x2000000
 8002c16:	2b00      	cmp	r3, #0
 8002c18:	d1f0      	bne.n	8002bfc <HAL_RCC_OscConfig+0x444>
 8002c1a:	e03d      	b.n	8002c98 <HAL_RCC_OscConfig+0x4e0>
 8002c1c:	687b      	ldr	r3, [r7, #4]
 8002c1e:	699b      	ldr	r3, [r3, #24]
 8002c20:	2b01      	cmp	r3, #1
 8002c22:	d107      	bne.n	8002c34 <HAL_RCC_OscConfig+0x47c>
 8002c24:	2301      	movs	r3, #1
 8002c26:	e038      	b.n	8002c9a <HAL_RCC_OscConfig+0x4e2>
 8002c28:	40023800 	.word	0x40023800
 8002c2c:	40007000 	.word	0x40007000
 8002c30:	42470060 	.word	0x42470060
 8002c34:	4b1b      	ldr	r3, [pc, #108]	@ (8002ca4 <HAL_RCC_OscConfig+0x4ec>)
 8002c36:	685b      	ldr	r3, [r3, #4]
 8002c38:	60fb      	str	r3, [r7, #12]
 8002c3a:	687b      	ldr	r3, [r7, #4]
 8002c3c:	699b      	ldr	r3, [r3, #24]
 8002c3e:	2b01      	cmp	r3, #1
 8002c40:	d028      	beq.n	8002c94 <HAL_RCC_OscConfig+0x4dc>
 8002c42:	68fb      	ldr	r3, [r7, #12]
 8002c44:	f403 0280 	and.w	r2, r3, #4194304	@ 0x400000
 8002c48:	687b      	ldr	r3, [r7, #4]
 8002c4a:	69db      	ldr	r3, [r3, #28]
 8002c4c:	429a      	cmp	r2, r3
 8002c4e:	d121      	bne.n	8002c94 <HAL_RCC_OscConfig+0x4dc>
 8002c50:	68fb      	ldr	r3, [r7, #12]
 8002c52:	f003 023f 	and.w	r2, r3, #63	@ 0x3f
 8002c56:	687b      	ldr	r3, [r7, #4]
 8002c58:	6a1b      	ldr	r3, [r3, #32]
 8002c5a:	429a      	cmp	r2, r3
 8002c5c:	d11a      	bne.n	8002c94 <HAL_RCC_OscConfig+0x4dc>
 8002c5e:	68fa      	ldr	r2, [r7, #12]
 8002c60:	f647 73c0 	movw	r3, #32704	@ 0x7fc0
 8002c64:	4013      	ands	r3, r2
 8002c66:	687a      	ldr	r2, [r7, #4]
 8002c68:	6a52      	ldr	r2, [r2, #36]	@ 0x24
 8002c6a:	0192      	lsls	r2, r2, #6
 8002c6c:	4293      	cmp	r3, r2
 8002c6e:	d111      	bne.n	8002c94 <HAL_RCC_OscConfig+0x4dc>
 8002c70:	68fb      	ldr	r3, [r7, #12]
 8002c72:	f403 3240 	and.w	r2, r3, #196608	@ 0x30000
 8002c76:	687b      	ldr	r3, [r7, #4]
 8002c78:	6a9b      	ldr	r3, [r3, #40]	@ 0x28
 8002c7a:	085b      	lsrs	r3, r3, #1
 8002c7c:	3b01      	subs	r3, #1
 8002c7e:	041b      	lsls	r3, r3, #16
 8002c80:	429a      	cmp	r2, r3
 8002c82:	d107      	bne.n	8002c94 <HAL_RCC_OscConfig+0x4dc>
 8002c84:	68fb      	ldr	r3, [r7, #12]
 8002c86:	f003 6270 	and.w	r2, r3, #251658240	@ 0xf000000
 8002c8a:	687b      	ldr	r3, [r7, #4]
 8002c8c:	6adb      	ldr	r3, [r3, #44]	@ 0x2c
 8002c8e:	061b      	lsls	r3, r3, #24
 8002c90:	429a      	cmp	r2, r3
 8002c92:	d001      	beq.n	8002c98 <HAL_RCC_OscConfig+0x4e0>
 8002c94:	2301      	movs	r3, #1
 8002c96:	e000      	b.n	8002c9a <HAL_RCC_OscConfig+0x4e2>
 8002c98:	2300      	movs	r3, #0
 8002c9a:	4618      	mov	r0, r3
 8002c9c:	3718      	adds	r7, #24
 8002c9e:	46bd      	mov	sp, r7
 8002ca0:	bd80      	pop	{r7, pc}
 8002ca2:	bf00      	nop
 8002ca4:	40023800 	.word	0x40023800

08002ca8 <HAL_RCC_ClockConfig>:
 8002ca8:	b580      	push	{r7, lr}
 8002caa:	b084      	sub	sp, #16
 8002cac:	af00      	add	r7, sp, #0
 8002cae:	6078      	str	r0, [r7, #4]
 8002cb0:	6039      	str	r1, [r7, #0]
 8002cb2:	687b      	ldr	r3, [r7, #4]
 8002cb4:	2b00      	cmp	r3, #0
 8002cb6:	d101      	bne.n	8002cbc <HAL_RCC_ClockConfig+0x14>
 8002cb8:	2301      	movs	r3, #1
 8002cba:	e0cc      	b.n	8002e56 <HAL_RCC_ClockConfig+0x1ae>
 8002cbc:	4b68      	ldr	r3, [pc, #416]	@ (8002e60 <HAL_RCC_ClockConfig+0x1b8>)
 8002cbe:	681b      	ldr	r3, [r3, #0]
 8002cc0:	f003 0307 	and.w	r3, r3, #7
 8002cc4:	683a      	ldr	r2, [r7, #0]
 8002cc6:	429a      	cmp	r2, r3
 8002cc8:	d90c      	bls.n	8002ce4 <HAL_RCC_ClockConfig+0x3c>
 8002cca:	4b65      	ldr	r3, [pc, #404]	@ (8002e60 <HAL_RCC_ClockConfig+0x1b8>)
 8002ccc:	683a      	ldr	r2, [r7, #0]
 8002cce:	b2d2      	uxtb	r2, r2
 8002cd0:	701a      	strb	r2, [r3, #0]
 8002cd2:	4b63      	ldr	r3, [pc, #396]	@ (8002e60 <HAL_RCC_ClockConfig+0x1b8>)
 8002cd4:	681b      	ldr	r3, [r3, #0]
 8002cd6:	f003 0307 	and.w	r3, r3, #7
 8002cda:	683a      	ldr	r2, [r7, #0]
 8002cdc:	429a      	cmp	r2, r3
 8002cde:	d001      	beq.n	8002ce4 <HAL_RCC_ClockConfig+0x3c>
 8002ce0:	2301      	movs	r3, #1
 8002ce2:	e0b8      	b.n	8002e56 <HAL_RCC_ClockConfig+0x1ae>
 8002ce4:	687b      	ldr	r3, [r7, #4]
 8002ce6:	681b      	ldr	r3, [r3, #0]
 8002ce8:	f003 0302 	and.w	r3, r3, #2
 8002cec:	2b00      	cmp	r3, #0
 8002cee:	d020      	beq.n	8002d32 <HAL_RCC_ClockConfig+0x8a>
 8002cf0:	687b      	ldr	r3, [r7, #4]
 8002cf2:	681b      	ldr	r3, [r3, #0]
 8002cf4:	f003 0304 	and.w	r3, r3, #4
 8002cf8:	2b00      	cmp	r3, #0
 8002cfa:	d005      	beq.n	8002d08 <HAL_RCC_ClockConfig+0x60>
 8002cfc:	4b59      	ldr	r3, [pc, #356]	@ (8002e64 <HAL_RCC_ClockConfig+0x1bc>)
 8002cfe:	689b      	ldr	r3, [r3, #8]
 8002d00:	4a58      	ldr	r2, [pc, #352]	@ (8002e64 <HAL_RCC_ClockConfig+0x1bc>)
 8002d02:	f443 53e0 	orr.w	r3, r3, #7168	@ 0x1c00
 8002d06:	6093      	str	r3, [r2, #8]
 8002d08:	687b      	ldr	r3, [r7, #4]
 8002d0a:	681b      	ldr	r3, [r3, #0]
 8002d0c:	f003 0308 	and.w	r3, r3, #8
 8002d10:	2b00      	cmp	r3, #0
 8002d12:	d005      	beq.n	8002d20 <HAL_RCC_ClockConfig+0x78>
 8002d14:	4b53      	ldr	r3, [pc, #332]	@ (8002e64 <HAL_RCC_ClockConfig+0x1bc>)
 8002d16:	689b      	ldr	r3, [r3, #8]
 8002d18:	4a52      	ldr	r2, [pc, #328]	@ (8002e64 <HAL_RCC_ClockConfig+0x1bc>)
 8002d1a:	f443 4360 	orr.w	r3, r3, #57344	@ 0xe000
 8002d1e:	6093      	str	r3, [r2, #8]
 8002d20:	4b50      	ldr	r3, [pc, #320]	@ (8002e64 <HAL_RCC_ClockConfig+0x1bc>)
 8002d22:	689b      	ldr	r3, [r3, #8]
 8002d24:	f023 02f0 	bic.w	r2, r3, #240	@ 0xf0
 8002d28:	687b      	ldr	r3, [r7, #4]
 8002d2a:	689b      	ldr	r3, [r3, #8]
 8002d2c:	494d      	ldr	r1, [pc, #308]	@ (8002e64 <HAL_RCC_ClockConfig+0x1bc>)
 8002d2e:	4313      	orrs	r3, r2
 8002d30:	608b      	str	r3, [r1, #8]
 8002d32:	687b      	ldr	r3, [r7, #4]
 8002d34:	681b      	ldr	r3, [r3, #0]
 8002d36:	f003 0301 	and.w	r3, r3, #1
 8002d3a:	2b00      	cmp	r3, #0
 8002d3c:	d044      	beq.n	8002dc8 <HAL_RCC_ClockConfig+0x120>
 8002d3e:	687b      	ldr	r3, [r7, #4]
 8002d40:	685b      	ldr	r3, [r3, #4]
 8002d42:	2b01      	cmp	r3, #1
 8002d44:	d107      	bne.n	8002d56 <HAL_RCC_ClockConfig+0xae>
 8002d46:	4b47      	ldr	r3, [pc, #284]	@ (8002e64 <HAL_RCC_ClockConfig+0x1bc>)
 8002d48:	681b      	ldr	r3, [r3, #0]
 8002d4a:	f403 3300 	and.w	r3, r3, #131072	@ 0x20000
 8002d4e:	2b00      	cmp	r3, #0
 8002d50:	d119      	bne.n	8002d86 <HAL_RCC_ClockConfig+0xde>
 8002d52:	2301      	movs	r3, #1
 8002d54:	e07f      	b.n	8002e56 <HAL_RCC_ClockConfig+0x1ae>
 8002d56:	687b      	ldr	r3, [r7, #4]
 8002d58:	685b      	ldr	r3, [r3, #4]
 8002d5a:	2b02      	cmp	r3, #2
 8002d5c:	d003      	beq.n	8002d66 <HAL_RCC_ClockConfig+0xbe>
 8002d5e:	687b      	ldr	r3, [r7, #4]
 8002d60:	685b      	ldr	r3, [r3, #4]
 8002d62:	2b03      	cmp	r3, #3
 8002d64:	d107      	bne.n	8002d76 <HAL_RCC_ClockConfig+0xce>
 8002d66:	4b3f      	ldr	r3, [pc, #252]	@ (8002e64 <HAL_RCC_ClockConfig+0x1bc>)
 8002d68:	681b      	ldr	r3, [r3, #0]
 8002d6a:	f003 7300 	and.w	r3, r3, #33554432	@ 0x2000000
 8002d6e:	2b00      	cmp	r3, #0
 8002d70:	d109      	bne.n	8002d86 <HAL_RCC_ClockConfig+0xde>
 8002d72:	2301      	movs	r3, #1
 8002d74:	e06f      	b.n	8002e56 <HAL_RCC_ClockConfig+0x1ae>
 8002d76:	4b3b      	ldr	r3, [pc, #236]	@ (8002e64 <HAL_RCC_ClockConfig+0x1bc>)
 8002d78:	681b      	ldr	r3, [r3, #0]
 8002d7a:	f003 0302 	and.w	r3, r3, #2
 8002d7e:	2b00      	cmp	r3, #0
 8002d80:	d101      	bne.n	8002d86 <HAL_RCC_ClockConfig+0xde>
 8002d82:	2301      	movs	r3, #1
 8002d84:	e067      	b.n	8002e56 <HAL_RCC_ClockConfig+0x1ae>
 8002d86:	4b37      	ldr	r3, [pc, #220]	@ (8002e64 <HAL_RCC_ClockConfig+0x1bc>)
 8002d88:	689b      	ldr	r3, [r3, #8]
 8002d8a:	f023 0203 	bic.w	r2, r3, #3
 8002d8e:	687b      	ldr	r3, [r7, #4]
 8002d90:	685b      	ldr	r3, [r3, #4]
 8002d92:	4934      	ldr	r1, [pc, #208]	@ (8002e64 <HAL_RCC_ClockConfig+0x1bc>)
 8002d94:	4313      	orrs	r3, r2
 8002d96:	608b      	str	r3, [r1, #8]
 8002d98:	f7fe fe78 	bl	8001a8c <HAL_GetTick>
 8002d9c:	60f8      	str	r0, [r7, #12]
 8002d9e:	e00a      	b.n	8002db6 <HAL_RCC_ClockConfig+0x10e>
 8002da0:	f7fe fe74 	bl	8001a8c <HAL_GetTick>
 8002da4:	4602      	mov	r2, r0
 8002da6:	68fb      	ldr	r3, [r7, #12]
 8002da8:	1ad3      	subs	r3, r2, r3
 8002daa:	f241 3288 	movw	r2, #5000	@ 0x1388
 8002dae:	4293      	cmp	r3, r2
 8002db0:	d901      	bls.n	8002db6 <HAL_RCC_ClockConfig+0x10e>
 8002db2:	2303      	movs	r3, #3
 8002db4:	e04f      	b.n	8002e56 <HAL_RCC_ClockConfig+0x1ae>
 8002db6:	4b2b      	ldr	r3, [pc, #172]	@ (8002e64 <HAL_RCC_ClockConfig+0x1bc>)
 8002db8:	689b      	ldr	r3, [r3, #8]
 8002dba:	f003 020c 	and.w	r2, r3, #12
 8002dbe:	687b      	ldr	r3, [r7, #4]
 8002dc0:	685b      	ldr	r3, [r3, #4]
 8002dc2:	009b      	lsls	r3, r3, #2
 8002dc4:	429a      	cmp	r2, r3
 8002dc6:	d1eb      	bne.n	8002da0 <HAL_RCC_ClockConfig+0xf8>
 8002dc8:	4b25      	ldr	r3, [pc, #148]	@ (8002e60 <HAL_RCC_ClockConfig+0x1b8>)
 8002dca:	681b      	ldr	r3, [r3, #0]
 8002dcc:	f003 0307 	and.w	r3, r3, #7
 8002dd0:	683a      	ldr	r2, [r7, #0]
 8002dd2:	429a      	cmp	r2, r3
 8002dd4:	d20c      	bcs.n	8002df0 <HAL_RCC_ClockConfig+0x148>
 8002dd6:	4b22      	ldr	r3, [pc, #136]	@ (8002e60 <HAL_RCC_ClockConfig+0x1b8>)
 8002dd8:	683a      	ldr	r2, [r7, #0]
 8002dda:	b2d2      	uxtb	r2, r2
 8002ddc:	701a      	strb	r2, [r3, #0]
 8002dde:	4b20      	ldr	r3, [pc, #128]	@ (8002e60 <HAL_RCC_ClockConfig+0x1b8>)
 8002de0:	681b      	ldr	r3, [r3, #0]
 8002de2:	f003 0307 	and.w	r3, r3, #7
 8002de6:	683a      	ldr	r2, [r7, #0]
 8002de8:	429a      	cmp	r2, r3
 8002dea:	d001      	beq.n	8002df0 <HAL_RCC_ClockConfig+0x148>
 8002dec:	2301      	movs	r3, #1
 8002dee:	e032      	b.n	8002e56 <HAL_RCC_ClockConfig+0x1ae>
 8002df0:	687b      	ldr	r3, [r7, #4]
 8002df2:	681b      	ldr	r3, [r3, #0]
 8002df4:	f003 0304 	and.w	r3, r3, #4
 8002df8:	2b00      	cmp	r3, #0
 8002dfa:	d008      	beq.n	8002e0e <HAL_RCC_ClockConfig+0x166>
 8002dfc:	4b19      	ldr	r3, [pc, #100]	@ (8002e64 <HAL_RCC_ClockConfig+0x1bc>)
 8002dfe:	689b      	ldr	r3, [r3, #8]
 8002e00:	f423 52e0 	bic.w	r2, r3, #7168	@ 0x1c00
 8002e04:	687b      	ldr	r3, [r7, #4]
 8002e06:	68db      	ldr	r3, [r3, #12]
 8002e08:	4916      	ldr	r1, [pc, #88]	@ (8002e64 <HAL_RCC_ClockConfig+0x1bc>)
 8002e0a:	4313      	orrs	r3, r2
 8002e0c:	608b      	str	r3, [r1, #8]
 8002e0e:	687b      	ldr	r3, [r7, #4]
 8002e10:	681b      	ldr	r3, [r3, #0]
 8002e12:	f003 0308 	and.w	r3, r3, #8
 8002e16:	2b00      	cmp	r3, #0
 8002e18:	d009      	beq.n	8002e2e <HAL_RCC_ClockConfig+0x186>
 8002e1a:	4b12      	ldr	r3, [pc, #72]	@ (8002e64 <HAL_RCC_ClockConfig+0x1bc>)
 8002e1c:	689b      	ldr	r3, [r3, #8]
 8002e1e:	f423 4260 	bic.w	r2, r3, #57344	@ 0xe000
 8002e22:	687b      	ldr	r3, [r7, #4]
 8002e24:	691b      	ldr	r3, [r3, #16]
 8002e26:	00db      	lsls	r3, r3, #3
 8002e28:	490e      	ldr	r1, [pc, #56]	@ (8002e64 <HAL_RCC_ClockConfig+0x1bc>)
 8002e2a:	4313      	orrs	r3, r2
 8002e2c:	608b      	str	r3, [r1, #8]
 8002e2e:	f000 f821 	bl	8002e74 <HAL_RCC_GetSysClockFreq>
 8002e32:	4602      	mov	r2, r0
 8002e34:	4b0b      	ldr	r3, [pc, #44]	@ (8002e64 <HAL_RCC_ClockConfig+0x1bc>)
 8002e36:	689b      	ldr	r3, [r3, #8]
 8002e38:	091b      	lsrs	r3, r3, #4
 8002e3a:	f003 030f 	and.w	r3, r3, #15
 8002e3e:	490a      	ldr	r1, [pc, #40]	@ (8002e68 <HAL_RCC_ClockConfig+0x1c0>)
 8002e40:	5ccb      	ldrb	r3, [r1, r3]
 8002e42:	fa22 f303 	lsr.w	r3, r2, r3
 8002e46:	4a09      	ldr	r2, [pc, #36]	@ (8002e6c <HAL_RCC_ClockConfig+0x1c4>)
 8002e48:	6013      	str	r3, [r2, #0]
 8002e4a:	4b09      	ldr	r3, [pc, #36]	@ (8002e70 <HAL_RCC_ClockConfig+0x1c8>)
 8002e4c:	681b      	ldr	r3, [r3, #0]
 8002e4e:	4618      	mov	r0, r3
 8002e50:	f7fe fdd8 	bl	8001a04 <HAL_InitTick>
 8002e54:	2300      	movs	r3, #0
 8002e56:	4618      	mov	r0, r3
 8002e58:	3710      	adds	r7, #16
 8002e5a:	46bd      	mov	sp, r7
 8002e5c:	bd80      	pop	{r7, pc}
 8002e5e:	bf00      	nop
 8002e60:	40023c00 	.word	0x40023c00
 8002e64:	40023800 	.word	0x40023800
 8002e68:	08008524 	.word	0x08008524
 8002e6c:	20000000 	.word	0x20000000
 8002e70:	20000004 	.word	0x20000004

08002e74 <HAL_RCC_GetSysClockFreq>:
 8002e74:	e92d 4fb0 	stmdb	sp!, {r4, r5, r7, r8, r9, sl, fp, lr}
 8002e78:	b094      	sub	sp, #80	@ 0x50
 8002e7a:	af00      	add	r7, sp, #0
 8002e7c:	2300      	movs	r3, #0
 8002e7e:	647b      	str	r3, [r7, #68]	@ 0x44
 8002e80:	2300      	movs	r3, #0
 8002e82:	64fb      	str	r3, [r7, #76]	@ 0x4c
 8002e84:	2300      	movs	r3, #0
 8002e86:	643b      	str	r3, [r7, #64]	@ 0x40
 8002e88:	2300      	movs	r3, #0
 8002e8a:	64bb      	str	r3, [r7, #72]	@ 0x48
 8002e8c:	4b79      	ldr	r3, [pc, #484]	@ (8003074 <HAL_RCC_GetSysClockFreq+0x200>)
 8002e8e:	689b      	ldr	r3, [r3, #8]
 8002e90:	f003 030c 	and.w	r3, r3, #12
 8002e94:	2b08      	cmp	r3, #8
 8002e96:	d00d      	beq.n	8002eb4 <HAL_RCC_GetSysClockFreq+0x40>
 8002e98:	2b08      	cmp	r3, #8
 8002e9a:	f200 80e1 	bhi.w	8003060 <HAL_RCC_GetSysClockFreq+0x1ec>
 8002e9e:	2b00      	cmp	r3, #0
 8002ea0:	d002      	beq.n	8002ea8 <HAL_RCC_GetSysClockFreq+0x34>
 8002ea2:	2b04      	cmp	r3, #4
 8002ea4:	d003      	beq.n	8002eae <HAL_RCC_GetSysClockFreq+0x3a>
 8002ea6:	e0db      	b.n	8003060 <HAL_RCC_GetSysClockFreq+0x1ec>
 8002ea8:	4b73      	ldr	r3, [pc, #460]	@ (8003078 <HAL_RCC_GetSysClockFreq+0x204>)
 8002eaa:	64bb      	str	r3, [r7, #72]	@ 0x48
 8002eac:	e0db      	b.n	8003066 <HAL_RCC_GetSysClockFreq+0x1f2>
 8002eae:	4b73      	ldr	r3, [pc, #460]	@ (800307c <HAL_RCC_GetSysClockFreq+0x208>)
 8002eb0:	64bb      	str	r3, [r7, #72]	@ 0x48
 8002eb2:	e0d8      	b.n	8003066 <HAL_RCC_GetSysClockFreq+0x1f2>
 8002eb4:	4b6f      	ldr	r3, [pc, #444]	@ (8003074 <HAL_RCC_GetSysClockFreq+0x200>)
 8002eb6:	685b      	ldr	r3, [r3, #4]
 8002eb8:	f003 033f 	and.w	r3, r3, #63	@ 0x3f
 8002ebc:	647b      	str	r3, [r7, #68]	@ 0x44
 8002ebe:	4b6d      	ldr	r3, [pc, #436]	@ (8003074 <HAL_RCC_GetSysClockFreq+0x200>)
 8002ec0:	685b      	ldr	r3, [r3, #4]
 8002ec2:	f403 0380 	and.w	r3, r3, #4194304	@ 0x400000
 8002ec6:	2b00      	cmp	r3, #0
 8002ec8:	d063      	beq.n	8002f92 <HAL_RCC_GetSysClockFreq+0x11e>
 8002eca:	4b6a      	ldr	r3, [pc, #424]	@ (8003074 <HAL_RCC_GetSysClockFreq+0x200>)
 8002ecc:	685b      	ldr	r3, [r3, #4]
 8002ece:	099b      	lsrs	r3, r3, #6
 8002ed0:	2200      	movs	r2, #0
 8002ed2:	63bb      	str	r3, [r7, #56]	@ 0x38
 8002ed4:	63fa      	str	r2, [r7, #60]	@ 0x3c
 8002ed6:	6bbb      	ldr	r3, [r7, #56]	@ 0x38
 8002ed8:	f3c3 0308 	ubfx	r3, r3, #0, #9
 8002edc:	633b      	str	r3, [r7, #48]	@ 0x30
 8002ede:	2300      	movs	r3, #0
 8002ee0:	637b      	str	r3, [r7, #52]	@ 0x34
 8002ee2:	e9d7 450c 	ldrd	r4, r5, [r7, #48]	@ 0x30
 8002ee6:	4622      	mov	r2, r4
 8002ee8:	462b      	mov	r3, r5
 8002eea:	f04f 0000 	mov.w	r0, #0
 8002eee:	f04f 0100 	mov.w	r1, #0
 8002ef2:	0159      	lsls	r1, r3, #5
 8002ef4:	ea41 61d2 	orr.w	r1, r1, r2, lsr #27
 8002ef8:	0150      	lsls	r0, r2, #5
 8002efa:	4602      	mov	r2, r0
 8002efc:	460b      	mov	r3, r1
 8002efe:	4621      	mov	r1, r4
 8002f00:	1a51      	subs	r1, r2, r1
 8002f02:	6139      	str	r1, [r7, #16]
 8002f04:	4629      	mov	r1, r5
 8002f06:	eb63 0301 	sbc.w	r3, r3, r1
 8002f0a:	617b      	str	r3, [r7, #20]
 8002f0c:	f04f 0200 	mov.w	r2, #0
 8002f10:	f04f 0300 	mov.w	r3, #0
 8002f14:	e9d7 ab04 	ldrd	sl, fp, [r7, #16]
 8002f18:	4659      	mov	r1, fp
 8002f1a:	018b      	lsls	r3, r1, #6
 8002f1c:	4651      	mov	r1, sl
 8002f1e:	ea43 6391 	orr.w	r3, r3, r1, lsr #26
 8002f22:	4651      	mov	r1, sl
 8002f24:	018a      	lsls	r2, r1, #6
 8002f26:	4651      	mov	r1, sl
 8002f28:	ebb2 0801 	subs.w	r8, r2, r1
 8002f2c:	4659      	mov	r1, fp
 8002f2e:	eb63 0901 	sbc.w	r9, r3, r1
 8002f32:	f04f 0200 	mov.w	r2, #0
 8002f36:	f04f 0300 	mov.w	r3, #0
 8002f3a:	ea4f 03c9 	mov.w	r3, r9, lsl #3
 8002f3e:	ea43 7358 	orr.w	r3, r3, r8, lsr #29
 8002f42:	ea4f 02c8 	mov.w	r2, r8, lsl #3
 8002f46:	4690      	mov	r8, r2
 8002f48:	4699      	mov	r9, r3
 8002f4a:	4623      	mov	r3, r4
 8002f4c:	eb18 0303 	adds.w	r3, r8, r3
 8002f50:	60bb      	str	r3, [r7, #8]
 8002f52:	462b      	mov	r3, r5
 8002f54:	eb49 0303 	adc.w	r3, r9, r3
 8002f58:	60fb      	str	r3, [r7, #12]
 8002f5a:	f04f 0200 	mov.w	r2, #0
 8002f5e:	f04f 0300 	mov.w	r3, #0
 8002f62:	e9d7 4502 	ldrd	r4, r5, [r7, #8]
 8002f66:	4629      	mov	r1, r5
 8002f68:	024b      	lsls	r3, r1, #9
 8002f6a:	4621      	mov	r1, r4
 8002f6c:	ea43 53d1 	orr.w	r3, r3, r1, lsr #23
 8002f70:	4621      	mov	r1, r4
 8002f72:	024a      	lsls	r2, r1, #9
 8002f74:	4610      	mov	r0, r2
 8002f76:	4619      	mov	r1, r3
 8002f78:	6c7b      	ldr	r3, [r7, #68]	@ 0x44
 8002f7a:	2200      	movs	r2, #0
 8002f7c:	62bb      	str	r3, [r7, #40]	@ 0x28
 8002f7e:	62fa      	str	r2, [r7, #44]	@ 0x2c
 8002f80:	e9d7 230a 	ldrd	r2, r3, [r7, #40]	@ 0x28
 8002f84:	f7fd fe88 	bl	8000c98 <__aeabi_uldivmod>
 8002f88:	4602      	mov	r2, r0
 8002f8a:	460b      	mov	r3, r1
 8002f8c:	4613      	mov	r3, r2
 8002f8e:	64fb      	str	r3, [r7, #76]	@ 0x4c
 8002f90:	e058      	b.n	8003044 <HAL_RCC_GetSysClockFreq+0x1d0>
 8002f92:	4b38      	ldr	r3, [pc, #224]	@ (8003074 <HAL_RCC_GetSysClockFreq+0x200>)
 8002f94:	685b      	ldr	r3, [r3, #4]
 8002f96:	099b      	lsrs	r3, r3, #6
 8002f98:	2200      	movs	r2, #0
 8002f9a:	4618      	mov	r0, r3
 8002f9c:	4611      	mov	r1, r2
 8002f9e:	f3c0 0308 	ubfx	r3, r0, #0, #9
 8002fa2:	623b      	str	r3, [r7, #32]
 8002fa4:	2300      	movs	r3, #0
 8002fa6:	627b      	str	r3, [r7, #36]	@ 0x24
 8002fa8:	e9d7 8908 	ldrd	r8, r9, [r7, #32]
 8002fac:	4642      	mov	r2, r8
 8002fae:	464b      	mov	r3, r9
 8002fb0:	f04f 0000 	mov.w	r0, #0
 8002fb4:	f04f 0100 	mov.w	r1, #0
 8002fb8:	0159      	lsls	r1, r3, #5
 8002fba:	ea41 61d2 	orr.w	r1, r1, r2, lsr #27
 8002fbe:	0150      	lsls	r0, r2, #5
 8002fc0:	4602      	mov	r2, r0
 8002fc2:	460b      	mov	r3, r1
 8002fc4:	4641      	mov	r1, r8
 8002fc6:	ebb2 0a01 	subs.w	sl, r2, r1
 8002fca:	4649      	mov	r1, r9
 8002fcc:	eb63 0b01 	sbc.w	fp, r3, r1
 8002fd0:	f04f 0200 	mov.w	r2, #0
 8002fd4:	f04f 0300 	mov.w	r3, #0
 8002fd8:	ea4f 138b 	mov.w	r3, fp, lsl #6
 8002fdc:	ea43 639a 	orr.w	r3, r3, sl, lsr #26
 8002fe0:	ea4f 128a 	mov.w	r2, sl, lsl #6
 8002fe4:	ebb2 040a 	subs.w	r4, r2, sl
 8002fe8:	eb63 050b 	sbc.w	r5, r3, fp
 8002fec:	f04f 0200 	mov.w	r2, #0
 8002ff0:	f04f 0300 	mov.w	r3, #0
 8002ff4:	00eb      	lsls	r3, r5, #3
 8002ff6:	ea43 7354 	orr.w	r3, r3, r4, lsr #29
 8002ffa:	00e2      	lsls	r2, r4, #3
 8002ffc:	4614      	mov	r4, r2
 8002ffe:	461d      	mov	r5, r3
 8003000:	4643      	mov	r3, r8
 8003002:	18e3      	adds	r3, r4, r3
 8003004:	603b      	str	r3, [r7, #0]
 8003006:	464b      	mov	r3, r9
 8003008:	eb45 0303 	adc.w	r3, r5, r3
 800300c:	607b      	str	r3, [r7, #4]
 800300e:	f04f 0200 	mov.w	r2, #0
 8003012:	f04f 0300 	mov.w	r3, #0
 8003016:	e9d7 4500 	ldrd	r4, r5, [r7]
 800301a:	4629      	mov	r1, r5
 800301c:	028b      	lsls	r3, r1, #10
 800301e:	4621      	mov	r1, r4
 8003020:	ea43 5391 	orr.w	r3, r3, r1, lsr #22
 8003024:	4621      	mov	r1, r4
 8003026:	028a      	lsls	r2, r1, #10
 8003028:	4610      	mov	r0, r2
 800302a:	4619      	mov	r1, r3
 800302c:	6c7b      	ldr	r3, [r7, #68]	@ 0x44
 800302e:	2200      	movs	r2, #0
 8003030:	61bb      	str	r3, [r7, #24]
 8003032:	61fa      	str	r2, [r7, #28]
 8003034:	e9d7 2306 	ldrd	r2, r3, [r7, #24]
 8003038:	f7fd fe2e 	bl	8000c98 <__aeabi_uldivmod>
 800303c:	4602      	mov	r2, r0
 800303e:	460b      	mov	r3, r1
 8003040:	4613      	mov	r3, r2
 8003042:	64fb      	str	r3, [r7, #76]	@ 0x4c
 8003044:	4b0b      	ldr	r3, [pc, #44]	@ (8003074 <HAL_RCC_GetSysClockFreq+0x200>)
 8003046:	685b      	ldr	r3, [r3, #4]
 8003048:	0c1b      	lsrs	r3, r3, #16
 800304a:	f003 0303 	and.w	r3, r3, #3
 800304e:	3301      	adds	r3, #1
 8003050:	005b      	lsls	r3, r3, #1
 8003052:	643b      	str	r3, [r7, #64]	@ 0x40
 8003054:	6cfa      	ldr	r2, [r7, #76]	@ 0x4c
 8003056:	6c3b      	ldr	r3, [r7, #64]	@ 0x40
 8003058:	fbb2 f3f3 	udiv	r3, r2, r3
 800305c:	64bb      	str	r3, [r7, #72]	@ 0x48
 800305e:	e002      	b.n	8003066 <HAL_RCC_GetSysClockFreq+0x1f2>
 8003060:	4b05      	ldr	r3, [pc, #20]	@ (8003078 <HAL_RCC_GetSysClockFreq+0x204>)
 8003062:	64bb      	str	r3, [r7, #72]	@ 0x48
 8003064:	bf00      	nop
 8003066:	6cbb      	ldr	r3, [r7, #72]	@ 0x48
 8003068:	4618      	mov	r0, r3
 800306a:	3750      	adds	r7, #80	@ 0x50
 800306c:	46bd      	mov	sp, r7
 800306e:	e8bd 8fb0 	ldmia.w	sp!, {r4, r5, r7, r8, r9, sl, fp, pc}
 8003072:	bf00      	nop
 8003074:	40023800 	.word	0x40023800
 8003078:	00f42400 	.word	0x00f42400
 800307c:	007a1200 	.word	0x007a1200

08003080 <HAL_RCC_GetHCLKFreq>:
 8003080:	b480      	push	{r7}
 8003082:	af00      	add	r7, sp, #0
 8003084:	4b03      	ldr	r3, [pc, #12]	@ (8003094 <HAL_RCC_GetHCLKFreq+0x14>)
 8003086:	681b      	ldr	r3, [r3, #0]
 8003088:	4618      	mov	r0, r3
 800308a:	46bd      	mov	sp, r7
 800308c:	f85d 7b04 	ldr.w	r7, [sp], #4
 8003090:	4770      	bx	lr
 8003092:	bf00      	nop
 8003094:	20000000 	.word	0x20000000

08003098 <HAL_RCC_GetPCLK1Freq>:
 8003098:	b580      	push	{r7, lr}
 800309a:	af00      	add	r7, sp, #0
 800309c:	f7ff fff0 	bl	8003080 <HAL_RCC_GetHCLKFreq>
 80030a0:	4602      	mov	r2, r0
 80030a2:	4b05      	ldr	r3, [pc, #20]	@ (80030b8 <HAL_RCC_GetPCLK1Freq+0x20>)
 80030a4:	689b      	ldr	r3, [r3, #8]
 80030a6:	0a9b      	lsrs	r3, r3, #10
 80030a8:	f003 0307 	and.w	r3, r3, #7
 80030ac:	4903      	ldr	r1, [pc, #12]	@ (80030bc <HAL_RCC_GetPCLK1Freq+0x24>)
 80030ae:	5ccb      	ldrb	r3, [r1, r3]
 80030b0:	fa22 f303 	lsr.w	r3, r2, r3
 80030b4:	4618      	mov	r0, r3
 80030b6:	bd80      	pop	{r7, pc}
 80030b8:	40023800 	.word	0x40023800
 80030bc:	08008534 	.word	0x08008534

080030c0 <HAL_RCC_GetPCLK2Freq>:
 80030c0:	b580      	push	{r7, lr}
 80030c2:	af00      	add	r7, sp, #0
 80030c4:	f7ff ffdc 	bl	8003080 <HAL_RCC_GetHCLKFreq>
 80030c8:	4602      	mov	r2, r0
 80030ca:	4b05      	ldr	r3, [pc, #20]	@ (80030e0 <HAL_RCC_GetPCLK2Freq+0x20>)
 80030cc:	689b      	ldr	r3, [r3, #8]
 80030ce:	0b5b      	lsrs	r3, r3, #13
 80030d0:	f003 0307 	and.w	r3, r3, #7
 80030d4:	4903      	ldr	r1, [pc, #12]	@ (80030e4 <HAL_RCC_GetPCLK2Freq+0x24>)
 80030d6:	5ccb      	ldrb	r3, [r1, r3]
 80030d8:	fa22 f303 	lsr.w	r3, r2, r3
 80030dc:	4618      	mov	r0, r3
 80030de:	bd80      	pop	{r7, pc}
 80030e0:	40023800 	.word	0x40023800
 80030e4:	08008534 	.word	0x08008534

080030e8 <HAL_UART_Init>:
 80030e8:	b580      	push	{r7, lr}
 80030ea:	b082      	sub	sp, #8
 80030ec:	af00      	add	r7, sp, #0
 80030ee:	6078      	str	r0, [r7, #4]
 80030f0:	687b      	ldr	r3, [r7, #4]
 80030f2:	2b00      	cmp	r3, #0
 80030f4:	d101      	bne.n	80030fa <HAL_UART_Init+0x12>
 80030f6:	2301      	movs	r3, #1
 80030f8:	e042      	b.n	8003180 <HAL_UART_Init+0x98>
 80030fa:	687b      	ldr	r3, [r7, #4]
 80030fc:	f893 3041 	ldrb.w	r3, [r3, #65]	@ 0x41
 8003100:	b2db      	uxtb	r3, r3
 8003102:	2b00      	cmp	r3, #0
 8003104:	d106      	bne.n	8003114 <HAL_UART_Init+0x2c>
 8003106:	687b      	ldr	r3, [r7, #4]
 8003108:	2200      	movs	r2, #0
 800310a:	f883 2040 	strb.w	r2, [r3, #64]	@ 0x40
 800310e:	6878      	ldr	r0, [r7, #4]
 8003110:	f7fe fbe4 	bl	80018dc <HAL_UART_MspInit>
 8003114:	687b      	ldr	r3, [r7, #4]
 8003116:	2224      	movs	r2, #36	@ 0x24
 8003118:	f883 2041 	strb.w	r2, [r3, #65]	@ 0x41
 800311c:	687b      	ldr	r3, [r7, #4]
 800311e:	681b      	ldr	r3, [r3, #0]
 8003120:	68da      	ldr	r2, [r3, #12]
 8003122:	687b      	ldr	r3, [r7, #4]
 8003124:	681b      	ldr	r3, [r3, #0]
 8003126:	f422 5200 	bic.w	r2, r2, #8192	@ 0x2000
 800312a:	60da      	str	r2, [r3, #12]
 800312c:	6878      	ldr	r0, [r7, #4]
 800312e:	f000 f973 	bl	8003418 <UART_SetConfig>
 8003132:	687b      	ldr	r3, [r7, #4]
 8003134:	681b      	ldr	r3, [r3, #0]
 8003136:	691a      	ldr	r2, [r3, #16]
 8003138:	687b      	ldr	r3, [r7, #4]
 800313a:	681b      	ldr	r3, [r3, #0]
 800313c:	f422 4290 	bic.w	r2, r2, #18432	@ 0x4800
 8003140:	611a      	str	r2, [r3, #16]
 8003142:	687b      	ldr	r3, [r7, #4]
 8003144:	681b      	ldr	r3, [r3, #0]
 8003146:	695a      	ldr	r2, [r3, #20]
 8003148:	687b      	ldr	r3, [r7, #4]
 800314a:	681b      	ldr	r3, [r3, #0]
 800314c:	f022 022a 	bic.w	r2, r2, #42	@ 0x2a
 8003150:	615a      	str	r2, [r3, #20]
 8003152:	687b      	ldr	r3, [r7, #4]
 8003154:	681b      	ldr	r3, [r3, #0]
 8003156:	68da      	ldr	r2, [r3, #12]
 8003158:	687b      	ldr	r3, [r7, #4]
 800315a:	681b      	ldr	r3, [r3, #0]
 800315c:	f442 5200 	orr.w	r2, r2, #8192	@ 0x2000
 8003160:	60da      	str	r2, [r3, #12]
 8003162:	687b      	ldr	r3, [r7, #4]
 8003164:	2200      	movs	r2, #0
 8003166:	645a      	str	r2, [r3, #68]	@ 0x44
 8003168:	687b      	ldr	r3, [r7, #4]
 800316a:	2220      	movs	r2, #32
 800316c:	f883 2041 	strb.w	r2, [r3, #65]	@ 0x41
 8003170:	687b      	ldr	r3, [r7, #4]
 8003172:	2220      	movs	r2, #32
 8003174:	f883 2042 	strb.w	r2, [r3, #66]	@ 0x42
 8003178:	687b      	ldr	r3, [r7, #4]
 800317a:	2200      	movs	r2, #0
 800317c:	635a      	str	r2, [r3, #52]	@ 0x34
 800317e:	2300      	movs	r3, #0
 8003180:	4618      	mov	r0, r3
 8003182:	3708      	adds	r7, #8
 8003184:	46bd      	mov	sp, r7
 8003186:	bd80      	pop	{r7, pc}

08003188 <HAL_UART_Transmit>:
 8003188:	b580      	push	{r7, lr}
 800318a:	b08a      	sub	sp, #40	@ 0x28
 800318c:	af02      	add	r7, sp, #8
 800318e:	60f8      	str	r0, [r7, #12]
 8003190:	60b9      	str	r1, [r7, #8]
 8003192:	603b      	str	r3, [r7, #0]
 8003194:	4613      	mov	r3, r2
 8003196:	80fb      	strh	r3, [r7, #6]
 8003198:	2300      	movs	r3, #0
 800319a:	617b      	str	r3, [r7, #20]
 800319c:	68fb      	ldr	r3, [r7, #12]
 800319e:	f893 3041 	ldrb.w	r3, [r3, #65]	@ 0x41
 80031a2:	b2db      	uxtb	r3, r3
 80031a4:	2b20      	cmp	r3, #32
 80031a6:	d175      	bne.n	8003294 <HAL_UART_Transmit+0x10c>
 80031a8:	68bb      	ldr	r3, [r7, #8]
 80031aa:	2b00      	cmp	r3, #0
 80031ac:	d002      	beq.n	80031b4 <HAL_UART_Transmit+0x2c>
 80031ae:	88fb      	ldrh	r3, [r7, #6]
 80031b0:	2b00      	cmp	r3, #0
 80031b2:	d101      	bne.n	80031b8 <HAL_UART_Transmit+0x30>
 80031b4:	2301      	movs	r3, #1
 80031b6:	e06e      	b.n	8003296 <HAL_UART_Transmit+0x10e>
 80031b8:	68fb      	ldr	r3, [r7, #12]
 80031ba:	2200      	movs	r2, #0
 80031bc:	645a      	str	r2, [r3, #68]	@ 0x44
 80031be:	68fb      	ldr	r3, [r7, #12]
 80031c0:	2221      	movs	r2, #33	@ 0x21
 80031c2:	f883 2041 	strb.w	r2, [r3, #65]	@ 0x41
 80031c6:	f7fe fc61 	bl	8001a8c <HAL_GetTick>
 80031ca:	6178      	str	r0, [r7, #20]
 80031cc:	68fb      	ldr	r3, [r7, #12]
 80031ce:	88fa      	ldrh	r2, [r7, #6]
 80031d0:	849a      	strh	r2, [r3, #36]	@ 0x24
 80031d2:	68fb      	ldr	r3, [r7, #12]
 80031d4:	88fa      	ldrh	r2, [r7, #6]
 80031d6:	84da      	strh	r2, [r3, #38]	@ 0x26
 80031d8:	68fb      	ldr	r3, [r7, #12]
 80031da:	689b      	ldr	r3, [r3, #8]
 80031dc:	f5b3 5f80 	cmp.w	r3, #4096	@ 0x1000
 80031e0:	d108      	bne.n	80031f4 <HAL_UART_Transmit+0x6c>
 80031e2:	68fb      	ldr	r3, [r7, #12]
 80031e4:	691b      	ldr	r3, [r3, #16]
 80031e6:	2b00      	cmp	r3, #0
 80031e8:	d104      	bne.n	80031f4 <HAL_UART_Transmit+0x6c>
 80031ea:	2300      	movs	r3, #0
 80031ec:	61fb      	str	r3, [r7, #28]
 80031ee:	68bb      	ldr	r3, [r7, #8]
 80031f0:	61bb      	str	r3, [r7, #24]
 80031f2:	e003      	b.n	80031fc <HAL_UART_Transmit+0x74>
 80031f4:	68bb      	ldr	r3, [r7, #8]
 80031f6:	61fb      	str	r3, [r7, #28]
 80031f8:	2300      	movs	r3, #0
 80031fa:	61bb      	str	r3, [r7, #24]
 80031fc:	e02e      	b.n	800325c <HAL_UART_Transmit+0xd4>
 80031fe:	683b      	ldr	r3, [r7, #0]
 8003200:	9300      	str	r3, [sp, #0]
 8003202:	697b      	ldr	r3, [r7, #20]
 8003204:	2200      	movs	r2, #0
 8003206:	2180      	movs	r1, #128	@ 0x80
 8003208:	68f8      	ldr	r0, [r7, #12]
 800320a:	f000 f848 	bl	800329e <UART_WaitOnFlagUntilTimeout>
 800320e:	4603      	mov	r3, r0
 8003210:	2b00      	cmp	r3, #0
 8003212:	d005      	beq.n	8003220 <HAL_UART_Transmit+0x98>
 8003214:	68fb      	ldr	r3, [r7, #12]
 8003216:	2220      	movs	r2, #32
 8003218:	f883 2041 	strb.w	r2, [r3, #65]	@ 0x41
 800321c:	2303      	movs	r3, #3
 800321e:	e03a      	b.n	8003296 <HAL_UART_Transmit+0x10e>
 8003220:	69fb      	ldr	r3, [r7, #28]
 8003222:	2b00      	cmp	r3, #0
 8003224:	d10b      	bne.n	800323e <HAL_UART_Transmit+0xb6>
 8003226:	69bb      	ldr	r3, [r7, #24]
 8003228:	881b      	ldrh	r3, [r3, #0]
 800322a:	461a      	mov	r2, r3
 800322c:	68fb      	ldr	r3, [r7, #12]
 800322e:	681b      	ldr	r3, [r3, #0]
 8003230:	f3c2 0208 	ubfx	r2, r2, #0, #9
 8003234:	605a      	str	r2, [r3, #4]
 8003236:	69bb      	ldr	r3, [r7, #24]
 8003238:	3302      	adds	r3, #2
 800323a:	61bb      	str	r3, [r7, #24]
 800323c:	e007      	b.n	800324e <HAL_UART_Transmit+0xc6>
 800323e:	69fb      	ldr	r3, [r7, #28]
 8003240:	781a      	ldrb	r2, [r3, #0]
 8003242:	68fb      	ldr	r3, [r7, #12]
 8003244:	681b      	ldr	r3, [r3, #0]
 8003246:	605a      	str	r2, [r3, #4]
 8003248:	69fb      	ldr	r3, [r7, #28]
 800324a:	3301      	adds	r3, #1
 800324c:	61fb      	str	r3, [r7, #28]
 800324e:	68fb      	ldr	r3, [r7, #12]
 8003250:	8cdb      	ldrh	r3, [r3, #38]	@ 0x26
 8003252:	b29b      	uxth	r3, r3
 8003254:	3b01      	subs	r3, #1
 8003256:	b29a      	uxth	r2, r3
 8003258:	68fb      	ldr	r3, [r7, #12]
 800325a:	84da      	strh	r2, [r3, #38]	@ 0x26
 800325c:	68fb      	ldr	r3, [r7, #12]
 800325e:	8cdb      	ldrh	r3, [r3, #38]	@ 0x26
 8003260:	b29b      	uxth	r3, r3
 8003262:	2b00      	cmp	r3, #0
 8003264:	d1cb      	bne.n	80031fe <HAL_UART_Transmit+0x76>
 8003266:	683b      	ldr	r3, [r7, #0]
 8003268:	9300      	str	r3, [sp, #0]
 800326a:	697b      	ldr	r3, [r7, #20]
 800326c:	2200      	movs	r2, #0
 800326e:	2140      	movs	r1, #64	@ 0x40
 8003270:	68f8      	ldr	r0, [r7, #12]
 8003272:	f000 f814 	bl	800329e <UART_WaitOnFlagUntilTimeout>
 8003276:	4603      	mov	r3, r0
 8003278:	2b00      	cmp	r3, #0
 800327a:	d005      	beq.n	8003288 <HAL_UART_Transmit+0x100>
 800327c:	68fb      	ldr	r3, [r7, #12]
 800327e:	2220      	movs	r2, #32
 8003280:	f883 2041 	strb.w	r2, [r3, #65]	@ 0x41
 8003284:	2303      	movs	r3, #3
 8003286:	e006      	b.n	8003296 <HAL_UART_Transmit+0x10e>
 8003288:	68fb      	ldr	r3, [r7, #12]
 800328a:	2220      	movs	r2, #32
 800328c:	f883 2041 	strb.w	r2, [r3, #65]	@ 0x41
 8003290:	2300      	movs	r3, #0
 8003292:	e000      	b.n	8003296 <HAL_UART_Transmit+0x10e>
 8003294:	2302      	movs	r3, #2
 8003296:	4618      	mov	r0, r3
 8003298:	3720      	adds	r7, #32
 800329a:	46bd      	mov	sp, r7
 800329c:	bd80      	pop	{r7, pc}

0800329e <UART_WaitOnFlagUntilTimeout>:
 800329e:	b580      	push	{r7, lr}
 80032a0:	b086      	sub	sp, #24
 80032a2:	af00      	add	r7, sp, #0
 80032a4:	60f8      	str	r0, [r7, #12]
 80032a6:	60b9      	str	r1, [r7, #8]
 80032a8:	603b      	str	r3, [r7, #0]
 80032aa:	4613      	mov	r3, r2
 80032ac:	71fb      	strb	r3, [r7, #7]
 80032ae:	e03b      	b.n	8003328 <UART_WaitOnFlagUntilTimeout+0x8a>
 80032b0:	6a3b      	ldr	r3, [r7, #32]
 80032b2:	f1b3 3fff 	cmp.w	r3, #4294967295
 80032b6:	d037      	beq.n	8003328 <UART_WaitOnFlagUntilTimeout+0x8a>
 80032b8:	f7fe fbe8 	bl	8001a8c <HAL_GetTick>
 80032bc:	4602      	mov	r2, r0
 80032be:	683b      	ldr	r3, [r7, #0]
 80032c0:	1ad3      	subs	r3, r2, r3
 80032c2:	6a3a      	ldr	r2, [r7, #32]
 80032c4:	429a      	cmp	r2, r3
 80032c6:	d302      	bcc.n	80032ce <UART_WaitOnFlagUntilTimeout+0x30>
 80032c8:	6a3b      	ldr	r3, [r7, #32]
 80032ca:	2b00      	cmp	r3, #0
 80032cc:	d101      	bne.n	80032d2 <UART_WaitOnFlagUntilTimeout+0x34>
 80032ce:	2303      	movs	r3, #3
 80032d0:	e03a      	b.n	8003348 <UART_WaitOnFlagUntilTimeout+0xaa>
 80032d2:	68fb      	ldr	r3, [r7, #12]
 80032d4:	681b      	ldr	r3, [r3, #0]
 80032d6:	68db      	ldr	r3, [r3, #12]
 80032d8:	f003 0304 	and.w	r3, r3, #4
 80032dc:	2b00      	cmp	r3, #0
 80032de:	d023      	beq.n	8003328 <UART_WaitOnFlagUntilTimeout+0x8a>
 80032e0:	68bb      	ldr	r3, [r7, #8]
 80032e2:	2b80      	cmp	r3, #128	@ 0x80
 80032e4:	d020      	beq.n	8003328 <UART_WaitOnFlagUntilTimeout+0x8a>
 80032e6:	68bb      	ldr	r3, [r7, #8]
 80032e8:	2b40      	cmp	r3, #64	@ 0x40
 80032ea:	d01d      	beq.n	8003328 <UART_WaitOnFlagUntilTimeout+0x8a>
 80032ec:	68fb      	ldr	r3, [r7, #12]
 80032ee:	681b      	ldr	r3, [r3, #0]
 80032f0:	681b      	ldr	r3, [r3, #0]
 80032f2:	f003 0308 	and.w	r3, r3, #8
 80032f6:	2b08      	cmp	r3, #8
 80032f8:	d116      	bne.n	8003328 <UART_WaitOnFlagUntilTimeout+0x8a>
 80032fa:	2300      	movs	r3, #0
 80032fc:	617b      	str	r3, [r7, #20]
 80032fe:	68fb      	ldr	r3, [r7, #12]
 8003300:	681b      	ldr	r3, [r3, #0]
 8003302:	681b      	ldr	r3, [r3, #0]
 8003304:	617b      	str	r3, [r7, #20]
 8003306:	68fb      	ldr	r3, [r7, #12]
 8003308:	681b      	ldr	r3, [r3, #0]
 800330a:	685b      	ldr	r3, [r3, #4]
 800330c:	617b      	str	r3, [r7, #20]
 800330e:	697b      	ldr	r3, [r7, #20]
 8003310:	68f8      	ldr	r0, [r7, #12]
 8003312:	f000 f81d 	bl	8003350 <UART_EndRxTransfer>
 8003316:	68fb      	ldr	r3, [r7, #12]
 8003318:	2208      	movs	r2, #8
 800331a:	645a      	str	r2, [r3, #68]	@ 0x44
 800331c:	68fb      	ldr	r3, [r7, #12]
 800331e:	2200      	movs	r2, #0
 8003320:	f883 2040 	strb.w	r2, [r3, #64]	@ 0x40
 8003324:	2301      	movs	r3, #1
 8003326:	e00f      	b.n	8003348 <UART_WaitOnFlagUntilTimeout+0xaa>
 8003328:	68fb      	ldr	r3, [r7, #12]
 800332a:	681b      	ldr	r3, [r3, #0]
 800332c:	681a      	ldr	r2, [r3, #0]
 800332e:	68bb      	ldr	r3, [r7, #8]
 8003330:	4013      	ands	r3, r2
 8003332:	68ba      	ldr	r2, [r7, #8]
 8003334:	429a      	cmp	r2, r3
 8003336:	bf0c      	ite	eq
 8003338:	2301      	moveq	r3, #1
 800333a:	2300      	movne	r3, #0
 800333c:	b2db      	uxtb	r3, r3
 800333e:	461a      	mov	r2, r3
 8003340:	79fb      	ldrb	r3, [r7, #7]
 8003342:	429a      	cmp	r2, r3
 8003344:	d0b4      	beq.n	80032b0 <UART_WaitOnFlagUntilTimeout+0x12>
 8003346:	2300      	movs	r3, #0
 8003348:	4618      	mov	r0, r3
 800334a:	3718      	adds	r7, #24
 800334c:	46bd      	mov	sp, r7
 800334e:	bd80      	pop	{r7, pc}

08003350 <UART_EndRxTransfer>:
 8003350:	b480      	push	{r7}
 8003352:	b095      	sub	sp, #84	@ 0x54
 8003354:	af00      	add	r7, sp, #0
 8003356:	6078      	str	r0, [r7, #4]
 8003358:	687b      	ldr	r3, [r7, #4]
 800335a:	681b      	ldr	r3, [r3, #0]
 800335c:	330c      	adds	r3, #12
 800335e:	637b      	str	r3, [r7, #52]	@ 0x34
 8003360:	6b7b      	ldr	r3, [r7, #52]	@ 0x34
 8003362:	e853 3f00 	ldrex	r3, [r3]
 8003366:	633b      	str	r3, [r7, #48]	@ 0x30
 8003368:	6b3b      	ldr	r3, [r7, #48]	@ 0x30
 800336a:	f423 7390 	bic.w	r3, r3, #288	@ 0x120
 800336e:	64fb      	str	r3, [r7, #76]	@ 0x4c
 8003370:	687b      	ldr	r3, [r7, #4]
 8003372:	681b      	ldr	r3, [r3, #0]
 8003374:	330c      	adds	r3, #12
 8003376:	6cfa      	ldr	r2, [r7, #76]	@ 0x4c
 8003378:	643a      	str	r2, [r7, #64]	@ 0x40
 800337a:	63fb      	str	r3, [r7, #60]	@ 0x3c
 800337c:	6bf9      	ldr	r1, [r7, #60]	@ 0x3c
 800337e:	6c3a      	ldr	r2, [r7, #64]	@ 0x40
 8003380:	e841 2300 	strex	r3, r2, [r1]
 8003384:	63bb      	str	r3, [r7, #56]	@ 0x38
 8003386:	6bbb      	ldr	r3, [r7, #56]	@ 0x38
 8003388:	2b00      	cmp	r3, #0
 800338a:	d1e5      	bne.n	8003358 <UART_EndRxTransfer+0x8>
 800338c:	687b      	ldr	r3, [r7, #4]
 800338e:	681b      	ldr	r3, [r3, #0]
 8003390:	3314      	adds	r3, #20
 8003392:	623b      	str	r3, [r7, #32]
 8003394:	6a3b      	ldr	r3, [r7, #32]
 8003396:	e853 3f00 	ldrex	r3, [r3]
 800339a:	61fb      	str	r3, [r7, #28]
 800339c:	69fb      	ldr	r3, [r7, #28]
 800339e:	f023 0301 	bic.w	r3, r3, #1
 80033a2:	64bb      	str	r3, [r7, #72]	@ 0x48
 80033a4:	687b      	ldr	r3, [r7, #4]
 80033a6:	681b      	ldr	r3, [r3, #0]
 80033a8:	3314      	adds	r3, #20
 80033aa:	6cba      	ldr	r2, [r7, #72]	@ 0x48
 80033ac:	62fa      	str	r2, [r7, #44]	@ 0x2c
 80033ae:	62bb      	str	r3, [r7, #40]	@ 0x28
 80033b0:	6ab9      	ldr	r1, [r7, #40]	@ 0x28
 80033b2:	6afa      	ldr	r2, [r7, #44]	@ 0x2c
 80033b4:	e841 2300 	strex	r3, r2, [r1]
 80033b8:	627b      	str	r3, [r7, #36]	@ 0x24
 80033ba:	6a7b      	ldr	r3, [r7, #36]	@ 0x24
 80033bc:	2b00      	cmp	r3, #0
 80033be:	d1e5      	bne.n	800338c <UART_EndRxTransfer+0x3c>
 80033c0:	687b      	ldr	r3, [r7, #4]
 80033c2:	6b1b      	ldr	r3, [r3, #48]	@ 0x30
 80033c4:	2b01      	cmp	r3, #1
 80033c6:	d119      	bne.n	80033fc <UART_EndRxTransfer+0xac>
 80033c8:	687b      	ldr	r3, [r7, #4]
 80033ca:	681b      	ldr	r3, [r3, #0]
 80033cc:	330c      	adds	r3, #12
 80033ce:	60fb      	str	r3, [r7, #12]
 80033d0:	68fb      	ldr	r3, [r7, #12]
 80033d2:	e853 3f00 	ldrex	r3, [r3]
 80033d6:	60bb      	str	r3, [r7, #8]
 80033d8:	68bb      	ldr	r3, [r7, #8]
 80033da:	f023 0310 	bic.w	r3, r3, #16
 80033de:	647b      	str	r3, [r7, #68]	@ 0x44
 80033e0:	687b      	ldr	r3, [r7, #4]
 80033e2:	681b      	ldr	r3, [r3, #0]
 80033e4:	330c      	adds	r3, #12
 80033e6:	6c7a      	ldr	r2, [r7, #68]	@ 0x44
 80033e8:	61ba      	str	r2, [r7, #24]
 80033ea:	617b      	str	r3, [r7, #20]
 80033ec:	6979      	ldr	r1, [r7, #20]
 80033ee:	69ba      	ldr	r2, [r7, #24]
 80033f0:	e841 2300 	strex	r3, r2, [r1]
 80033f4:	613b      	str	r3, [r7, #16]
 80033f6:	693b      	ldr	r3, [r7, #16]
 80033f8:	2b00      	cmp	r3, #0
 80033fa:	d1e5      	bne.n	80033c8 <UART_EndRxTransfer+0x78>
 80033fc:	687b      	ldr	r3, [r7, #4]
 80033fe:	2220      	movs	r2, #32
 8003400:	f883 2042 	strb.w	r2, [r3, #66]	@ 0x42
 8003404:	687b      	ldr	r3, [r7, #4]
 8003406:	2200      	movs	r2, #0
 8003408:	631a      	str	r2, [r3, #48]	@ 0x30
 800340a:	bf00      	nop
 800340c:	3754      	adds	r7, #84	@ 0x54
 800340e:	46bd      	mov	sp, r7
 8003410:	f85d 7b04 	ldr.w	r7, [sp], #4
 8003414:	4770      	bx	lr
	...

08003418 <UART_SetConfig>:
 8003418:	e92d 4fb0 	stmdb	sp!, {r4, r5, r7, r8, r9, sl, fp, lr}
 800341c:	b0c0      	sub	sp, #256	@ 0x100
 800341e:	af00      	add	r7, sp, #0
 8003420:	f8c7 00f4 	str.w	r0, [r7, #244]	@ 0xf4
 8003424:	f8d7 30f4 	ldr.w	r3, [r7, #244]	@ 0xf4
 8003428:	681b      	ldr	r3, [r3, #0]
 800342a:	691b      	ldr	r3, [r3, #16]
 800342c:	f423 5040 	bic.w	r0, r3, #12288	@ 0x3000
 8003430:	f8d7 30f4 	ldr.w	r3, [r7, #244]	@ 0xf4
 8003434:	68d9      	ldr	r1, [r3, #12]
 8003436:	f8d7 30f4 	ldr.w	r3, [r7, #244]	@ 0xf4
 800343a:	681a      	ldr	r2, [r3, #0]
 800343c:	ea40 0301 	orr.w	r3, r0, r1
 8003440:	6113      	str	r3, [r2, #16]
 8003442:	f8d7 30f4 	ldr.w	r3, [r7, #244]	@ 0xf4
 8003446:	689a      	ldr	r2, [r3, #8]
 8003448:	f8d7 30f4 	ldr.w	r3, [r7, #244]	@ 0xf4
 800344c:	691b      	ldr	r3, [r3, #16]
 800344e:	431a      	orrs	r2, r3
 8003450:	f8d7 30f4 	ldr.w	r3, [r7, #244]	@ 0xf4
 8003454:	695b      	ldr	r3, [r3, #20]
 8003456:	431a      	orrs	r2, r3
 8003458:	f8d7 30f4 	ldr.w	r3, [r7, #244]	@ 0xf4
 800345c:	69db      	ldr	r3, [r3, #28]
 800345e:	4313      	orrs	r3, r2
 8003460:	f8c7 30f8 	str.w	r3, [r7, #248]	@ 0xf8
 8003464:	f8d7 30f4 	ldr.w	r3, [r7, #244]	@ 0xf4
 8003468:	681b      	ldr	r3, [r3, #0]
 800346a:	68db      	ldr	r3, [r3, #12]
 800346c:	f423 4116 	bic.w	r1, r3, #38400	@ 0x9600
 8003470:	f021 010c 	bic.w	r1, r1, #12
 8003474:	f8d7 30f4 	ldr.w	r3, [r7, #244]	@ 0xf4
 8003478:	681a      	ldr	r2, [r3, #0]
 800347a:	f8d7 30f8 	ldr.w	r3, [r7, #248]	@ 0xf8
 800347e:	430b      	orrs	r3, r1
 8003480:	60d3      	str	r3, [r2, #12]
 8003482:	f8d7 30f4 	ldr.w	r3, [r7, #244]	@ 0xf4
 8003486:	681b      	ldr	r3, [r3, #0]
 8003488:	695b      	ldr	r3, [r3, #20]
 800348a:	f423 7040 	bic.w	r0, r3, #768	@ 0x300
 800348e:	f8d7 30f4 	ldr.w	r3, [r7, #244]	@ 0xf4
 8003492:	6999      	ldr	r1, [r3, #24]
 8003494:	f8d7 30f4 	ldr.w	r3, [r7, #244]	@ 0xf4
 8003498:	681a      	ldr	r2, [r3, #0]
 800349a:	ea40 0301 	orr.w	r3, r0, r1
 800349e:	6153      	str	r3, [r2, #20]
 80034a0:	f8d7 30f4 	ldr.w	r3, [r7, #244]	@ 0xf4
 80034a4:	681a      	ldr	r2, [r3, #0]
 80034a6:	4b8f      	ldr	r3, [pc, #572]	@ (80036e4 <UART_SetConfig+0x2cc>)
 80034a8:	429a      	cmp	r2, r3
 80034aa:	d005      	beq.n	80034b8 <UART_SetConfig+0xa0>
 80034ac:	f8d7 30f4 	ldr.w	r3, [r7, #244]	@ 0xf4
 80034b0:	681a      	ldr	r2, [r3, #0]
 80034b2:	4b8d      	ldr	r3, [pc, #564]	@ (80036e8 <UART_SetConfig+0x2d0>)
 80034b4:	429a      	cmp	r2, r3
 80034b6:	d104      	bne.n	80034c2 <UART_SetConfig+0xaa>
 80034b8:	f7ff fe02 	bl	80030c0 <HAL_RCC_GetPCLK2Freq>
 80034bc:	f8c7 00fc 	str.w	r0, [r7, #252]	@ 0xfc
 80034c0:	e003      	b.n	80034ca <UART_SetConfig+0xb2>
 80034c2:	f7ff fde9 	bl	8003098 <HAL_RCC_GetPCLK1Freq>
 80034c6:	f8c7 00fc 	str.w	r0, [r7, #252]	@ 0xfc
 80034ca:	f8d7 30f4 	ldr.w	r3, [r7, #244]	@ 0xf4
 80034ce:	69db      	ldr	r3, [r3, #28]
 80034d0:	f5b3 4f00 	cmp.w	r3, #32768	@ 0x8000
 80034d4:	f040 810c 	bne.w	80036f0 <UART_SetConfig+0x2d8>
 80034d8:	f8d7 30fc 	ldr.w	r3, [r7, #252]	@ 0xfc
 80034dc:	2200      	movs	r2, #0
 80034de:	f8c7 30e8 	str.w	r3, [r7, #232]	@ 0xe8
 80034e2:	f8c7 20ec 	str.w	r2, [r7, #236]	@ 0xec
 80034e6:	e9d7 453a 	ldrd	r4, r5, [r7, #232]	@ 0xe8
 80034ea:	4622      	mov	r2, r4
 80034ec:	462b      	mov	r3, r5
 80034ee:	1891      	adds	r1, r2, r2
 80034f0:	65b9      	str	r1, [r7, #88]	@ 0x58
 80034f2:	415b      	adcs	r3, r3
 80034f4:	65fb      	str	r3, [r7, #92]	@ 0x5c
 80034f6:	e9d7 2316 	ldrd	r2, r3, [r7, #88]	@ 0x58
 80034fa:	4621      	mov	r1, r4
 80034fc:	eb12 0801 	adds.w	r8, r2, r1
 8003500:	4629      	mov	r1, r5
 8003502:	eb43 0901 	adc.w	r9, r3, r1
 8003506:	f04f 0200 	mov.w	r2, #0
 800350a:	f04f 0300 	mov.w	r3, #0
 800350e:	ea4f 03c9 	mov.w	r3, r9, lsl #3
 8003512:	ea43 7358 	orr.w	r3, r3, r8, lsr #29
 8003516:	ea4f 02c8 	mov.w	r2, r8, lsl #3
 800351a:	4690      	mov	r8, r2
 800351c:	4699      	mov	r9, r3
 800351e:	4623      	mov	r3, r4
 8003520:	eb18 0303 	adds.w	r3, r8, r3
 8003524:	f8c7 30e0 	str.w	r3, [r7, #224]	@ 0xe0
 8003528:	462b      	mov	r3, r5
 800352a:	eb49 0303 	adc.w	r3, r9, r3
 800352e:	f8c7 30e4 	str.w	r3, [r7, #228]	@ 0xe4
 8003532:	f8d7 30f4 	ldr.w	r3, [r7, #244]	@ 0xf4
 8003536:	685b      	ldr	r3, [r3, #4]
 8003538:	2200      	movs	r2, #0
 800353a:	f8c7 30d8 	str.w	r3, [r7, #216]	@ 0xd8
 800353e:	f8c7 20dc 	str.w	r2, [r7, #220]	@ 0xdc
 8003542:	e9d7 1236 	ldrd	r1, r2, [r7, #216]	@ 0xd8
 8003546:	460b      	mov	r3, r1
 8003548:	18db      	adds	r3, r3, r3
 800354a:	653b      	str	r3, [r7, #80]	@ 0x50
 800354c:	4613      	mov	r3, r2
 800354e:	eb42 0303 	adc.w	r3, r2, r3
 8003552:	657b      	str	r3, [r7, #84]	@ 0x54
 8003554:	e9d7 2314 	ldrd	r2, r3, [r7, #80]	@ 0x50
 8003558:	e9d7 0138 	ldrd	r0, r1, [r7, #224]	@ 0xe0
 800355c:	f7fd fb9c 	bl	8000c98 <__aeabi_uldivmod>
 8003560:	4602      	mov	r2, r0
 8003562:	460b      	mov	r3, r1
 8003564:	4b61      	ldr	r3, [pc, #388]	@ (80036ec <UART_SetConfig+0x2d4>)
 8003566:	fba3 2302 	umull	r2, r3, r3, r2
 800356a:	095b      	lsrs	r3, r3, #5
 800356c:	011c      	lsls	r4, r3, #4
 800356e:	f8d7 30fc 	ldr.w	r3, [r7, #252]	@ 0xfc
 8003572:	2200      	movs	r2, #0
 8003574:	f8c7 30d0 	str.w	r3, [r7, #208]	@ 0xd0
 8003578:	f8c7 20d4 	str.w	r2, [r7, #212]	@ 0xd4
 800357c:	e9d7 8934 	ldrd	r8, r9, [r7, #208]	@ 0xd0
 8003580:	4642      	mov	r2, r8
 8003582:	464b      	mov	r3, r9
 8003584:	1891      	adds	r1, r2, r2
 8003586:	64b9      	str	r1, [r7, #72]	@ 0x48
 8003588:	415b      	adcs	r3, r3
 800358a:	64fb      	str	r3, [r7, #76]	@ 0x4c
 800358c:	e9d7 2312 	ldrd	r2, r3, [r7, #72]	@ 0x48
 8003590:	4641      	mov	r1, r8
 8003592:	eb12 0a01 	adds.w	sl, r2, r1
 8003596:	4649      	mov	r1, r9
 8003598:	eb43 0b01 	adc.w	fp, r3, r1
 800359c:	f04f 0200 	mov.w	r2, #0
 80035a0:	f04f 0300 	mov.w	r3, #0
 80035a4:	ea4f 03cb 	mov.w	r3, fp, lsl #3
 80035a8:	ea43 735a 	orr.w	r3, r3, sl, lsr #29
 80035ac:	ea4f 02ca 	mov.w	r2, sl, lsl #3
 80035b0:	4692      	mov	sl, r2
 80035b2:	469b      	mov	fp, r3
 80035b4:	4643      	mov	r3, r8
 80035b6:	eb1a 0303 	adds.w	r3, sl, r3
 80035ba:	f8c7 30c8 	str.w	r3, [r7, #200]	@ 0xc8
 80035be:	464b      	mov	r3, r9
 80035c0:	eb4b 0303 	adc.w	r3, fp, r3
 80035c4:	f8c7 30cc 	str.w	r3, [r7, #204]	@ 0xcc
 80035c8:	f8d7 30f4 	ldr.w	r3, [r7, #244]	@ 0xf4
 80035cc:	685b      	ldr	r3, [r3, #4]
 80035ce:	2200      	movs	r2, #0
 80035d0:	f8c7 30c0 	str.w	r3, [r7, #192]	@ 0xc0
 80035d4:	f8c7 20c4 	str.w	r2, [r7, #196]	@ 0xc4
 80035d8:	e9d7 1230 	ldrd	r1, r2, [r7, #192]	@ 0xc0
 80035dc:	460b      	mov	r3, r1
 80035de:	18db      	adds	r3, r3, r3
 80035e0:	643b      	str	r3, [r7, #64]	@ 0x40
 80035e2:	4613      	mov	r3, r2
 80035e4:	eb42 0303 	adc.w	r3, r2, r3
 80035e8:	647b      	str	r3, [r7, #68]	@ 0x44
 80035ea:	e9d7 2310 	ldrd	r2, r3, [r7, #64]	@ 0x40
 80035ee:	e9d7 0132 	ldrd	r0, r1, [r7, #200]	@ 0xc8
 80035f2:	f7fd fb51 	bl	8000c98 <__aeabi_uldivmod>
 80035f6:	4602      	mov	r2, r0
 80035f8:	460b      	mov	r3, r1
 80035fa:	4611      	mov	r1, r2
 80035fc:	4b3b      	ldr	r3, [pc, #236]	@ (80036ec <UART_SetConfig+0x2d4>)
 80035fe:	fba3 2301 	umull	r2, r3, r3, r1
 8003602:	095b      	lsrs	r3, r3, #5
 8003604:	2264      	movs	r2, #100	@ 0x64
 8003606:	fb02 f303 	mul.w	r3, r2, r3
 800360a:	1acb      	subs	r3, r1, r3
 800360c:	00db      	lsls	r3, r3, #3
 800360e:	f103 0232 	add.w	r2, r3, #50	@ 0x32
 8003612:	4b36      	ldr	r3, [pc, #216]	@ (80036ec <UART_SetConfig+0x2d4>)
 8003614:	fba3 2302 	umull	r2, r3, r3, r2
 8003618:	095b      	lsrs	r3, r3, #5
 800361a:	005b      	lsls	r3, r3, #1
 800361c:	f403 73f8 	and.w	r3, r3, #496	@ 0x1f0
 8003620:	441c      	add	r4, r3
 8003622:	f8d7 30fc 	ldr.w	r3, [r7, #252]	@ 0xfc
 8003626:	2200      	movs	r2, #0
 8003628:	f8c7 30b8 	str.w	r3, [r7, #184]	@ 0xb8
 800362c:	f8c7 20bc 	str.w	r2, [r7, #188]	@ 0xbc
 8003630:	e9d7 892e 	ldrd	r8, r9, [r7, #184]	@ 0xb8
 8003634:	4642      	mov	r2, r8
 8003636:	464b      	mov	r3, r9
 8003638:	1891      	adds	r1, r2, r2
 800363a:	63b9      	str	r1, [r7, #56]	@ 0x38
 800363c:	415b      	adcs	r3, r3
 800363e:	63fb      	str	r3, [r7, #60]	@ 0x3c
 8003640:	e9d7 230e 	ldrd	r2, r3, [r7, #56]	@ 0x38
 8003644:	4641      	mov	r1, r8
 8003646:	1851      	adds	r1, r2, r1
 8003648:	6339      	str	r1, [r7, #48]	@ 0x30
 800364a:	4649      	mov	r1, r9
 800364c:	414b      	adcs	r3, r1
 800364e:	637b      	str	r3, [r7, #52]	@ 0x34
 8003650:	f04f 0200 	mov.w	r2, #0
 8003654:	f04f 0300 	mov.w	r3, #0
 8003658:	e9d7 ab0c 	ldrd	sl, fp, [r7, #48]	@ 0x30
 800365c:	4659      	mov	r1, fp
 800365e:	00cb      	lsls	r3, r1, #3
 8003660:	4651      	mov	r1, sl
 8003662:	ea43 7351 	orr.w	r3, r3, r1, lsr #29
 8003666:	4651      	mov	r1, sl
 8003668:	00ca      	lsls	r2, r1, #3
 800366a:	4610      	mov	r0, r2
 800366c:	4619      	mov	r1, r3
 800366e:	4603      	mov	r3, r0
 8003670:	4642      	mov	r2, r8
 8003672:	189b      	adds	r3, r3, r2
 8003674:	f8c7 30b0 	str.w	r3, [r7, #176]	@ 0xb0
 8003678:	464b      	mov	r3, r9
 800367a:	460a      	mov	r2, r1
 800367c:	eb42 0303 	adc.w	r3, r2, r3
 8003680:	f8c7 30b4 	str.w	r3, [r7, #180]	@ 0xb4
 8003684:	f8d7 30f4 	ldr.w	r3, [r7, #244]	@ 0xf4
 8003688:	685b      	ldr	r3, [r3, #4]
 800368a:	2200      	movs	r2, #0
 800368c:	f8c7 30a8 	str.w	r3, [r7, #168]	@ 0xa8
 8003690:	f8c7 20ac 	str.w	r2, [r7, #172]	@ 0xac
 8003694:	e9d7 122a 	ldrd	r1, r2, [r7, #168]	@ 0xa8
 8003698:	460b      	mov	r3, r1
 800369a:	18db      	adds	r3, r3, r3
 800369c:	62bb      	str	r3, [r7, #40]	@ 0x28
 800369e:	4613      	mov	r3, r2
 80036a0:	eb42 0303 	adc.w	r3, r2, r3
 80036a4:	62fb      	str	r3, [r7, #44]	@ 0x2c
 80036a6:	e9d7 230a 	ldrd	r2, r3, [r7, #40]	@ 0x28
 80036aa:	e9d7 012c 	ldrd	r0, r1, [r7, #176]	@ 0xb0
 80036ae:	f7fd faf3 	bl	8000c98 <__aeabi_uldivmod>
 80036b2:	4602      	mov	r2, r0
 80036b4:	460b      	mov	r3, r1
 80036b6:	4b0d      	ldr	r3, [pc, #52]	@ (80036ec <UART_SetConfig+0x2d4>)
 80036b8:	fba3 1302 	umull	r1, r3, r3, r2
 80036bc:	095b      	lsrs	r3, r3, #5
 80036be:	2164      	movs	r1, #100	@ 0x64
 80036c0:	fb01 f303 	mul.w	r3, r1, r3
 80036c4:	1ad3      	subs	r3, r2, r3
 80036c6:	00db      	lsls	r3, r3, #3
 80036c8:	3332      	adds	r3, #50	@ 0x32
 80036ca:	4a08      	ldr	r2, [pc, #32]	@ (80036ec <UART_SetConfig+0x2d4>)
 80036cc:	fba2 2303 	umull	r2, r3, r2, r3
 80036d0:	095b      	lsrs	r3, r3, #5
 80036d2:	f003 0207 	and.w	r2, r3, #7
 80036d6:	f8d7 30f4 	ldr.w	r3, [r7, #244]	@ 0xf4
 80036da:	681b      	ldr	r3, [r3, #0]
 80036dc:	4422      	add	r2, r4
 80036de:	609a      	str	r2, [r3, #8]
 80036e0:	e106      	b.n	80038f0 <UART_SetConfig+0x4d8>
 80036e2:	bf00      	nop
 80036e4:	40011000 	.word	0x40011000
 80036e8:	40011400 	.word	0x40011400
 80036ec:	51eb851f 	.word	0x51eb851f
 80036f0:	f8d7 30fc 	ldr.w	r3, [r7, #252]	@ 0xfc
 80036f4:	2200      	movs	r2, #0
 80036f6:	f8c7 30a0 	str.w	r3, [r7, #160]	@ 0xa0
 80036fa:	f8c7 20a4 	str.w	r2, [r7, #164]	@ 0xa4
 80036fe:	e9d7 8928 	ldrd	r8, r9, [r7, #160]	@ 0xa0
 8003702:	4642      	mov	r2, r8
 8003704:	464b      	mov	r3, r9
 8003706:	1891      	adds	r1, r2, r2
 8003708:	6239      	str	r1, [r7, #32]
 800370a:	415b      	adcs	r3, r3
 800370c:	627b      	str	r3, [r7, #36]	@ 0x24
 800370e:	e9d7 2308 	ldrd	r2, r3, [r7, #32]
 8003712:	4641      	mov	r1, r8
 8003714:	1854      	adds	r4, r2, r1
 8003716:	4649      	mov	r1, r9
 8003718:	eb43 0501 	adc.w	r5, r3, r1
 800371c:	f04f 0200 	mov.w	r2, #0
 8003720:	f04f 0300 	mov.w	r3, #0
 8003724:	00eb      	lsls	r3, r5, #3
 8003726:	ea43 7354 	orr.w	r3, r3, r4, lsr #29
 800372a:	00e2      	lsls	r2, r4, #3
 800372c:	4614      	mov	r4, r2
 800372e:	461d      	mov	r5, r3
 8003730:	4643      	mov	r3, r8
 8003732:	18e3      	adds	r3, r4, r3
 8003734:	f8c7 3098 	str.w	r3, [r7, #152]	@ 0x98
 8003738:	464b      	mov	r3, r9
 800373a:	eb45 0303 	adc.w	r3, r5, r3
 800373e:	f8c7 309c 	str.w	r3, [r7, #156]	@ 0x9c
 8003742:	f8d7 30f4 	ldr.w	r3, [r7, #244]	@ 0xf4
 8003746:	685b      	ldr	r3, [r3, #4]
 8003748:	2200      	movs	r2, #0
 800374a:	f8c7 3090 	str.w	r3, [r7, #144]	@ 0x90
 800374e:	f8c7 2094 	str.w	r2, [r7, #148]	@ 0x94
 8003752:	f04f 0200 	mov.w	r2, #0
 8003756:	f04f 0300 	mov.w	r3, #0
 800375a:	e9d7 4524 	ldrd	r4, r5, [r7, #144]	@ 0x90
 800375e:	4629      	mov	r1, r5
 8003760:	008b      	lsls	r3, r1, #2
 8003762:	4621      	mov	r1, r4
 8003764:	ea43 7391 	orr.w	r3, r3, r1, lsr #30
 8003768:	4621      	mov	r1, r4
 800376a:	008a      	lsls	r2, r1, #2
 800376c:	e9d7 0126 	ldrd	r0, r1, [r7, #152]	@ 0x98
 8003770:	f7fd fa92 	bl	8000c98 <__aeabi_uldivmod>
 8003774:	4602      	mov	r2, r0
 8003776:	460b      	mov	r3, r1
 8003778:	4b60      	ldr	r3, [pc, #384]	@ (80038fc <UART_SetConfig+0x4e4>)
 800377a:	fba3 2302 	umull	r2, r3, r3, r2
 800377e:	095b      	lsrs	r3, r3, #5
 8003780:	011c      	lsls	r4, r3, #4
 8003782:	f8d7 30fc 	ldr.w	r3, [r7, #252]	@ 0xfc
 8003786:	2200      	movs	r2, #0
 8003788:	f8c7 3088 	str.w	r3, [r7, #136]	@ 0x88
 800378c:	f8c7 208c 	str.w	r2, [r7, #140]	@ 0x8c
 8003790:	e9d7 8922 	ldrd	r8, r9, [r7, #136]	@ 0x88
 8003794:	4642      	mov	r2, r8
 8003796:	464b      	mov	r3, r9
 8003798:	1891      	adds	r1, r2, r2
 800379a:	61b9      	str	r1, [r7, #24]
 800379c:	415b      	adcs	r3, r3
 800379e:	61fb      	str	r3, [r7, #28]
 80037a0:	e9d7 2306 	ldrd	r2, r3, [r7, #24]
 80037a4:	4641      	mov	r1, r8
 80037a6:	1851      	adds	r1, r2, r1
 80037a8:	6139      	str	r1, [r7, #16]
 80037aa:	4649      	mov	r1, r9
 80037ac:	414b      	adcs	r3, r1
 80037ae:	617b      	str	r3, [r7, #20]
 80037b0:	f04f 0200 	mov.w	r2, #0
 80037b4:	f04f 0300 	mov.w	r3, #0
 80037b8:	e9d7 ab04 	ldrd	sl, fp, [r7, #16]
 80037bc:	4659      	mov	r1, fp
 80037be:	00cb      	lsls	r3, r1, #3
 80037c0:	4651      	mov	r1, sl
 80037c2:	ea43 7351 	orr.w	r3, r3, r1, lsr #29
 80037c6:	4651      	mov	r1, sl
 80037c8:	00ca      	lsls	r2, r1, #3
 80037ca:	4610      	mov	r0, r2
 80037cc:	4619      	mov	r1, r3
 80037ce:	4603      	mov	r3, r0
 80037d0:	4642      	mov	r2, r8
 80037d2:	189b      	adds	r3, r3, r2
 80037d4:	f8c7 3080 	str.w	r3, [r7, #128]	@ 0x80
 80037d8:	464b      	mov	r3, r9
 80037da:	460a      	mov	r2, r1
 80037dc:	eb42 0303 	adc.w	r3, r2, r3
 80037e0:	f8c7 3084 	str.w	r3, [r7, #132]	@ 0x84
 80037e4:	f8d7 30f4 	ldr.w	r3, [r7, #244]	@ 0xf4
 80037e8:	685b      	ldr	r3, [r3, #4]
 80037ea:	2200      	movs	r2, #0
 80037ec:	67bb      	str	r3, [r7, #120]	@ 0x78
 80037ee:	67fa      	str	r2, [r7, #124]	@ 0x7c
 80037f0:	f04f 0200 	mov.w	r2, #0
 80037f4:	f04f 0300 	mov.w	r3, #0
 80037f8:	e9d7 891e 	ldrd	r8, r9, [r7, #120]	@ 0x78
 80037fc:	4649      	mov	r1, r9
 80037fe:	008b      	lsls	r3, r1, #2
 8003800:	4641      	mov	r1, r8
 8003802:	ea43 7391 	orr.w	r3, r3, r1, lsr #30
 8003806:	4641      	mov	r1, r8
 8003808:	008a      	lsls	r2, r1, #2
 800380a:	e9d7 0120 	ldrd	r0, r1, [r7, #128]	@ 0x80
 800380e:	f7fd fa43 	bl	8000c98 <__aeabi_uldivmod>
 8003812:	4602      	mov	r2, r0
 8003814:	460b      	mov	r3, r1
 8003816:	4611      	mov	r1, r2
 8003818:	4b38      	ldr	r3, [pc, #224]	@ (80038fc <UART_SetConfig+0x4e4>)
 800381a:	fba3 2301 	umull	r2, r3, r3, r1
 800381e:	095b      	lsrs	r3, r3, #5
 8003820:	2264      	movs	r2, #100	@ 0x64
 8003822:	fb02 f303 	mul.w	r3, r2, r3
 8003826:	1acb      	subs	r3, r1, r3
 8003828:	011b      	lsls	r3, r3, #4
 800382a:	3332      	adds	r3, #50	@ 0x32
 800382c:	4a33      	ldr	r2, [pc, #204]	@ (80038fc <UART_SetConfig+0x4e4>)
 800382e:	fba2 2303 	umull	r2, r3, r2, r3
 8003832:	095b      	lsrs	r3, r3, #5
 8003834:	f003 03f0 	and.w	r3, r3, #240	@ 0xf0
 8003838:	441c      	add	r4, r3
 800383a:	f8d7 30fc 	ldr.w	r3, [r7, #252]	@ 0xfc
 800383e:	2200      	movs	r2, #0
 8003840:	673b      	str	r3, [r7, #112]	@ 0x70
 8003842:	677a      	str	r2, [r7, #116]	@ 0x74
 8003844:	e9d7 891c 	ldrd	r8, r9, [r7, #112]	@ 0x70
 8003848:	4642      	mov	r2, r8
 800384a:	464b      	mov	r3, r9
 800384c:	1891      	adds	r1, r2, r2
 800384e:	60b9      	str	r1, [r7, #8]
 8003850:	415b      	adcs	r3, r3
 8003852:	60fb      	str	r3, [r7, #12]
 8003854:	e9d7 2302 	ldrd	r2, r3, [r7, #8]
 8003858:	4641      	mov	r1, r8
 800385a:	1851      	adds	r1, r2, r1
 800385c:	6039      	str	r1, [r7, #0]
 800385e:	4649      	mov	r1, r9
 8003860:	414b      	adcs	r3, r1
 8003862:	607b      	str	r3, [r7, #4]
 8003864:	f04f 0200 	mov.w	r2, #0
 8003868:	f04f 0300 	mov.w	r3, #0
 800386c:	e9d7 ab00 	ldrd	sl, fp, [r7]
 8003870:	4659      	mov	r1, fp
 8003872:	00cb      	lsls	r3, r1, #3
 8003874:	4651      	mov	r1, sl
 8003876:	ea43 7351 	orr.w	r3, r3, r1, lsr #29
 800387a:	4651      	mov	r1, sl
 800387c:	00ca      	lsls	r2, r1, #3
 800387e:	4610      	mov	r0, r2
 8003880:	4619      	mov	r1, r3
 8003882:	4603      	mov	r3, r0
 8003884:	4642      	mov	r2, r8
 8003886:	189b      	adds	r3, r3, r2
 8003888:	66bb      	str	r3, [r7, #104]	@ 0x68
 800388a:	464b      	mov	r3, r9
 800388c:	460a      	mov	r2, r1
 800388e:	eb42 0303 	adc.w	r3, r2, r3
 8003892:	66fb      	str	r3, [r7, #108]	@ 0x6c
 8003894:	f8d7 30f4 	ldr.w	r3, [r7, #244]	@ 0xf4
 8003898:	685b      	ldr	r3, [r3, #4]
 800389a:	2200      	movs	r2, #0
 800389c:	663b      	str	r3, [r7, #96]	@ 0x60
 800389e:	667a      	str	r2, [r7, #100]	@ 0x64
 80038a0:	f04f 0200 	mov.w	r2, #0
 80038a4:	f04f 0300 	mov.w	r3, #0
 80038a8:	e9d7 8918 	ldrd	r8, r9, [r7, #96]	@ 0x60
 80038ac:	4649      	mov	r1, r9
 80038ae:	008b      	lsls	r3, r1, #2
 80038b0:	4641      	mov	r1, r8
 80038b2:	ea43 7391 	orr.w	r3, r3, r1, lsr #30
 80038b6:	4641      	mov	r1, r8
 80038b8:	008a      	lsls	r2, r1, #2
 80038ba:	e9d7 011a 	ldrd	r0, r1, [r7, #104]	@ 0x68
 80038be:	f7fd f9eb 	bl	8000c98 <__aeabi_uldivmod>
 80038c2:	4602      	mov	r2, r0
 80038c4:	460b      	mov	r3, r1
 80038c6:	4b0d      	ldr	r3, [pc, #52]	@ (80038fc <UART_SetConfig+0x4e4>)
 80038c8:	fba3 1302 	umull	r1, r3, r3, r2
 80038cc:	095b      	lsrs	r3, r3, #5
 80038ce:	2164      	movs	r1, #100	@ 0x64
 80038d0:	fb01 f303 	mul.w	r3, r1, r3
 80038d4:	1ad3      	subs	r3, r2, r3
 80038d6:	011b      	lsls	r3, r3, #4
 80038d8:	3332      	adds	r3, #50	@ 0x32
 80038da:	4a08      	ldr	r2, [pc, #32]	@ (80038fc <UART_SetConfig+0x4e4>)
 80038dc:	fba2 2303 	umull	r2, r3, r2, r3
 80038e0:	095b      	lsrs	r3, r3, #5
 80038e2:	f003 020f 	and.w	r2, r3, #15
 80038e6:	f8d7 30f4 	ldr.w	r3, [r7, #244]	@ 0xf4
 80038ea:	681b      	ldr	r3, [r3, #0]
 80038ec:	4422      	add	r2, r4
 80038ee:	609a      	str	r2, [r3, #8]
 80038f0:	bf00      	nop
 80038f2:	f507 7780 	add.w	r7, r7, #256	@ 0x100
 80038f6:	46bd      	mov	sp, r7
 80038f8:	e8bd 8fb0 	ldmia.w	sp!, {r4, r5, r7, r8, r9, sl, fp, pc}
 80038fc:	51eb851f 	.word	0x51eb851f

08003900 <__cvt>:
 8003900:	e92d 47ff 	stmdb	sp!, {r0, r1, r2, r3, r4, r5, r6, r7, r8, r9, sl, lr}
 8003904:	ec57 6b10 	vmov	r6, r7, d0
 8003908:	2f00      	cmp	r7, #0
 800390a:	460c      	mov	r4, r1
 800390c:	4619      	mov	r1, r3
 800390e:	463b      	mov	r3, r7
 8003910:	bfbb      	ittet	lt
 8003912:	f107 4300 	addlt.w	r3, r7, #2147483648	@ 0x80000000
 8003916:	461f      	movlt	r7, r3
 8003918:	2300      	movge	r3, #0
 800391a:	232d      	movlt	r3, #45	@ 0x2d
 800391c:	700b      	strb	r3, [r1, #0]
 800391e:	9b0d      	ldr	r3, [sp, #52]	@ 0x34
 8003920:	f8dd a030 	ldr.w	sl, [sp, #48]	@ 0x30
 8003924:	4691      	mov	r9, r2
 8003926:	f023 0820 	bic.w	r8, r3, #32
 800392a:	bfbc      	itt	lt
 800392c:	4632      	movlt	r2, r6
 800392e:	4616      	movlt	r6, r2
 8003930:	f1b8 0f46 	cmp.w	r8, #70	@ 0x46
 8003934:	d005      	beq.n	8003942 <__cvt+0x42>
 8003936:	f1b8 0f45 	cmp.w	r8, #69	@ 0x45
 800393a:	d100      	bne.n	800393e <__cvt+0x3e>
 800393c:	3401      	adds	r4, #1
 800393e:	2102      	movs	r1, #2
 8003940:	e000      	b.n	8003944 <__cvt+0x44>
 8003942:	2103      	movs	r1, #3
 8003944:	ab03      	add	r3, sp, #12
 8003946:	9301      	str	r3, [sp, #4]
 8003948:	ab02      	add	r3, sp, #8
 800394a:	9300      	str	r3, [sp, #0]
 800394c:	ec47 6b10 	vmov	d0, r6, r7
 8003950:	4653      	mov	r3, sl
 8003952:	4622      	mov	r2, r4
 8003954:	f001 f978 	bl	8004c48 <_dtoa_r>
 8003958:	f1b8 0f47 	cmp.w	r8, #71	@ 0x47
 800395c:	4605      	mov	r5, r0
 800395e:	d119      	bne.n	8003994 <__cvt+0x94>
 8003960:	f019 0f01 	tst.w	r9, #1
 8003964:	d00e      	beq.n	8003984 <__cvt+0x84>
 8003966:	eb00 0904 	add.w	r9, r0, r4
 800396a:	2200      	movs	r2, #0
 800396c:	2300      	movs	r3, #0
 800396e:	4630      	mov	r0, r6
 8003970:	4639      	mov	r1, r7
 8003972:	f7fd f8b1 	bl	8000ad8 <__aeabi_dcmpeq>
 8003976:	b108      	cbz	r0, 800397c <__cvt+0x7c>
 8003978:	f8cd 900c 	str.w	r9, [sp, #12]
 800397c:	2230      	movs	r2, #48	@ 0x30
 800397e:	9b03      	ldr	r3, [sp, #12]
 8003980:	454b      	cmp	r3, r9
 8003982:	d31e      	bcc.n	80039c2 <__cvt+0xc2>
 8003984:	9b03      	ldr	r3, [sp, #12]
 8003986:	9a0e      	ldr	r2, [sp, #56]	@ 0x38
 8003988:	1b5b      	subs	r3, r3, r5
 800398a:	4628      	mov	r0, r5
 800398c:	6013      	str	r3, [r2, #0]
 800398e:	b004      	add	sp, #16
 8003990:	e8bd 87f0 	ldmia.w	sp!, {r4, r5, r6, r7, r8, r9, sl, pc}
 8003994:	f1b8 0f46 	cmp.w	r8, #70	@ 0x46
 8003998:	eb00 0904 	add.w	r9, r0, r4
 800399c:	d1e5      	bne.n	800396a <__cvt+0x6a>
 800399e:	7803      	ldrb	r3, [r0, #0]
 80039a0:	2b30      	cmp	r3, #48	@ 0x30
 80039a2:	d10a      	bne.n	80039ba <__cvt+0xba>
 80039a4:	2200      	movs	r2, #0
 80039a6:	2300      	movs	r3, #0
 80039a8:	4630      	mov	r0, r6
 80039aa:	4639      	mov	r1, r7
 80039ac:	f7fd f894 	bl	8000ad8 <__aeabi_dcmpeq>
 80039b0:	b918      	cbnz	r0, 80039ba <__cvt+0xba>
 80039b2:	f1c4 0401 	rsb	r4, r4, #1
 80039b6:	f8ca 4000 	str.w	r4, [sl]
 80039ba:	f8da 3000 	ldr.w	r3, [sl]
 80039be:	4499      	add	r9, r3
 80039c0:	e7d3      	b.n	800396a <__cvt+0x6a>
 80039c2:	1c59      	adds	r1, r3, #1
 80039c4:	9103      	str	r1, [sp, #12]
 80039c6:	701a      	strb	r2, [r3, #0]
 80039c8:	e7d9      	b.n	800397e <__cvt+0x7e>

080039ca <__exponent>:
 80039ca:	b5f7      	push	{r0, r1, r2, r4, r5, r6, r7, lr}
 80039cc:	2900      	cmp	r1, #0
 80039ce:	bfba      	itte	lt
 80039d0:	4249      	neglt	r1, r1
 80039d2:	232d      	movlt	r3, #45	@ 0x2d
 80039d4:	232b      	movge	r3, #43	@ 0x2b
 80039d6:	2909      	cmp	r1, #9
 80039d8:	7002      	strb	r2, [r0, #0]
 80039da:	7043      	strb	r3, [r0, #1]
 80039dc:	dd29      	ble.n	8003a32 <__exponent+0x68>
 80039de:	f10d 0307 	add.w	r3, sp, #7
 80039e2:	461d      	mov	r5, r3
 80039e4:	270a      	movs	r7, #10
 80039e6:	461a      	mov	r2, r3
 80039e8:	fbb1 f6f7 	udiv	r6, r1, r7
 80039ec:	fb07 1416 	mls	r4, r7, r6, r1
 80039f0:	3430      	adds	r4, #48	@ 0x30
 80039f2:	f802 4c01 	strb.w	r4, [r2, #-1]
 80039f6:	460c      	mov	r4, r1
 80039f8:	2c63      	cmp	r4, #99	@ 0x63
 80039fa:	f103 33ff 	add.w	r3, r3, #4294967295
 80039fe:	4631      	mov	r1, r6
 8003a00:	dcf1      	bgt.n	80039e6 <__exponent+0x1c>
 8003a02:	3130      	adds	r1, #48	@ 0x30
 8003a04:	1e94      	subs	r4, r2, #2
 8003a06:	f803 1c01 	strb.w	r1, [r3, #-1]
 8003a0a:	1c41      	adds	r1, r0, #1
 8003a0c:	4623      	mov	r3, r4
 8003a0e:	42ab      	cmp	r3, r5
 8003a10:	d30a      	bcc.n	8003a28 <__exponent+0x5e>
 8003a12:	f10d 0309 	add.w	r3, sp, #9
 8003a16:	1a9b      	subs	r3, r3, r2
 8003a18:	42ac      	cmp	r4, r5
 8003a1a:	bf88      	it	hi
 8003a1c:	2300      	movhi	r3, #0
 8003a1e:	3302      	adds	r3, #2
 8003a20:	4403      	add	r3, r0
 8003a22:	1a18      	subs	r0, r3, r0
 8003a24:	b003      	add	sp, #12
 8003a26:	bdf0      	pop	{r4, r5, r6, r7, pc}
 8003a28:	f813 6b01 	ldrb.w	r6, [r3], #1
 8003a2c:	f801 6f01 	strb.w	r6, [r1, #1]!
 8003a30:	e7ed      	b.n	8003a0e <__exponent+0x44>
 8003a32:	2330      	movs	r3, #48	@ 0x30
 8003a34:	3130      	adds	r1, #48	@ 0x30
 8003a36:	7083      	strb	r3, [r0, #2]
 8003a38:	70c1      	strb	r1, [r0, #3]
 8003a3a:	1d03      	adds	r3, r0, #4
 8003a3c:	e7f1      	b.n	8003a22 <__exponent+0x58>
	...

08003a40 <_printf_float>:
 8003a40:	e92d 4ff0 	stmdb	sp!, {r4, r5, r6, r7, r8, r9, sl, fp, lr}
 8003a44:	b08d      	sub	sp, #52	@ 0x34
 8003a46:	460c      	mov	r4, r1
 8003a48:	f8dd 8058 	ldr.w	r8, [sp, #88]	@ 0x58
 8003a4c:	4616      	mov	r6, r2
 8003a4e:	461f      	mov	r7, r3
 8003a50:	4605      	mov	r5, r0
 8003a52:	f000 fff3 	bl	8004a3c <_localeconv_r>
 8003a56:	6803      	ldr	r3, [r0, #0]
 8003a58:	9304      	str	r3, [sp, #16]
 8003a5a:	4618      	mov	r0, r3
 8003a5c:	f7fc fc10 	bl	8000280 <strlen>
 8003a60:	2300      	movs	r3, #0
 8003a62:	930a      	str	r3, [sp, #40]	@ 0x28
 8003a64:	f8d8 3000 	ldr.w	r3, [r8]
 8003a68:	9005      	str	r0, [sp, #20]
 8003a6a:	3307      	adds	r3, #7
 8003a6c:	f023 0307 	bic.w	r3, r3, #7
 8003a70:	f103 0208 	add.w	r2, r3, #8
 8003a74:	f894 a018 	ldrb.w	sl, [r4, #24]
 8003a78:	f8d4 b000 	ldr.w	fp, [r4]
 8003a7c:	f8c8 2000 	str.w	r2, [r8]
 8003a80:	e9d3 8900 	ldrd	r8, r9, [r3]
 8003a84:	f029 4300 	bic.w	r3, r9, #2147483648	@ 0x80000000
 8003a88:	9307      	str	r3, [sp, #28]
 8003a8a:	f8cd 8018 	str.w	r8, [sp, #24]
 8003a8e:	e9c4 8912 	strd	r8, r9, [r4, #72]	@ 0x48
 8003a92:	e9dd 0106 	ldrd	r0, r1, [sp, #24]
 8003a96:	4b9c      	ldr	r3, [pc, #624]	@ (8003d08 <_printf_float+0x2c8>)
 8003a98:	f04f 32ff 	mov.w	r2, #4294967295
 8003a9c:	f7fd f84e 	bl	8000b3c <__aeabi_dcmpun>
 8003aa0:	bb70      	cbnz	r0, 8003b00 <_printf_float+0xc0>
 8003aa2:	e9dd 0106 	ldrd	r0, r1, [sp, #24]
 8003aa6:	4b98      	ldr	r3, [pc, #608]	@ (8003d08 <_printf_float+0x2c8>)
 8003aa8:	f04f 32ff 	mov.w	r2, #4294967295
 8003aac:	f7fd f828 	bl	8000b00 <__aeabi_dcmple>
 8003ab0:	bb30      	cbnz	r0, 8003b00 <_printf_float+0xc0>
 8003ab2:	2200      	movs	r2, #0
 8003ab4:	2300      	movs	r3, #0
 8003ab6:	4640      	mov	r0, r8
 8003ab8:	4649      	mov	r1, r9
 8003aba:	f7fd f817 	bl	8000aec <__aeabi_dcmplt>
 8003abe:	b110      	cbz	r0, 8003ac6 <_printf_float+0x86>
 8003ac0:	232d      	movs	r3, #45	@ 0x2d
 8003ac2:	f884 3043 	strb.w	r3, [r4, #67]	@ 0x43
 8003ac6:	4a91      	ldr	r2, [pc, #580]	@ (8003d0c <_printf_float+0x2cc>)
 8003ac8:	4b91      	ldr	r3, [pc, #580]	@ (8003d10 <_printf_float+0x2d0>)
 8003aca:	f1ba 0f47 	cmp.w	sl, #71	@ 0x47
 8003ace:	bf94      	ite	ls
 8003ad0:	4690      	movls	r8, r2
 8003ad2:	4698      	movhi	r8, r3
 8003ad4:	2303      	movs	r3, #3
 8003ad6:	6123      	str	r3, [r4, #16]
 8003ad8:	f02b 0304 	bic.w	r3, fp, #4
 8003adc:	6023      	str	r3, [r4, #0]
 8003ade:	f04f 0900 	mov.w	r9, #0
 8003ae2:	9700      	str	r7, [sp, #0]
 8003ae4:	4633      	mov	r3, r6
 8003ae6:	aa0b      	add	r2, sp, #44	@ 0x2c
 8003ae8:	4621      	mov	r1, r4
 8003aea:	4628      	mov	r0, r5
 8003aec:	f000 f9d2 	bl	8003e94 <_printf_common>
 8003af0:	3001      	adds	r0, #1
 8003af2:	f040 808d 	bne.w	8003c10 <_printf_float+0x1d0>
 8003af6:	f04f 30ff 	mov.w	r0, #4294967295
 8003afa:	b00d      	add	sp, #52	@ 0x34
 8003afc:	e8bd 8ff0 	ldmia.w	sp!, {r4, r5, r6, r7, r8, r9, sl, fp, pc}
 8003b00:	4642      	mov	r2, r8
 8003b02:	464b      	mov	r3, r9
 8003b04:	4640      	mov	r0, r8
 8003b06:	4649      	mov	r1, r9
 8003b08:	f7fd f818 	bl	8000b3c <__aeabi_dcmpun>
 8003b0c:	b140      	cbz	r0, 8003b20 <_printf_float+0xe0>
 8003b0e:	464b      	mov	r3, r9
 8003b10:	2b00      	cmp	r3, #0
 8003b12:	bfbc      	itt	lt
 8003b14:	232d      	movlt	r3, #45	@ 0x2d
 8003b16:	f884 3043 	strblt.w	r3, [r4, #67]	@ 0x43
 8003b1a:	4a7e      	ldr	r2, [pc, #504]	@ (8003d14 <_printf_float+0x2d4>)
 8003b1c:	4b7e      	ldr	r3, [pc, #504]	@ (8003d18 <_printf_float+0x2d8>)
 8003b1e:	e7d4      	b.n	8003aca <_printf_float+0x8a>
 8003b20:	6863      	ldr	r3, [r4, #4]
 8003b22:	f00a 02df 	and.w	r2, sl, #223	@ 0xdf
 8003b26:	9206      	str	r2, [sp, #24]
 8003b28:	1c5a      	adds	r2, r3, #1
 8003b2a:	d13b      	bne.n	8003ba4 <_printf_float+0x164>
 8003b2c:	2306      	movs	r3, #6
 8003b2e:	6063      	str	r3, [r4, #4]
 8003b30:	f44b 6280 	orr.w	r2, fp, #1024	@ 0x400
 8003b34:	2300      	movs	r3, #0
 8003b36:	6022      	str	r2, [r4, #0]
 8003b38:	9303      	str	r3, [sp, #12]
 8003b3a:	ab0a      	add	r3, sp, #40	@ 0x28
 8003b3c:	e9cd a301 	strd	sl, r3, [sp, #4]
 8003b40:	ab09      	add	r3, sp, #36	@ 0x24
 8003b42:	9300      	str	r3, [sp, #0]
 8003b44:	6861      	ldr	r1, [r4, #4]
 8003b46:	ec49 8b10 	vmov	d0, r8, r9
 8003b4a:	f10d 0323 	add.w	r3, sp, #35	@ 0x23
 8003b4e:	4628      	mov	r0, r5
 8003b50:	f7ff fed6 	bl	8003900 <__cvt>
 8003b54:	9b06      	ldr	r3, [sp, #24]
 8003b56:	9909      	ldr	r1, [sp, #36]	@ 0x24
 8003b58:	2b47      	cmp	r3, #71	@ 0x47
 8003b5a:	4680      	mov	r8, r0
 8003b5c:	d129      	bne.n	8003bb2 <_printf_float+0x172>
 8003b5e:	1cc8      	adds	r0, r1, #3
 8003b60:	db02      	blt.n	8003b68 <_printf_float+0x128>
 8003b62:	6863      	ldr	r3, [r4, #4]
 8003b64:	4299      	cmp	r1, r3
 8003b66:	dd41      	ble.n	8003bec <_printf_float+0x1ac>
 8003b68:	f1aa 0a02 	sub.w	sl, sl, #2
 8003b6c:	fa5f fa8a 	uxtb.w	sl, sl
 8003b70:	3901      	subs	r1, #1
 8003b72:	4652      	mov	r2, sl
 8003b74:	f104 0050 	add.w	r0, r4, #80	@ 0x50
 8003b78:	9109      	str	r1, [sp, #36]	@ 0x24
 8003b7a:	f7ff ff26 	bl	80039ca <__exponent>
 8003b7e:	9a0a      	ldr	r2, [sp, #40]	@ 0x28
 8003b80:	1813      	adds	r3, r2, r0
 8003b82:	2a01      	cmp	r2, #1
 8003b84:	4681      	mov	r9, r0
 8003b86:	6123      	str	r3, [r4, #16]
 8003b88:	dc02      	bgt.n	8003b90 <_printf_float+0x150>
 8003b8a:	6822      	ldr	r2, [r4, #0]
 8003b8c:	07d2      	lsls	r2, r2, #31
 8003b8e:	d501      	bpl.n	8003b94 <_printf_float+0x154>
 8003b90:	3301      	adds	r3, #1
 8003b92:	6123      	str	r3, [r4, #16]
 8003b94:	f89d 3023 	ldrb.w	r3, [sp, #35]	@ 0x23
 8003b98:	2b00      	cmp	r3, #0
 8003b9a:	d0a2      	beq.n	8003ae2 <_printf_float+0xa2>
 8003b9c:	232d      	movs	r3, #45	@ 0x2d
 8003b9e:	f884 3043 	strb.w	r3, [r4, #67]	@ 0x43
 8003ba2:	e79e      	b.n	8003ae2 <_printf_float+0xa2>
 8003ba4:	9a06      	ldr	r2, [sp, #24]
 8003ba6:	2a47      	cmp	r2, #71	@ 0x47
 8003ba8:	d1c2      	bne.n	8003b30 <_printf_float+0xf0>
 8003baa:	2b00      	cmp	r3, #0
 8003bac:	d1c0      	bne.n	8003b30 <_printf_float+0xf0>
 8003bae:	2301      	movs	r3, #1
 8003bb0:	e7bd      	b.n	8003b2e <_printf_float+0xee>
 8003bb2:	f1ba 0f65 	cmp.w	sl, #101	@ 0x65
 8003bb6:	d9db      	bls.n	8003b70 <_printf_float+0x130>
 8003bb8:	f1ba 0f66 	cmp.w	sl, #102	@ 0x66
 8003bbc:	d118      	bne.n	8003bf0 <_printf_float+0x1b0>
 8003bbe:	2900      	cmp	r1, #0
 8003bc0:	6863      	ldr	r3, [r4, #4]
 8003bc2:	dd0b      	ble.n	8003bdc <_printf_float+0x19c>
 8003bc4:	6121      	str	r1, [r4, #16]
 8003bc6:	b913      	cbnz	r3, 8003bce <_printf_float+0x18e>
 8003bc8:	6822      	ldr	r2, [r4, #0]
 8003bca:	07d0      	lsls	r0, r2, #31
 8003bcc:	d502      	bpl.n	8003bd4 <_printf_float+0x194>
 8003bce:	3301      	adds	r3, #1
 8003bd0:	440b      	add	r3, r1
 8003bd2:	6123      	str	r3, [r4, #16]
 8003bd4:	65a1      	str	r1, [r4, #88]	@ 0x58
 8003bd6:	f04f 0900 	mov.w	r9, #0
 8003bda:	e7db      	b.n	8003b94 <_printf_float+0x154>
 8003bdc:	b913      	cbnz	r3, 8003be4 <_printf_float+0x1a4>
 8003bde:	6822      	ldr	r2, [r4, #0]
 8003be0:	07d2      	lsls	r2, r2, #31
 8003be2:	d501      	bpl.n	8003be8 <_printf_float+0x1a8>
 8003be4:	3302      	adds	r3, #2
 8003be6:	e7f4      	b.n	8003bd2 <_printf_float+0x192>
 8003be8:	2301      	movs	r3, #1
 8003bea:	e7f2      	b.n	8003bd2 <_printf_float+0x192>
 8003bec:	f04f 0a67 	mov.w	sl, #103	@ 0x67
 8003bf0:	9b0a      	ldr	r3, [sp, #40]	@ 0x28
 8003bf2:	4299      	cmp	r1, r3
 8003bf4:	db05      	blt.n	8003c02 <_printf_float+0x1c2>
 8003bf6:	6823      	ldr	r3, [r4, #0]
 8003bf8:	6121      	str	r1, [r4, #16]
 8003bfa:	07d8      	lsls	r0, r3, #31
 8003bfc:	d5ea      	bpl.n	8003bd4 <_printf_float+0x194>
 8003bfe:	1c4b      	adds	r3, r1, #1
 8003c00:	e7e7      	b.n	8003bd2 <_printf_float+0x192>
 8003c02:	2900      	cmp	r1, #0
 8003c04:	bfd4      	ite	le
 8003c06:	f1c1 0202 	rsble	r2, r1, #2
 8003c0a:	2201      	movgt	r2, #1
 8003c0c:	4413      	add	r3, r2
 8003c0e:	e7e0      	b.n	8003bd2 <_printf_float+0x192>
 8003c10:	6823      	ldr	r3, [r4, #0]
 8003c12:	055a      	lsls	r2, r3, #21
 8003c14:	d407      	bmi.n	8003c26 <_printf_float+0x1e6>
 8003c16:	6923      	ldr	r3, [r4, #16]
 8003c18:	4642      	mov	r2, r8
 8003c1a:	4631      	mov	r1, r6
 8003c1c:	4628      	mov	r0, r5
 8003c1e:	47b8      	blx	r7
 8003c20:	3001      	adds	r0, #1
 8003c22:	d12b      	bne.n	8003c7c <_printf_float+0x23c>
 8003c24:	e767      	b.n	8003af6 <_printf_float+0xb6>
 8003c26:	f1ba 0f65 	cmp.w	sl, #101	@ 0x65
 8003c2a:	f240 80dd 	bls.w	8003de8 <_printf_float+0x3a8>
 8003c2e:	e9d4 0112 	ldrd	r0, r1, [r4, #72]	@ 0x48
 8003c32:	2200      	movs	r2, #0
 8003c34:	2300      	movs	r3, #0
 8003c36:	f7fc ff4f 	bl	8000ad8 <__aeabi_dcmpeq>
 8003c3a:	2800      	cmp	r0, #0
 8003c3c:	d033      	beq.n	8003ca6 <_printf_float+0x266>
 8003c3e:	4a37      	ldr	r2, [pc, #220]	@ (8003d1c <_printf_float+0x2dc>)
 8003c40:	2301      	movs	r3, #1
 8003c42:	4631      	mov	r1, r6
 8003c44:	4628      	mov	r0, r5
 8003c46:	47b8      	blx	r7
 8003c48:	3001      	adds	r0, #1
 8003c4a:	f43f af54 	beq.w	8003af6 <_printf_float+0xb6>
 8003c4e:	e9dd 3809 	ldrd	r3, r8, [sp, #36]	@ 0x24
 8003c52:	4543      	cmp	r3, r8
 8003c54:	db02      	blt.n	8003c5c <_printf_float+0x21c>
 8003c56:	6823      	ldr	r3, [r4, #0]
 8003c58:	07d8      	lsls	r0, r3, #31
 8003c5a:	d50f      	bpl.n	8003c7c <_printf_float+0x23c>
 8003c5c:	e9dd 2304 	ldrd	r2, r3, [sp, #16]
 8003c60:	4631      	mov	r1, r6
 8003c62:	4628      	mov	r0, r5
 8003c64:	47b8      	blx	r7
 8003c66:	3001      	adds	r0, #1
 8003c68:	f43f af45 	beq.w	8003af6 <_printf_float+0xb6>
 8003c6c:	f04f 0900 	mov.w	r9, #0
 8003c70:	f108 38ff 	add.w	r8, r8, #4294967295
 8003c74:	f104 0a1a 	add.w	sl, r4, #26
 8003c78:	45c8      	cmp	r8, r9
 8003c7a:	dc09      	bgt.n	8003c90 <_printf_float+0x250>
 8003c7c:	6823      	ldr	r3, [r4, #0]
 8003c7e:	079b      	lsls	r3, r3, #30
 8003c80:	f100 8103 	bmi.w	8003e8a <_printf_float+0x44a>
 8003c84:	68e0      	ldr	r0, [r4, #12]
 8003c86:	9b0b      	ldr	r3, [sp, #44]	@ 0x2c
 8003c88:	4298      	cmp	r0, r3
 8003c8a:	bfb8      	it	lt
 8003c8c:	4618      	movlt	r0, r3
 8003c8e:	e734      	b.n	8003afa <_printf_float+0xba>
 8003c90:	2301      	movs	r3, #1
 8003c92:	4652      	mov	r2, sl
 8003c94:	4631      	mov	r1, r6
 8003c96:	4628      	mov	r0, r5
 8003c98:	47b8      	blx	r7
 8003c9a:	3001      	adds	r0, #1
 8003c9c:	f43f af2b 	beq.w	8003af6 <_printf_float+0xb6>
 8003ca0:	f109 0901 	add.w	r9, r9, #1
 8003ca4:	e7e8      	b.n	8003c78 <_printf_float+0x238>
 8003ca6:	9b09      	ldr	r3, [sp, #36]	@ 0x24
 8003ca8:	2b00      	cmp	r3, #0
 8003caa:	dc39      	bgt.n	8003d20 <_printf_float+0x2e0>
 8003cac:	4a1b      	ldr	r2, [pc, #108]	@ (8003d1c <_printf_float+0x2dc>)
 8003cae:	2301      	movs	r3, #1
 8003cb0:	4631      	mov	r1, r6
 8003cb2:	4628      	mov	r0, r5
 8003cb4:	47b8      	blx	r7
 8003cb6:	3001      	adds	r0, #1
 8003cb8:	f43f af1d 	beq.w	8003af6 <_printf_float+0xb6>
 8003cbc:	e9dd 3909 	ldrd	r3, r9, [sp, #36]	@ 0x24
 8003cc0:	ea59 0303 	orrs.w	r3, r9, r3
 8003cc4:	d102      	bne.n	8003ccc <_printf_float+0x28c>
 8003cc6:	6823      	ldr	r3, [r4, #0]
 8003cc8:	07d9      	lsls	r1, r3, #31
 8003cca:	d5d7      	bpl.n	8003c7c <_printf_float+0x23c>
 8003ccc:	e9dd 2304 	ldrd	r2, r3, [sp, #16]
 8003cd0:	4631      	mov	r1, r6
 8003cd2:	4628      	mov	r0, r5
 8003cd4:	47b8      	blx	r7
 8003cd6:	3001      	adds	r0, #1
 8003cd8:	f43f af0d 	beq.w	8003af6 <_printf_float+0xb6>
 8003cdc:	f04f 0a00 	mov.w	sl, #0
 8003ce0:	f104 0b1a 	add.w	fp, r4, #26
 8003ce4:	9b09      	ldr	r3, [sp, #36]	@ 0x24
 8003ce6:	425b      	negs	r3, r3
 8003ce8:	4553      	cmp	r3, sl
 8003cea:	dc01      	bgt.n	8003cf0 <_printf_float+0x2b0>
 8003cec:	464b      	mov	r3, r9
 8003cee:	e793      	b.n	8003c18 <_printf_float+0x1d8>
 8003cf0:	2301      	movs	r3, #1
 8003cf2:	465a      	mov	r2, fp
 8003cf4:	4631      	mov	r1, r6
 8003cf6:	4628      	mov	r0, r5
 8003cf8:	47b8      	blx	r7
 8003cfa:	3001      	adds	r0, #1
 8003cfc:	f43f aefb 	beq.w	8003af6 <_printf_float+0xb6>
 8003d00:	f10a 0a01 	add.w	sl, sl, #1
 8003d04:	e7ee      	b.n	8003ce4 <_printf_float+0x2a4>
 8003d06:	bf00      	nop
 8003d08:	7fefffff 	.word	0x7fefffff
 8003d0c:	0800853c 	.word	0x0800853c
 8003d10:	08008540 	.word	0x08008540
 8003d14:	08008544 	.word	0x08008544
 8003d18:	08008548 	.word	0x08008548
 8003d1c:	0800854c 	.word	0x0800854c
 8003d20:	6da3      	ldr	r3, [r4, #88]	@ 0x58
 8003d22:	f8dd a028 	ldr.w	sl, [sp, #40]	@ 0x28
 8003d26:	4553      	cmp	r3, sl
 8003d28:	bfa8      	it	ge
 8003d2a:	4653      	movge	r3, sl
 8003d2c:	2b00      	cmp	r3, #0
 8003d2e:	4699      	mov	r9, r3
 8003d30:	dc36      	bgt.n	8003da0 <_printf_float+0x360>
 8003d32:	f04f 0b00 	mov.w	fp, #0
 8003d36:	ea29 79e9 	bic.w	r9, r9, r9, asr #31
 8003d3a:	f104 021a 	add.w	r2, r4, #26
 8003d3e:	6da3      	ldr	r3, [r4, #88]	@ 0x58
 8003d40:	9306      	str	r3, [sp, #24]
 8003d42:	eba3 0309 	sub.w	r3, r3, r9
 8003d46:	455b      	cmp	r3, fp
 8003d48:	dc31      	bgt.n	8003dae <_printf_float+0x36e>
 8003d4a:	9b09      	ldr	r3, [sp, #36]	@ 0x24
 8003d4c:	459a      	cmp	sl, r3
 8003d4e:	dc3a      	bgt.n	8003dc6 <_printf_float+0x386>
 8003d50:	6823      	ldr	r3, [r4, #0]
 8003d52:	07da      	lsls	r2, r3, #31
 8003d54:	d437      	bmi.n	8003dc6 <_printf_float+0x386>
 8003d56:	9b09      	ldr	r3, [sp, #36]	@ 0x24
 8003d58:	ebaa 0903 	sub.w	r9, sl, r3
 8003d5c:	9b06      	ldr	r3, [sp, #24]
 8003d5e:	ebaa 0303 	sub.w	r3, sl, r3
 8003d62:	4599      	cmp	r9, r3
 8003d64:	bfa8      	it	ge
 8003d66:	4699      	movge	r9, r3
 8003d68:	f1b9 0f00 	cmp.w	r9, #0
 8003d6c:	dc33      	bgt.n	8003dd6 <_printf_float+0x396>
 8003d6e:	f04f 0800 	mov.w	r8, #0
 8003d72:	ea29 79e9 	bic.w	r9, r9, r9, asr #31
 8003d76:	f104 0b1a 	add.w	fp, r4, #26
 8003d7a:	9b09      	ldr	r3, [sp, #36]	@ 0x24
 8003d7c:	ebaa 0303 	sub.w	r3, sl, r3
 8003d80:	eba3 0309 	sub.w	r3, r3, r9
 8003d84:	4543      	cmp	r3, r8
 8003d86:	f77f af79 	ble.w	8003c7c <_printf_float+0x23c>
 8003d8a:	2301      	movs	r3, #1
 8003d8c:	465a      	mov	r2, fp
 8003d8e:	4631      	mov	r1, r6
 8003d90:	4628      	mov	r0, r5
 8003d92:	47b8      	blx	r7
 8003d94:	3001      	adds	r0, #1
 8003d96:	f43f aeae 	beq.w	8003af6 <_printf_float+0xb6>
 8003d9a:	f108 0801 	add.w	r8, r8, #1
 8003d9e:	e7ec      	b.n	8003d7a <_printf_float+0x33a>
 8003da0:	4642      	mov	r2, r8
 8003da2:	4631      	mov	r1, r6
 8003da4:	4628      	mov	r0, r5
 8003da6:	47b8      	blx	r7
 8003da8:	3001      	adds	r0, #1
 8003daa:	d1c2      	bne.n	8003d32 <_printf_float+0x2f2>
 8003dac:	e6a3      	b.n	8003af6 <_printf_float+0xb6>
 8003dae:	2301      	movs	r3, #1
 8003db0:	4631      	mov	r1, r6
 8003db2:	4628      	mov	r0, r5
 8003db4:	9206      	str	r2, [sp, #24]
 8003db6:	47b8      	blx	r7
 8003db8:	3001      	adds	r0, #1
 8003dba:	f43f ae9c 	beq.w	8003af6 <_printf_float+0xb6>
 8003dbe:	9a06      	ldr	r2, [sp, #24]
 8003dc0:	f10b 0b01 	add.w	fp, fp, #1
 8003dc4:	e7bb      	b.n	8003d3e <_printf_float+0x2fe>
 8003dc6:	e9dd 2304 	ldrd	r2, r3, [sp, #16]
 8003dca:	4631      	mov	r1, r6
 8003dcc:	4628      	mov	r0, r5
 8003dce:	47b8      	blx	r7
 8003dd0:	3001      	adds	r0, #1
 8003dd2:	d1c0      	bne.n	8003d56 <_printf_float+0x316>
 8003dd4:	e68f      	b.n	8003af6 <_printf_float+0xb6>
 8003dd6:	9a06      	ldr	r2, [sp, #24]
 8003dd8:	464b      	mov	r3, r9
 8003dda:	4442      	add	r2, r8
 8003ddc:	4631      	mov	r1, r6
 8003dde:	4628      	mov	r0, r5
 8003de0:	47b8      	blx	r7
 8003de2:	3001      	adds	r0, #1
 8003de4:	d1c3      	bne.n	8003d6e <_printf_float+0x32e>
 8003de6:	e686      	b.n	8003af6 <_printf_float+0xb6>
 8003de8:	f8dd a028 	ldr.w	sl, [sp, #40]	@ 0x28
 8003dec:	f1ba 0f01 	cmp.w	sl, #1
 8003df0:	dc01      	bgt.n	8003df6 <_printf_float+0x3b6>
 8003df2:	07db      	lsls	r3, r3, #31
 8003df4:	d536      	bpl.n	8003e64 <_printf_float+0x424>
 8003df6:	2301      	movs	r3, #1
 8003df8:	4642      	mov	r2, r8
 8003dfa:	4631      	mov	r1, r6
 8003dfc:	4628      	mov	r0, r5
 8003dfe:	47b8      	blx	r7
 8003e00:	3001      	adds	r0, #1
 8003e02:	f43f ae78 	beq.w	8003af6 <_printf_float+0xb6>
 8003e06:	e9dd 2304 	ldrd	r2, r3, [sp, #16]
 8003e0a:	4631      	mov	r1, r6
 8003e0c:	4628      	mov	r0, r5
 8003e0e:	47b8      	blx	r7
 8003e10:	3001      	adds	r0, #1
 8003e12:	f43f ae70 	beq.w	8003af6 <_printf_float+0xb6>
 8003e16:	e9d4 0112 	ldrd	r0, r1, [r4, #72]	@ 0x48
 8003e1a:	2200      	movs	r2, #0
 8003e1c:	2300      	movs	r3, #0
 8003e1e:	f10a 3aff 	add.w	sl, sl, #4294967295
 8003e22:	f7fc fe59 	bl	8000ad8 <__aeabi_dcmpeq>
 8003e26:	b9c0      	cbnz	r0, 8003e5a <_printf_float+0x41a>
 8003e28:	4653      	mov	r3, sl
 8003e2a:	f108 0201 	add.w	r2, r8, #1
 8003e2e:	4631      	mov	r1, r6
 8003e30:	4628      	mov	r0, r5
 8003e32:	47b8      	blx	r7
 8003e34:	3001      	adds	r0, #1
 8003e36:	d10c      	bne.n	8003e52 <_printf_float+0x412>
 8003e38:	e65d      	b.n	8003af6 <_printf_float+0xb6>
 8003e3a:	2301      	movs	r3, #1
 8003e3c:	465a      	mov	r2, fp
 8003e3e:	4631      	mov	r1, r6
 8003e40:	4628      	mov	r0, r5
 8003e42:	47b8      	blx	r7
 8003e44:	3001      	adds	r0, #1
 8003e46:	f43f ae56 	beq.w	8003af6 <_printf_float+0xb6>
 8003e4a:	f108 0801 	add.w	r8, r8, #1
 8003e4e:	45d0      	cmp	r8, sl
 8003e50:	dbf3      	blt.n	8003e3a <_printf_float+0x3fa>
 8003e52:	464b      	mov	r3, r9
 8003e54:	f104 0250 	add.w	r2, r4, #80	@ 0x50
 8003e58:	e6df      	b.n	8003c1a <_printf_float+0x1da>
 8003e5a:	f04f 0800 	mov.w	r8, #0
 8003e5e:	f104 0b1a 	add.w	fp, r4, #26
 8003e62:	e7f4      	b.n	8003e4e <_printf_float+0x40e>
 8003e64:	2301      	movs	r3, #1
 8003e66:	4642      	mov	r2, r8
 8003e68:	e7e1      	b.n	8003e2e <_printf_float+0x3ee>
 8003e6a:	2301      	movs	r3, #1
 8003e6c:	464a      	mov	r2, r9
 8003e6e:	4631      	mov	r1, r6
 8003e70:	4628      	mov	r0, r5
 8003e72:	47b8      	blx	r7
 8003e74:	3001      	adds	r0, #1
 8003e76:	f43f ae3e 	beq.w	8003af6 <_printf_float+0xb6>
 8003e7a:	f108 0801 	add.w	r8, r8, #1
 8003e7e:	68e3      	ldr	r3, [r4, #12]
 8003e80:	990b      	ldr	r1, [sp, #44]	@ 0x2c
 8003e82:	1a5b      	subs	r3, r3, r1
 8003e84:	4543      	cmp	r3, r8
 8003e86:	dcf0      	bgt.n	8003e6a <_printf_float+0x42a>
 8003e88:	e6fc      	b.n	8003c84 <_printf_float+0x244>
 8003e8a:	f04f 0800 	mov.w	r8, #0
 8003e8e:	f104 0919 	add.w	r9, r4, #25
 8003e92:	e7f4      	b.n	8003e7e <_printf_float+0x43e>

08003e94 <_printf_common>:
 8003e94:	e92d 47f0 	stmdb	sp!, {r4, r5, r6, r7, r8, r9, sl, lr}
 8003e98:	4616      	mov	r6, r2
 8003e9a:	4698      	mov	r8, r3
 8003e9c:	688a      	ldr	r2, [r1, #8]
 8003e9e:	690b      	ldr	r3, [r1, #16]
 8003ea0:	f8dd 9020 	ldr.w	r9, [sp, #32]
 8003ea4:	4293      	cmp	r3, r2
 8003ea6:	bfb8      	it	lt
 8003ea8:	4613      	movlt	r3, r2
 8003eaa:	6033      	str	r3, [r6, #0]
 8003eac:	f891 2043 	ldrb.w	r2, [r1, #67]	@ 0x43
 8003eb0:	4607      	mov	r7, r0
 8003eb2:	460c      	mov	r4, r1
 8003eb4:	b10a      	cbz	r2, 8003eba <_printf_common+0x26>
 8003eb6:	3301      	adds	r3, #1
 8003eb8:	6033      	str	r3, [r6, #0]
 8003eba:	6823      	ldr	r3, [r4, #0]
 8003ebc:	0699      	lsls	r1, r3, #26
 8003ebe:	bf42      	ittt	mi
 8003ec0:	6833      	ldrmi	r3, [r6, #0]
 8003ec2:	3302      	addmi	r3, #2
 8003ec4:	6033      	strmi	r3, [r6, #0]
 8003ec6:	6825      	ldr	r5, [r4, #0]
 8003ec8:	f015 0506 	ands.w	r5, r5, #6
 8003ecc:	d106      	bne.n	8003edc <_printf_common+0x48>
 8003ece:	f104 0a19 	add.w	sl, r4, #25
 8003ed2:	68e3      	ldr	r3, [r4, #12]
 8003ed4:	6832      	ldr	r2, [r6, #0]
 8003ed6:	1a9b      	subs	r3, r3, r2
 8003ed8:	42ab      	cmp	r3, r5
 8003eda:	dc26      	bgt.n	8003f2a <_printf_common+0x96>
 8003edc:	f894 3043 	ldrb.w	r3, [r4, #67]	@ 0x43
 8003ee0:	6822      	ldr	r2, [r4, #0]
 8003ee2:	3b00      	subs	r3, #0
 8003ee4:	bf18      	it	ne
 8003ee6:	2301      	movne	r3, #1
 8003ee8:	0692      	lsls	r2, r2, #26
 8003eea:	d42b      	bmi.n	8003f44 <_printf_common+0xb0>
 8003eec:	f104 0243 	add.w	r2, r4, #67	@ 0x43
 8003ef0:	4641      	mov	r1, r8
 8003ef2:	4638      	mov	r0, r7
 8003ef4:	47c8      	blx	r9
 8003ef6:	3001      	adds	r0, #1
 8003ef8:	d01e      	beq.n	8003f38 <_printf_common+0xa4>
 8003efa:	6823      	ldr	r3, [r4, #0]
 8003efc:	6922      	ldr	r2, [r4, #16]
 8003efe:	f003 0306 	and.w	r3, r3, #6
 8003f02:	2b04      	cmp	r3, #4
 8003f04:	bf02      	ittt	eq
 8003f06:	68e5      	ldreq	r5, [r4, #12]
 8003f08:	6833      	ldreq	r3, [r6, #0]
 8003f0a:	1aed      	subeq	r5, r5, r3
 8003f0c:	68a3      	ldr	r3, [r4, #8]
 8003f0e:	bf0c      	ite	eq
 8003f10:	ea25 75e5 	biceq.w	r5, r5, r5, asr #31
 8003f14:	2500      	movne	r5, #0
 8003f16:	4293      	cmp	r3, r2
 8003f18:	bfc4      	itt	gt
 8003f1a:	1a9b      	subgt	r3, r3, r2
 8003f1c:	18ed      	addgt	r5, r5, r3
 8003f1e:	2600      	movs	r6, #0
 8003f20:	341a      	adds	r4, #26
 8003f22:	42b5      	cmp	r5, r6
 8003f24:	d11a      	bne.n	8003f5c <_printf_common+0xc8>
 8003f26:	2000      	movs	r0, #0
 8003f28:	e008      	b.n	8003f3c <_printf_common+0xa8>
 8003f2a:	2301      	movs	r3, #1
 8003f2c:	4652      	mov	r2, sl
 8003f2e:	4641      	mov	r1, r8
 8003f30:	4638      	mov	r0, r7
 8003f32:	47c8      	blx	r9
 8003f34:	3001      	adds	r0, #1
 8003f36:	d103      	bne.n	8003f40 <_printf_common+0xac>
 8003f38:	f04f 30ff 	mov.w	r0, #4294967295
 8003f3c:	e8bd 87f0 	ldmia.w	sp!, {r4, r5, r6, r7, r8, r9, sl, pc}
 8003f40:	3501      	adds	r5, #1
 8003f42:	e7c6      	b.n	8003ed2 <_printf_common+0x3e>
 8003f44:	18e1      	adds	r1, r4, r3
 8003f46:	1c5a      	adds	r2, r3, #1
 8003f48:	2030      	movs	r0, #48	@ 0x30
 8003f4a:	f881 0043 	strb.w	r0, [r1, #67]	@ 0x43
 8003f4e:	4422      	add	r2, r4
 8003f50:	f894 1045 	ldrb.w	r1, [r4, #69]	@ 0x45
 8003f54:	f882 1043 	strb.w	r1, [r2, #67]	@ 0x43
 8003f58:	3302      	adds	r3, #2
 8003f5a:	e7c7      	b.n	8003eec <_printf_common+0x58>
 8003f5c:	2301      	movs	r3, #1
 8003f5e:	4622      	mov	r2, r4
 8003f60:	4641      	mov	r1, r8
 8003f62:	4638      	mov	r0, r7
 8003f64:	47c8      	blx	r9
 8003f66:	3001      	adds	r0, #1
 8003f68:	d0e6      	beq.n	8003f38 <_printf_common+0xa4>
 8003f6a:	3601      	adds	r6, #1
 8003f6c:	e7d9      	b.n	8003f22 <_printf_common+0x8e>
	...

08003f70 <_printf_i>:
 8003f70:	e92d 47ff 	stmdb	sp!, {r0, r1, r2, r3, r4, r5, r6, r7, r8, r9, sl, lr}
 8003f74:	7e0f      	ldrb	r7, [r1, #24]
 8003f76:	9e0c      	ldr	r6, [sp, #48]	@ 0x30
 8003f78:	2f78      	cmp	r7, #120	@ 0x78
 8003f7a:	4691      	mov	r9, r2
 8003f7c:	4680      	mov	r8, r0
 8003f7e:	460c      	mov	r4, r1
 8003f80:	469a      	mov	sl, r3
 8003f82:	f101 0243 	add.w	r2, r1, #67	@ 0x43
 8003f86:	d807      	bhi.n	8003f98 <_printf_i+0x28>
 8003f88:	2f62      	cmp	r7, #98	@ 0x62
 8003f8a:	d80a      	bhi.n	8003fa2 <_printf_i+0x32>
 8003f8c:	2f00      	cmp	r7, #0
 8003f8e:	f000 80d2 	beq.w	8004136 <_printf_i+0x1c6>
 8003f92:	2f58      	cmp	r7, #88	@ 0x58
 8003f94:	f000 80b9 	beq.w	800410a <_printf_i+0x19a>
 8003f98:	f104 0642 	add.w	r6, r4, #66	@ 0x42
 8003f9c:	f884 7042 	strb.w	r7, [r4, #66]	@ 0x42
 8003fa0:	e03a      	b.n	8004018 <_printf_i+0xa8>
 8003fa2:	f1a7 0363 	sub.w	r3, r7, #99	@ 0x63
 8003fa6:	2b15      	cmp	r3, #21
 8003fa8:	d8f6      	bhi.n	8003f98 <_printf_i+0x28>
 8003faa:	a101      	add	r1, pc, #4	@ (adr r1, 8003fb0 <_printf_i+0x40>)
 8003fac:	f851 f023 	ldr.w	pc, [r1, r3, lsl #2]
 8003fb0:	08004009 	.word	0x08004009
 8003fb4:	0800401d 	.word	0x0800401d
 8003fb8:	08003f99 	.word	0x08003f99
 8003fbc:	08003f99 	.word	0x08003f99
 8003fc0:	08003f99 	.word	0x08003f99
 8003fc4:	08003f99 	.word	0x08003f99
 8003fc8:	0800401d 	.word	0x0800401d
 8003fcc:	08003f99 	.word	0x08003f99
 8003fd0:	08003f99 	.word	0x08003f99
 8003fd4:	08003f99 	.word	0x08003f99
 8003fd8:	08003f99 	.word	0x08003f99
 8003fdc:	0800411d 	.word	0x0800411d
 8003fe0:	08004047 	.word	0x08004047
 8003fe4:	080040d7 	.word	0x080040d7
 8003fe8:	08003f99 	.word	0x08003f99
 8003fec:	08003f99 	.word	0x08003f99
 8003ff0:	0800413f 	.word	0x0800413f
 8003ff4:	08003f99 	.word	0x08003f99
 8003ff8:	08004047 	.word	0x08004047
 8003ffc:	08003f99 	.word	0x08003f99
 8004000:	08003f99 	.word	0x08003f99
 8004004:	080040df 	.word	0x080040df
 8004008:	6833      	ldr	r3, [r6, #0]
 800400a:	1d1a      	adds	r2, r3, #4
 800400c:	681b      	ldr	r3, [r3, #0]
 800400e:	6032      	str	r2, [r6, #0]
 8004010:	f104 0642 	add.w	r6, r4, #66	@ 0x42
 8004014:	f884 3042 	strb.w	r3, [r4, #66]	@ 0x42
 8004018:	2301      	movs	r3, #1
 800401a:	e09d      	b.n	8004158 <_printf_i+0x1e8>
 800401c:	6833      	ldr	r3, [r6, #0]
 800401e:	6820      	ldr	r0, [r4, #0]
 8004020:	1d19      	adds	r1, r3, #4
 8004022:	6031      	str	r1, [r6, #0]
 8004024:	0606      	lsls	r6, r0, #24
 8004026:	d501      	bpl.n	800402c <_printf_i+0xbc>
 8004028:	681d      	ldr	r5, [r3, #0]
 800402a:	e003      	b.n	8004034 <_printf_i+0xc4>
 800402c:	0645      	lsls	r5, r0, #25
 800402e:	d5fb      	bpl.n	8004028 <_printf_i+0xb8>
 8004030:	f9b3 5000 	ldrsh.w	r5, [r3]
 8004034:	2d00      	cmp	r5, #0
 8004036:	da03      	bge.n	8004040 <_printf_i+0xd0>
 8004038:	232d      	movs	r3, #45	@ 0x2d
 800403a:	426d      	negs	r5, r5
 800403c:	f884 3043 	strb.w	r3, [r4, #67]	@ 0x43
 8004040:	4859      	ldr	r0, [pc, #356]	@ (80041a8 <_printf_i+0x238>)
 8004042:	230a      	movs	r3, #10
 8004044:	e011      	b.n	800406a <_printf_i+0xfa>
 8004046:	6821      	ldr	r1, [r4, #0]
 8004048:	6833      	ldr	r3, [r6, #0]
 800404a:	0608      	lsls	r0, r1, #24
 800404c:	f853 5b04 	ldr.w	r5, [r3], #4
 8004050:	d402      	bmi.n	8004058 <_printf_i+0xe8>
 8004052:	0649      	lsls	r1, r1, #25
 8004054:	bf48      	it	mi
 8004056:	b2ad      	uxthmi	r5, r5
 8004058:	2f6f      	cmp	r7, #111	@ 0x6f
 800405a:	4853      	ldr	r0, [pc, #332]	@ (80041a8 <_printf_i+0x238>)
 800405c:	6033      	str	r3, [r6, #0]
 800405e:	bf14      	ite	ne
 8004060:	230a      	movne	r3, #10
 8004062:	2308      	moveq	r3, #8
 8004064:	2100      	movs	r1, #0
 8004066:	f884 1043 	strb.w	r1, [r4, #67]	@ 0x43
 800406a:	6866      	ldr	r6, [r4, #4]
 800406c:	60a6      	str	r6, [r4, #8]
 800406e:	2e00      	cmp	r6, #0
 8004070:	bfa2      	ittt	ge
 8004072:	6821      	ldrge	r1, [r4, #0]
 8004074:	f021 0104 	bicge.w	r1, r1, #4
 8004078:	6021      	strge	r1, [r4, #0]
 800407a:	b90d      	cbnz	r5, 8004080 <_printf_i+0x110>
 800407c:	2e00      	cmp	r6, #0
 800407e:	d04b      	beq.n	8004118 <_printf_i+0x1a8>
 8004080:	4616      	mov	r6, r2
 8004082:	fbb5 f1f3 	udiv	r1, r5, r3
 8004086:	fb03 5711 	mls	r7, r3, r1, r5
 800408a:	5dc7      	ldrb	r7, [r0, r7]
 800408c:	f806 7d01 	strb.w	r7, [r6, #-1]!
 8004090:	462f      	mov	r7, r5
 8004092:	42bb      	cmp	r3, r7
 8004094:	460d      	mov	r5, r1
 8004096:	d9f4      	bls.n	8004082 <_printf_i+0x112>
 8004098:	2b08      	cmp	r3, #8
 800409a:	d10b      	bne.n	80040b4 <_printf_i+0x144>
 800409c:	6823      	ldr	r3, [r4, #0]
 800409e:	07df      	lsls	r7, r3, #31
 80040a0:	d508      	bpl.n	80040b4 <_printf_i+0x144>
 80040a2:	6923      	ldr	r3, [r4, #16]
 80040a4:	6861      	ldr	r1, [r4, #4]
 80040a6:	4299      	cmp	r1, r3
 80040a8:	bfde      	ittt	le
 80040aa:	2330      	movle	r3, #48	@ 0x30
 80040ac:	f806 3c01 	strble.w	r3, [r6, #-1]
 80040b0:	f106 36ff 	addle.w	r6, r6, #4294967295
 80040b4:	1b92      	subs	r2, r2, r6
 80040b6:	6122      	str	r2, [r4, #16]
 80040b8:	f8cd a000 	str.w	sl, [sp]
 80040bc:	464b      	mov	r3, r9
 80040be:	aa03      	add	r2, sp, #12
 80040c0:	4621      	mov	r1, r4
 80040c2:	4640      	mov	r0, r8
 80040c4:	f7ff fee6 	bl	8003e94 <_printf_common>
 80040c8:	3001      	adds	r0, #1
 80040ca:	d14a      	bne.n	8004162 <_printf_i+0x1f2>
 80040cc:	f04f 30ff 	mov.w	r0, #4294967295
 80040d0:	b004      	add	sp, #16
 80040d2:	e8bd 87f0 	ldmia.w	sp!, {r4, r5, r6, r7, r8, r9, sl, pc}
 80040d6:	6823      	ldr	r3, [r4, #0]
 80040d8:	f043 0320 	orr.w	r3, r3, #32
 80040dc:	6023      	str	r3, [r4, #0]
 80040de:	4833      	ldr	r0, [pc, #204]	@ (80041ac <_printf_i+0x23c>)
 80040e0:	2778      	movs	r7, #120	@ 0x78
 80040e2:	f884 7045 	strb.w	r7, [r4, #69]	@ 0x45
 80040e6:	6823      	ldr	r3, [r4, #0]
 80040e8:	6831      	ldr	r1, [r6, #0]
 80040ea:	061f      	lsls	r7, r3, #24
 80040ec:	f851 5b04 	ldr.w	r5, [r1], #4
 80040f0:	d402      	bmi.n	80040f8 <_printf_i+0x188>
 80040f2:	065f      	lsls	r7, r3, #25
 80040f4:	bf48      	it	mi
 80040f6:	b2ad      	uxthmi	r5, r5
 80040f8:	6031      	str	r1, [r6, #0]
 80040fa:	07d9      	lsls	r1, r3, #31
 80040fc:	bf44      	itt	mi
 80040fe:	f043 0320 	orrmi.w	r3, r3, #32
 8004102:	6023      	strmi	r3, [r4, #0]
 8004104:	b11d      	cbz	r5, 800410e <_printf_i+0x19e>
 8004106:	2310      	movs	r3, #16
 8004108:	e7ac      	b.n	8004064 <_printf_i+0xf4>
 800410a:	4827      	ldr	r0, [pc, #156]	@ (80041a8 <_printf_i+0x238>)
 800410c:	e7e9      	b.n	80040e2 <_printf_i+0x172>
 800410e:	6823      	ldr	r3, [r4, #0]
 8004110:	f023 0320 	bic.w	r3, r3, #32
 8004114:	6023      	str	r3, [r4, #0]
 8004116:	e7f6      	b.n	8004106 <_printf_i+0x196>
 8004118:	4616      	mov	r6, r2
 800411a:	e7bd      	b.n	8004098 <_printf_i+0x128>
 800411c:	6833      	ldr	r3, [r6, #0]
 800411e:	6825      	ldr	r5, [r4, #0]
 8004120:	6961      	ldr	r1, [r4, #20]
 8004122:	1d18      	adds	r0, r3, #4
 8004124:	6030      	str	r0, [r6, #0]
 8004126:	062e      	lsls	r6, r5, #24
 8004128:	681b      	ldr	r3, [r3, #0]
 800412a:	d501      	bpl.n	8004130 <_printf_i+0x1c0>
 800412c:	6019      	str	r1, [r3, #0]
 800412e:	e002      	b.n	8004136 <_printf_i+0x1c6>
 8004130:	0668      	lsls	r0, r5, #25
 8004132:	d5fb      	bpl.n	800412c <_printf_i+0x1bc>
 8004134:	8019      	strh	r1, [r3, #0]
 8004136:	2300      	movs	r3, #0
 8004138:	6123      	str	r3, [r4, #16]
 800413a:	4616      	mov	r6, r2
 800413c:	e7bc      	b.n	80040b8 <_printf_i+0x148>
 800413e:	6833      	ldr	r3, [r6, #0]
 8004140:	1d1a      	adds	r2, r3, #4
 8004142:	6032      	str	r2, [r6, #0]
 8004144:	681e      	ldr	r6, [r3, #0]
 8004146:	6862      	ldr	r2, [r4, #4]
 8004148:	2100      	movs	r1, #0
 800414a:	4630      	mov	r0, r6
 800414c:	f7fc f848 	bl	80001e0 <memchr>
 8004150:	b108      	cbz	r0, 8004156 <_printf_i+0x1e6>
 8004152:	1b80      	subs	r0, r0, r6
 8004154:	6060      	str	r0, [r4, #4]
 8004156:	6863      	ldr	r3, [r4, #4]
 8004158:	6123      	str	r3, [r4, #16]
 800415a:	2300      	movs	r3, #0
 800415c:	f884 3043 	strb.w	r3, [r4, #67]	@ 0x43
 8004160:	e7aa      	b.n	80040b8 <_printf_i+0x148>
 8004162:	6923      	ldr	r3, [r4, #16]
 8004164:	4632      	mov	r2, r6
 8004166:	4649      	mov	r1, r9
 8004168:	4640      	mov	r0, r8
 800416a:	47d0      	blx	sl
 800416c:	3001      	adds	r0, #1
 800416e:	d0ad      	beq.n	80040cc <_printf_i+0x15c>
 8004170:	6823      	ldr	r3, [r4, #0]
 8004172:	079b      	lsls	r3, r3, #30
 8004174:	d413      	bmi.n	800419e <_printf_i+0x22e>
 8004176:	68e0      	ldr	r0, [r4, #12]
 8004178:	9b03      	ldr	r3, [sp, #12]
 800417a:	4298      	cmp	r0, r3
 800417c:	bfb8      	it	lt
 800417e:	4618      	movlt	r0, r3
 8004180:	e7a6      	b.n	80040d0 <_printf_i+0x160>
 8004182:	2301      	movs	r3, #1
 8004184:	4632      	mov	r2, r6
 8004186:	4649      	mov	r1, r9
 8004188:	4640      	mov	r0, r8
 800418a:	47d0      	blx	sl
 800418c:	3001      	adds	r0, #1
 800418e:	d09d      	beq.n	80040cc <_printf_i+0x15c>
 8004190:	3501      	adds	r5, #1
 8004192:	68e3      	ldr	r3, [r4, #12]
 8004194:	9903      	ldr	r1, [sp, #12]
 8004196:	1a5b      	subs	r3, r3, r1
 8004198:	42ab      	cmp	r3, r5
 800419a:	dcf2      	bgt.n	8004182 <_printf_i+0x212>
 800419c:	e7eb      	b.n	8004176 <_printf_i+0x206>
 800419e:	2500      	movs	r5, #0
 80041a0:	f104 0619 	add.w	r6, r4, #25
 80041a4:	e7f5      	b.n	8004192 <_printf_i+0x222>
 80041a6:	bf00      	nop
 80041a8:	0800854e 	.word	0x0800854e
 80041ac:	0800855f 	.word	0x0800855f

080041b0 <_scanf_float>:
 80041b0:	e92d 4ff0 	stmdb	sp!, {r4, r5, r6, r7, r8, r9, sl, fp, lr}
 80041b4:	b087      	sub	sp, #28
 80041b6:	4617      	mov	r7, r2
 80041b8:	9303      	str	r3, [sp, #12]
 80041ba:	688b      	ldr	r3, [r1, #8]
 80041bc:	1e5a      	subs	r2, r3, #1
 80041be:	f5b2 7fae 	cmp.w	r2, #348	@ 0x15c
 80041c2:	bf81      	itttt	hi
 80041c4:	f46f 75ae 	mvnhi.w	r5, #348	@ 0x15c
 80041c8:	eb03 0b05 	addhi.w	fp, r3, r5
 80041cc:	f240 135d 	movwhi	r3, #349	@ 0x15d
 80041d0:	608b      	strhi	r3, [r1, #8]
 80041d2:	680b      	ldr	r3, [r1, #0]
 80041d4:	460a      	mov	r2, r1
 80041d6:	f04f 0500 	mov.w	r5, #0
 80041da:	f443 63f0 	orr.w	r3, r3, #1920	@ 0x780
 80041de:	f842 3b1c 	str.w	r3, [r2], #28
 80041e2:	e9cd 5504 	strd	r5, r5, [sp, #16]
 80041e6:	4680      	mov	r8, r0
 80041e8:	460c      	mov	r4, r1
 80041ea:	bf98      	it	ls
 80041ec:	f04f 0b00 	movls.w	fp, #0
 80041f0:	9201      	str	r2, [sp, #4]
 80041f2:	4616      	mov	r6, r2
 80041f4:	46aa      	mov	sl, r5
 80041f6:	46a9      	mov	r9, r5
 80041f8:	9502      	str	r5, [sp, #8]
 80041fa:	68a2      	ldr	r2, [r4, #8]
 80041fc:	b152      	cbz	r2, 8004214 <_scanf_float+0x64>
 80041fe:	683b      	ldr	r3, [r7, #0]
 8004200:	781b      	ldrb	r3, [r3, #0]
 8004202:	2b4e      	cmp	r3, #78	@ 0x4e
 8004204:	d864      	bhi.n	80042d0 <_scanf_float+0x120>
 8004206:	2b40      	cmp	r3, #64	@ 0x40
 8004208:	d83c      	bhi.n	8004284 <_scanf_float+0xd4>
 800420a:	f1a3 012b 	sub.w	r1, r3, #43	@ 0x2b
 800420e:	b2c8      	uxtb	r0, r1
 8004210:	280e      	cmp	r0, #14
 8004212:	d93a      	bls.n	800428a <_scanf_float+0xda>
 8004214:	f1b9 0f00 	cmp.w	r9, #0
 8004218:	d003      	beq.n	8004222 <_scanf_float+0x72>
 800421a:	6823      	ldr	r3, [r4, #0]
 800421c:	f423 7380 	bic.w	r3, r3, #256	@ 0x100
 8004220:	6023      	str	r3, [r4, #0]
 8004222:	f10a 3aff 	add.w	sl, sl, #4294967295
 8004226:	f1ba 0f01 	cmp.w	sl, #1
 800422a:	f200 8117 	bhi.w	800445c <_scanf_float+0x2ac>
 800422e:	9b01      	ldr	r3, [sp, #4]
 8004230:	429e      	cmp	r6, r3
 8004232:	f200 8108 	bhi.w	8004446 <_scanf_float+0x296>
 8004236:	2001      	movs	r0, #1
 8004238:	b007      	add	sp, #28
 800423a:	e8bd 8ff0 	ldmia.w	sp!, {r4, r5, r6, r7, r8, r9, sl, fp, pc}
 800423e:	f1a3 0261 	sub.w	r2, r3, #97	@ 0x61
 8004242:	2a0d      	cmp	r2, #13
 8004244:	d8e6      	bhi.n	8004214 <_scanf_float+0x64>
 8004246:	a101      	add	r1, pc, #4	@ (adr r1, 800424c <_scanf_float+0x9c>)
 8004248:	f851 f022 	ldr.w	pc, [r1, r2, lsl #2]
 800424c:	08004393 	.word	0x08004393
 8004250:	08004215 	.word	0x08004215
 8004254:	08004215 	.word	0x08004215
 8004258:	08004215 	.word	0x08004215
 800425c:	080043f3 	.word	0x080043f3
 8004260:	080043cb 	.word	0x080043cb
 8004264:	08004215 	.word	0x08004215
 8004268:	08004215 	.word	0x08004215
 800426c:	080043a1 	.word	0x080043a1
 8004270:	08004215 	.word	0x08004215
 8004274:	08004215 	.word	0x08004215
 8004278:	08004215 	.word	0x08004215
 800427c:	08004215 	.word	0x08004215
 8004280:	08004359 	.word	0x08004359
 8004284:	f1a3 0241 	sub.w	r2, r3, #65	@ 0x41
 8004288:	e7db      	b.n	8004242 <_scanf_float+0x92>
 800428a:	290e      	cmp	r1, #14
 800428c:	d8c2      	bhi.n	8004214 <_scanf_float+0x64>
 800428e:	a001      	add	r0, pc, #4	@ (adr r0, 8004294 <_scanf_float+0xe4>)
 8004290:	f850 f021 	ldr.w	pc, [r0, r1, lsl #2]
 8004294:	08004349 	.word	0x08004349
 8004298:	08004215 	.word	0x08004215
 800429c:	08004349 	.word	0x08004349
 80042a0:	080043df 	.word	0x080043df
 80042a4:	08004215 	.word	0x08004215
 80042a8:	080042f1 	.word	0x080042f1
 80042ac:	0800432f 	.word	0x0800432f
 80042b0:	0800432f 	.word	0x0800432f
 80042b4:	0800432f 	.word	0x0800432f
 80042b8:	0800432f 	.word	0x0800432f
 80042bc:	0800432f 	.word	0x0800432f
 80042c0:	0800432f 	.word	0x0800432f
 80042c4:	0800432f 	.word	0x0800432f
 80042c8:	0800432f 	.word	0x0800432f
 80042cc:	0800432f 	.word	0x0800432f
 80042d0:	2b6e      	cmp	r3, #110	@ 0x6e
 80042d2:	d809      	bhi.n	80042e8 <_scanf_float+0x138>
 80042d4:	2b60      	cmp	r3, #96	@ 0x60
 80042d6:	d8b2      	bhi.n	800423e <_scanf_float+0x8e>
 80042d8:	2b54      	cmp	r3, #84	@ 0x54
 80042da:	d07b      	beq.n	80043d4 <_scanf_float+0x224>
 80042dc:	2b59      	cmp	r3, #89	@ 0x59
 80042de:	d199      	bne.n	8004214 <_scanf_float+0x64>
 80042e0:	2d07      	cmp	r5, #7
 80042e2:	d197      	bne.n	8004214 <_scanf_float+0x64>
 80042e4:	2508      	movs	r5, #8
 80042e6:	e02c      	b.n	8004342 <_scanf_float+0x192>
 80042e8:	2b74      	cmp	r3, #116	@ 0x74
 80042ea:	d073      	beq.n	80043d4 <_scanf_float+0x224>
 80042ec:	2b79      	cmp	r3, #121	@ 0x79
 80042ee:	e7f6      	b.n	80042de <_scanf_float+0x12e>
 80042f0:	6821      	ldr	r1, [r4, #0]
 80042f2:	05c8      	lsls	r0, r1, #23
 80042f4:	d51b      	bpl.n	800432e <_scanf_float+0x17e>
 80042f6:	f021 0180 	bic.w	r1, r1, #128	@ 0x80
 80042fa:	6021      	str	r1, [r4, #0]
 80042fc:	f109 0901 	add.w	r9, r9, #1
 8004300:	f1bb 0f00 	cmp.w	fp, #0
 8004304:	d003      	beq.n	800430e <_scanf_float+0x15e>
 8004306:	3201      	adds	r2, #1
 8004308:	f10b 3bff 	add.w	fp, fp, #4294967295
 800430c:	60a2      	str	r2, [r4, #8]
 800430e:	68a3      	ldr	r3, [r4, #8]
 8004310:	3b01      	subs	r3, #1
 8004312:	60a3      	str	r3, [r4, #8]
 8004314:	6923      	ldr	r3, [r4, #16]
 8004316:	3301      	adds	r3, #1
 8004318:	6123      	str	r3, [r4, #16]
 800431a:	687b      	ldr	r3, [r7, #4]
 800431c:	3b01      	subs	r3, #1
 800431e:	2b00      	cmp	r3, #0
 8004320:	607b      	str	r3, [r7, #4]
 8004322:	f340 8087 	ble.w	8004434 <_scanf_float+0x284>
 8004326:	683b      	ldr	r3, [r7, #0]
 8004328:	3301      	adds	r3, #1
 800432a:	603b      	str	r3, [r7, #0]
 800432c:	e765      	b.n	80041fa <_scanf_float+0x4a>
 800432e:	eb1a 0105 	adds.w	r1, sl, r5
 8004332:	f47f af6f 	bne.w	8004214 <_scanf_float+0x64>
 8004336:	6822      	ldr	r2, [r4, #0]
 8004338:	f422 72c0 	bic.w	r2, r2, #384	@ 0x180
 800433c:	6022      	str	r2, [r4, #0]
 800433e:	460d      	mov	r5, r1
 8004340:	468a      	mov	sl, r1
 8004342:	f806 3b01 	strb.w	r3, [r6], #1
 8004346:	e7e2      	b.n	800430e <_scanf_float+0x15e>
 8004348:	6822      	ldr	r2, [r4, #0]
 800434a:	0610      	lsls	r0, r2, #24
 800434c:	f57f af62 	bpl.w	8004214 <_scanf_float+0x64>
 8004350:	f022 0280 	bic.w	r2, r2, #128	@ 0x80
 8004354:	6022      	str	r2, [r4, #0]
 8004356:	e7f4      	b.n	8004342 <_scanf_float+0x192>
 8004358:	f1ba 0f00 	cmp.w	sl, #0
 800435c:	d10e      	bne.n	800437c <_scanf_float+0x1cc>
 800435e:	f1b9 0f00 	cmp.w	r9, #0
 8004362:	d10e      	bne.n	8004382 <_scanf_float+0x1d2>
 8004364:	6822      	ldr	r2, [r4, #0]
 8004366:	f402 61e0 	and.w	r1, r2, #1792	@ 0x700
 800436a:	f5b1 6fe0 	cmp.w	r1, #1792	@ 0x700
 800436e:	d108      	bne.n	8004382 <_scanf_float+0x1d2>
 8004370:	f422 62f0 	bic.w	r2, r2, #1920	@ 0x780
 8004374:	6022      	str	r2, [r4, #0]
 8004376:	f04f 0a01 	mov.w	sl, #1
 800437a:	e7e2      	b.n	8004342 <_scanf_float+0x192>
 800437c:	f1ba 0f02 	cmp.w	sl, #2
 8004380:	d055      	beq.n	800442e <_scanf_float+0x27e>
 8004382:	2d01      	cmp	r5, #1
 8004384:	d002      	beq.n	800438c <_scanf_float+0x1dc>
 8004386:	2d04      	cmp	r5, #4
 8004388:	f47f af44 	bne.w	8004214 <_scanf_float+0x64>
 800438c:	3501      	adds	r5, #1
 800438e:	b2ed      	uxtb	r5, r5
 8004390:	e7d7      	b.n	8004342 <_scanf_float+0x192>
 8004392:	f1ba 0f01 	cmp.w	sl, #1
 8004396:	f47f af3d 	bne.w	8004214 <_scanf_float+0x64>
 800439a:	f04f 0a02 	mov.w	sl, #2
 800439e:	e7d0      	b.n	8004342 <_scanf_float+0x192>
 80043a0:	b97d      	cbnz	r5, 80043c2 <_scanf_float+0x212>
 80043a2:	f1b9 0f00 	cmp.w	r9, #0
 80043a6:	f47f af38 	bne.w	800421a <_scanf_float+0x6a>
 80043aa:	6822      	ldr	r2, [r4, #0]
 80043ac:	f402 61e0 	and.w	r1, r2, #1792	@ 0x700
 80043b0:	f5b1 6fe0 	cmp.w	r1, #1792	@ 0x700
 80043b4:	f040 8108 	bne.w	80045c8 <_scanf_float+0x418>
 80043b8:	f422 62f0 	bic.w	r2, r2, #1920	@ 0x780
 80043bc:	6022      	str	r2, [r4, #0]
 80043be:	2501      	movs	r5, #1
 80043c0:	e7bf      	b.n	8004342 <_scanf_float+0x192>
 80043c2:	2d03      	cmp	r5, #3
 80043c4:	d0e2      	beq.n	800438c <_scanf_float+0x1dc>
 80043c6:	2d05      	cmp	r5, #5
 80043c8:	e7de      	b.n	8004388 <_scanf_float+0x1d8>
 80043ca:	2d02      	cmp	r5, #2
 80043cc:	f47f af22 	bne.w	8004214 <_scanf_float+0x64>
 80043d0:	2503      	movs	r5, #3
 80043d2:	e7b6      	b.n	8004342 <_scanf_float+0x192>
 80043d4:	2d06      	cmp	r5, #6
 80043d6:	f47f af1d 	bne.w	8004214 <_scanf_float+0x64>
 80043da:	2507      	movs	r5, #7
 80043dc:	e7b1      	b.n	8004342 <_scanf_float+0x192>
 80043de:	6822      	ldr	r2, [r4, #0]
 80043e0:	0591      	lsls	r1, r2, #22
 80043e2:	f57f af17 	bpl.w	8004214 <_scanf_float+0x64>
 80043e6:	f422 7220 	bic.w	r2, r2, #640	@ 0x280
 80043ea:	6022      	str	r2, [r4, #0]
 80043ec:	f8cd 9008 	str.w	r9, [sp, #8]
 80043f0:	e7a7      	b.n	8004342 <_scanf_float+0x192>
 80043f2:	6822      	ldr	r2, [r4, #0]
 80043f4:	f402 61a0 	and.w	r1, r2, #1280	@ 0x500
 80043f8:	f5b1 6f80 	cmp.w	r1, #1024	@ 0x400
 80043fc:	d006      	beq.n	800440c <_scanf_float+0x25c>
 80043fe:	0550      	lsls	r0, r2, #21
 8004400:	f57f af08 	bpl.w	8004214 <_scanf_float+0x64>
 8004404:	f1b9 0f00 	cmp.w	r9, #0
 8004408:	f000 80de 	beq.w	80045c8 <_scanf_float+0x418>
 800440c:	0591      	lsls	r1, r2, #22
 800440e:	bf58      	it	pl
 8004410:	9902      	ldrpl	r1, [sp, #8]
 8004412:	f422 62f0 	bic.w	r2, r2, #1920	@ 0x780
 8004416:	bf58      	it	pl
 8004418:	eba9 0101 	subpl.w	r1, r9, r1
 800441c:	f442 72c0 	orr.w	r2, r2, #384	@ 0x180
 8004420:	bf58      	it	pl
 8004422:	e9cd 1604 	strdpl	r1, r6, [sp, #16]
 8004426:	6022      	str	r2, [r4, #0]
 8004428:	f04f 0900 	mov.w	r9, #0
 800442c:	e789      	b.n	8004342 <_scanf_float+0x192>
 800442e:	f04f 0a03 	mov.w	sl, #3
 8004432:	e786      	b.n	8004342 <_scanf_float+0x192>
 8004434:	f8d4 3180 	ldr.w	r3, [r4, #384]	@ 0x180
 8004438:	4639      	mov	r1, r7
 800443a:	4640      	mov	r0, r8
 800443c:	4798      	blx	r3
 800443e:	2800      	cmp	r0, #0
 8004440:	f43f aedb 	beq.w	80041fa <_scanf_float+0x4a>
 8004444:	e6e6      	b.n	8004214 <_scanf_float+0x64>
 8004446:	f8d4 317c 	ldr.w	r3, [r4, #380]	@ 0x17c
 800444a:	f816 1d01 	ldrb.w	r1, [r6, #-1]!
 800444e:	463a      	mov	r2, r7
 8004450:	4640      	mov	r0, r8
 8004452:	4798      	blx	r3
 8004454:	6923      	ldr	r3, [r4, #16]
 8004456:	3b01      	subs	r3, #1
 8004458:	6123      	str	r3, [r4, #16]
 800445a:	e6e8      	b.n	800422e <_scanf_float+0x7e>
 800445c:	1e6b      	subs	r3, r5, #1
 800445e:	2b06      	cmp	r3, #6
 8004460:	d824      	bhi.n	80044ac <_scanf_float+0x2fc>
 8004462:	2d02      	cmp	r5, #2
 8004464:	d836      	bhi.n	80044d4 <_scanf_float+0x324>
 8004466:	9b01      	ldr	r3, [sp, #4]
 8004468:	429e      	cmp	r6, r3
 800446a:	f67f aee4 	bls.w	8004236 <_scanf_float+0x86>
 800446e:	f8d4 317c 	ldr.w	r3, [r4, #380]	@ 0x17c
 8004472:	f816 1d01 	ldrb.w	r1, [r6, #-1]!
 8004476:	463a      	mov	r2, r7
 8004478:	4640      	mov	r0, r8
 800447a:	4798      	blx	r3
 800447c:	6923      	ldr	r3, [r4, #16]
 800447e:	3b01      	subs	r3, #1
 8004480:	6123      	str	r3, [r4, #16]
 8004482:	e7f0      	b.n	8004466 <_scanf_float+0x2b6>
 8004484:	f8d4 317c 	ldr.w	r3, [r4, #380]	@ 0x17c
 8004488:	f81b 1d01 	ldrb.w	r1, [fp, #-1]!
 800448c:	463a      	mov	r2, r7
 800448e:	4640      	mov	r0, r8
 8004490:	4798      	blx	r3
 8004492:	6923      	ldr	r3, [r4, #16]
 8004494:	3b01      	subs	r3, #1
 8004496:	6123      	str	r3, [r4, #16]
 8004498:	f10a 3aff 	add.w	sl, sl, #4294967295
 800449c:	fa5f fa8a 	uxtb.w	sl, sl
 80044a0:	f1ba 0f02 	cmp.w	sl, #2
 80044a4:	d1ee      	bne.n	8004484 <_scanf_float+0x2d4>
 80044a6:	3d03      	subs	r5, #3
 80044a8:	b2ed      	uxtb	r5, r5
 80044aa:	1b76      	subs	r6, r6, r5
 80044ac:	6823      	ldr	r3, [r4, #0]
 80044ae:	05da      	lsls	r2, r3, #23
 80044b0:	d530      	bpl.n	8004514 <_scanf_float+0x364>
 80044b2:	055b      	lsls	r3, r3, #21
 80044b4:	d511      	bpl.n	80044da <_scanf_float+0x32a>
 80044b6:	9b01      	ldr	r3, [sp, #4]
 80044b8:	429e      	cmp	r6, r3
 80044ba:	f67f aebc 	bls.w	8004236 <_scanf_float+0x86>
 80044be:	f8d4 317c 	ldr.w	r3, [r4, #380]	@ 0x17c
 80044c2:	f816 1d01 	ldrb.w	r1, [r6, #-1]!
 80044c6:	463a      	mov	r2, r7
 80044c8:	4640      	mov	r0, r8
 80044ca:	4798      	blx	r3
 80044cc:	6923      	ldr	r3, [r4, #16]
 80044ce:	3b01      	subs	r3, #1
 80044d0:	6123      	str	r3, [r4, #16]
 80044d2:	e7f0      	b.n	80044b6 <_scanf_float+0x306>
 80044d4:	46aa      	mov	sl, r5
 80044d6:	46b3      	mov	fp, r6
 80044d8:	e7de      	b.n	8004498 <_scanf_float+0x2e8>
 80044da:	f816 1c01 	ldrb.w	r1, [r6, #-1]
 80044de:	6923      	ldr	r3, [r4, #16]
 80044e0:	2965      	cmp	r1, #101	@ 0x65
 80044e2:	f103 33ff 	add.w	r3, r3, #4294967295
 80044e6:	f106 35ff 	add.w	r5, r6, #4294967295
 80044ea:	6123      	str	r3, [r4, #16]
 80044ec:	d00c      	beq.n	8004508 <_scanf_float+0x358>
 80044ee:	2945      	cmp	r1, #69	@ 0x45
 80044f0:	d00a      	beq.n	8004508 <_scanf_float+0x358>
 80044f2:	f8d4 317c 	ldr.w	r3, [r4, #380]	@ 0x17c
 80044f6:	463a      	mov	r2, r7
 80044f8:	4640      	mov	r0, r8
 80044fa:	4798      	blx	r3
 80044fc:	6923      	ldr	r3, [r4, #16]
 80044fe:	f816 1c02 	ldrb.w	r1, [r6, #-2]
 8004502:	3b01      	subs	r3, #1
 8004504:	1eb5      	subs	r5, r6, #2
 8004506:	6123      	str	r3, [r4, #16]
 8004508:	f8d4 317c 	ldr.w	r3, [r4, #380]	@ 0x17c
 800450c:	463a      	mov	r2, r7
 800450e:	4640      	mov	r0, r8
 8004510:	4798      	blx	r3
 8004512:	462e      	mov	r6, r5
 8004514:	6822      	ldr	r2, [r4, #0]
 8004516:	f012 0210 	ands.w	r2, r2, #16
 800451a:	d001      	beq.n	8004520 <_scanf_float+0x370>
 800451c:	2000      	movs	r0, #0
 800451e:	e68b      	b.n	8004238 <_scanf_float+0x88>
 8004520:	7032      	strb	r2, [r6, #0]
 8004522:	6823      	ldr	r3, [r4, #0]
 8004524:	f403 63c0 	and.w	r3, r3, #1536	@ 0x600
 8004528:	f5b3 6f80 	cmp.w	r3, #1024	@ 0x400
 800452c:	d11c      	bne.n	8004568 <_scanf_float+0x3b8>
 800452e:	9b02      	ldr	r3, [sp, #8]
 8004530:	454b      	cmp	r3, r9
 8004532:	eba3 0209 	sub.w	r2, r3, r9
 8004536:	d123      	bne.n	8004580 <_scanf_float+0x3d0>
 8004538:	9901      	ldr	r1, [sp, #4]
 800453a:	2200      	movs	r2, #0
 800453c:	4640      	mov	r0, r8
 800453e:	f002 fcfb 	bl	8006f38 <_strtod_r>
 8004542:	9b03      	ldr	r3, [sp, #12]
 8004544:	6821      	ldr	r1, [r4, #0]
 8004546:	681b      	ldr	r3, [r3, #0]
 8004548:	f011 0f02 	tst.w	r1, #2
 800454c:	ec57 6b10 	vmov	r6, r7, d0
 8004550:	f103 0204 	add.w	r2, r3, #4
 8004554:	d01f      	beq.n	8004596 <_scanf_float+0x3e6>
 8004556:	9903      	ldr	r1, [sp, #12]
 8004558:	600a      	str	r2, [r1, #0]
 800455a:	681b      	ldr	r3, [r3, #0]
 800455c:	e9c3 6700 	strd	r6, r7, [r3]
 8004560:	68e3      	ldr	r3, [r4, #12]
 8004562:	3301      	adds	r3, #1
 8004564:	60e3      	str	r3, [r4, #12]
 8004566:	e7d9      	b.n	800451c <_scanf_float+0x36c>
 8004568:	9b04      	ldr	r3, [sp, #16]
 800456a:	2b00      	cmp	r3, #0
 800456c:	d0e4      	beq.n	8004538 <_scanf_float+0x388>
 800456e:	9905      	ldr	r1, [sp, #20]
 8004570:	230a      	movs	r3, #10
 8004572:	3101      	adds	r1, #1
 8004574:	4640      	mov	r0, r8
 8004576:	f002 fd5f 	bl	8007038 <_strtol_r>
 800457a:	9b04      	ldr	r3, [sp, #16]
 800457c:	9e05      	ldr	r6, [sp, #20]
 800457e:	1ac2      	subs	r2, r0, r3
 8004580:	f204 136f 	addw	r3, r4, #367	@ 0x16f
 8004584:	429e      	cmp	r6, r3
 8004586:	bf28      	it	cs
 8004588:	f504 76b7 	addcs.w	r6, r4, #366	@ 0x16e
 800458c:	4910      	ldr	r1, [pc, #64]	@ (80045d0 <_scanf_float+0x420>)
 800458e:	4630      	mov	r0, r6
 8004590:	f000 f954 	bl	800483c <siprintf>
 8004594:	e7d0      	b.n	8004538 <_scanf_float+0x388>
 8004596:	f011 0f04 	tst.w	r1, #4
 800459a:	9903      	ldr	r1, [sp, #12]
 800459c:	600a      	str	r2, [r1, #0]
 800459e:	d1dc      	bne.n	800455a <_scanf_float+0x3aa>
 80045a0:	681d      	ldr	r5, [r3, #0]
 80045a2:	4632      	mov	r2, r6
 80045a4:	463b      	mov	r3, r7
 80045a6:	4630      	mov	r0, r6
 80045a8:	4639      	mov	r1, r7
 80045aa:	f7fc fac7 	bl	8000b3c <__aeabi_dcmpun>
 80045ae:	b128      	cbz	r0, 80045bc <_scanf_float+0x40c>
 80045b0:	4808      	ldr	r0, [pc, #32]	@ (80045d4 <_scanf_float+0x424>)
 80045b2:	f000 fabb 	bl	8004b2c <nanf>
 80045b6:	ed85 0a00 	vstr	s0, [r5]
 80045ba:	e7d1      	b.n	8004560 <_scanf_float+0x3b0>
 80045bc:	4630      	mov	r0, r6
 80045be:	4639      	mov	r1, r7
 80045c0:	f7fc fb1a 	bl	8000bf8 <__aeabi_d2f>
 80045c4:	6028      	str	r0, [r5, #0]
 80045c6:	e7cb      	b.n	8004560 <_scanf_float+0x3b0>
 80045c8:	f04f 0900 	mov.w	r9, #0
 80045cc:	e629      	b.n	8004222 <_scanf_float+0x72>
 80045ce:	bf00      	nop
 80045d0:	08008570 	.word	0x08008570
 80045d4:	08008905 	.word	0x08008905

080045d8 <std>:
 80045d8:	2300      	movs	r3, #0
 80045da:	b510      	push	{r4, lr}
 80045dc:	4604      	mov	r4, r0
 80045de:	e9c0 3300 	strd	r3, r3, [r0]
 80045e2:	e9c0 3304 	strd	r3, r3, [r0, #16]
 80045e6:	6083      	str	r3, [r0, #8]
 80045e8:	8181      	strh	r1, [r0, #12]
 80045ea:	6643      	str	r3, [r0, #100]	@ 0x64
 80045ec:	81c2      	strh	r2, [r0, #14]
 80045ee:	6183      	str	r3, [r0, #24]
 80045f0:	4619      	mov	r1, r3
 80045f2:	2208      	movs	r2, #8
 80045f4:	305c      	adds	r0, #92	@ 0x5c
 80045f6:	f000 fa19 	bl	8004a2c <memset>
 80045fa:	4b0d      	ldr	r3, [pc, #52]	@ (8004630 <std+0x58>)
 80045fc:	6263      	str	r3, [r4, #36]	@ 0x24
 80045fe:	4b0d      	ldr	r3, [pc, #52]	@ (8004634 <std+0x5c>)
 8004600:	62a3      	str	r3, [r4, #40]	@ 0x28
 8004602:	4b0d      	ldr	r3, [pc, #52]	@ (8004638 <std+0x60>)
 8004604:	62e3      	str	r3, [r4, #44]	@ 0x2c
 8004606:	4b0d      	ldr	r3, [pc, #52]	@ (800463c <std+0x64>)
 8004608:	6323      	str	r3, [r4, #48]	@ 0x30
 800460a:	4b0d      	ldr	r3, [pc, #52]	@ (8004640 <std+0x68>)
 800460c:	6224      	str	r4, [r4, #32]
 800460e:	429c      	cmp	r4, r3
 8004610:	d006      	beq.n	8004620 <std+0x48>
 8004612:	f103 0268 	add.w	r2, r3, #104	@ 0x68
 8004616:	4294      	cmp	r4, r2
 8004618:	d002      	beq.n	8004620 <std+0x48>
 800461a:	33d0      	adds	r3, #208	@ 0xd0
 800461c:	429c      	cmp	r4, r3
 800461e:	d105      	bne.n	800462c <std+0x54>
 8004620:	f104 0058 	add.w	r0, r4, #88	@ 0x58
 8004624:	e8bd 4010 	ldmia.w	sp!, {r4, lr}
 8004628:	f000 ba7c 	b.w	8004b24 <__retarget_lock_init_recursive>
 800462c:	bd10      	pop	{r4, pc}
 800462e:	bf00      	nop
 8004630:	0800487d 	.word	0x0800487d
 8004634:	0800489f 	.word	0x0800489f
 8004638:	080048d7 	.word	0x080048d7
 800463c:	080048fb 	.word	0x080048fb
 8004640:	20000288 	.word	0x20000288

08004644 <stdio_exit_handler>:
 8004644:	4a02      	ldr	r2, [pc, #8]	@ (8004650 <stdio_exit_handler+0xc>)
 8004646:	4903      	ldr	r1, [pc, #12]	@ (8004654 <stdio_exit_handler+0x10>)
 8004648:	4803      	ldr	r0, [pc, #12]	@ (8004658 <stdio_exit_handler+0x14>)
 800464a:	f000 b869 	b.w	8004720 <_fwalk_sglue>
 800464e:	bf00      	nop
 8004650:	2000000c 	.word	0x2000000c
 8004654:	08007679 	.word	0x08007679
 8004658:	2000001c 	.word	0x2000001c

0800465c <cleanup_stdio>:
 800465c:	6841      	ldr	r1, [r0, #4]
 800465e:	4b0c      	ldr	r3, [pc, #48]	@ (8004690 <cleanup_stdio+0x34>)
 8004660:	4299      	cmp	r1, r3
 8004662:	b510      	push	{r4, lr}
 8004664:	4604      	mov	r4, r0
 8004666:	d001      	beq.n	800466c <cleanup_stdio+0x10>
 8004668:	f003 f806 	bl	8007678 <_fflush_r>
 800466c:	68a1      	ldr	r1, [r4, #8]
 800466e:	4b09      	ldr	r3, [pc, #36]	@ (8004694 <cleanup_stdio+0x38>)
 8004670:	4299      	cmp	r1, r3
 8004672:	d002      	beq.n	800467a <cleanup_stdio+0x1e>
 8004674:	4620      	mov	r0, r4
 8004676:	f002 ffff 	bl	8007678 <_fflush_r>
 800467a:	68e1      	ldr	r1, [r4, #12]
 800467c:	4b06      	ldr	r3, [pc, #24]	@ (8004698 <cleanup_stdio+0x3c>)
 800467e:	4299      	cmp	r1, r3
 8004680:	d004      	beq.n	800468c <cleanup_stdio+0x30>
 8004682:	4620      	mov	r0, r4
 8004684:	e8bd 4010 	ldmia.w	sp!, {r4, lr}
 8004688:	f002 bff6 	b.w	8007678 <_fflush_r>
 800468c:	bd10      	pop	{r4, pc}
 800468e:	bf00      	nop
 8004690:	20000288 	.word	0x20000288
 8004694:	200002f0 	.word	0x200002f0
 8004698:	20000358 	.word	0x20000358

0800469c <global_stdio_init.part.0>:
 800469c:	b510      	push	{r4, lr}
 800469e:	4b0b      	ldr	r3, [pc, #44]	@ (80046cc <global_stdio_init.part.0+0x30>)
 80046a0:	4c0b      	ldr	r4, [pc, #44]	@ (80046d0 <global_stdio_init.part.0+0x34>)
 80046a2:	4a0c      	ldr	r2, [pc, #48]	@ (80046d4 <global_stdio_init.part.0+0x38>)
 80046a4:	601a      	str	r2, [r3, #0]
 80046a6:	4620      	mov	r0, r4
 80046a8:	2200      	movs	r2, #0
 80046aa:	2104      	movs	r1, #4
 80046ac:	f7ff ff94 	bl	80045d8 <std>
 80046b0:	f104 0068 	add.w	r0, r4, #104	@ 0x68
 80046b4:	2201      	movs	r2, #1
 80046b6:	2109      	movs	r1, #9
 80046b8:	f7ff ff8e 	bl	80045d8 <std>
 80046bc:	f104 00d0 	add.w	r0, r4, #208	@ 0xd0
 80046c0:	2202      	movs	r2, #2
 80046c2:	e8bd 4010 	ldmia.w	sp!, {r4, lr}
 80046c6:	2112      	movs	r1, #18
 80046c8:	f7ff bf86 	b.w	80045d8 <std>
 80046cc:	200003c0 	.word	0x200003c0
 80046d0:	20000288 	.word	0x20000288
 80046d4:	08004645 	.word	0x08004645

080046d8 <__sfp_lock_acquire>:
 80046d8:	4801      	ldr	r0, [pc, #4]	@ (80046e0 <__sfp_lock_acquire+0x8>)
 80046da:	f000 ba24 	b.w	8004b26 <__retarget_lock_acquire_recursive>
 80046de:	bf00      	nop
 80046e0:	200003c9 	.word	0x200003c9

080046e4 <__sfp_lock_release>:
 80046e4:	4801      	ldr	r0, [pc, #4]	@ (80046ec <__sfp_lock_release+0x8>)
 80046e6:	f000 ba1f 	b.w	8004b28 <__retarget_lock_release_recursive>
 80046ea:	bf00      	nop
 80046ec:	200003c9 	.word	0x200003c9

080046f0 <__sinit>:
 80046f0:	b510      	push	{r4, lr}
 80046f2:	4604      	mov	r4, r0
 80046f4:	f7ff fff0 	bl	80046d8 <__sfp_lock_acquire>
 80046f8:	6a23      	ldr	r3, [r4, #32]
 80046fa:	b11b      	cbz	r3, 8004704 <__sinit+0x14>
 80046fc:	e8bd 4010 	ldmia.w	sp!, {r4, lr}
 8004700:	f7ff bff0 	b.w	80046e4 <__sfp_lock_release>
 8004704:	4b04      	ldr	r3, [pc, #16]	@ (8004718 <__sinit+0x28>)
 8004706:	6223      	str	r3, [r4, #32]
 8004708:	4b04      	ldr	r3, [pc, #16]	@ (800471c <__sinit+0x2c>)
 800470a:	681b      	ldr	r3, [r3, #0]
 800470c:	2b00      	cmp	r3, #0
 800470e:	d1f5      	bne.n	80046fc <__sinit+0xc>
 8004710:	f7ff ffc4 	bl	800469c <global_stdio_init.part.0>
 8004714:	e7f2      	b.n	80046fc <__sinit+0xc>
 8004716:	bf00      	nop
 8004718:	0800465d 	.word	0x0800465d
 800471c:	200003c0 	.word	0x200003c0

08004720 <_fwalk_sglue>:
 8004720:	e92d 43f8 	stmdb	sp!, {r3, r4, r5, r6, r7, r8, r9, lr}
 8004724:	4607      	mov	r7, r0
 8004726:	4688      	mov	r8, r1
 8004728:	4614      	mov	r4, r2
 800472a:	2600      	movs	r6, #0
 800472c:	e9d4 9501 	ldrd	r9, r5, [r4, #4]
 8004730:	f1b9 0901 	subs.w	r9, r9, #1
 8004734:	d505      	bpl.n	8004742 <_fwalk_sglue+0x22>
 8004736:	6824      	ldr	r4, [r4, #0]
 8004738:	2c00      	cmp	r4, #0
 800473a:	d1f7      	bne.n	800472c <_fwalk_sglue+0xc>
 800473c:	4630      	mov	r0, r6
 800473e:	e8bd 83f8 	ldmia.w	sp!, {r3, r4, r5, r6, r7, r8, r9, pc}
 8004742:	89ab      	ldrh	r3, [r5, #12]
 8004744:	2b01      	cmp	r3, #1
 8004746:	d907      	bls.n	8004758 <_fwalk_sglue+0x38>
 8004748:	f9b5 300e 	ldrsh.w	r3, [r5, #14]
 800474c:	3301      	adds	r3, #1
 800474e:	d003      	beq.n	8004758 <_fwalk_sglue+0x38>
 8004750:	4629      	mov	r1, r5
 8004752:	4638      	mov	r0, r7
 8004754:	47c0      	blx	r8
 8004756:	4306      	orrs	r6, r0
 8004758:	3568      	adds	r5, #104	@ 0x68
 800475a:	e7e9      	b.n	8004730 <_fwalk_sglue+0x10>

0800475c <iprintf>:
 800475c:	b40f      	push	{r0, r1, r2, r3}
 800475e:	b507      	push	{r0, r1, r2, lr}
 8004760:	4906      	ldr	r1, [pc, #24]	@ (800477c <iprintf+0x20>)
 8004762:	ab04      	add	r3, sp, #16
 8004764:	6808      	ldr	r0, [r1, #0]
 8004766:	f853 2b04 	ldr.w	r2, [r3], #4
 800476a:	6881      	ldr	r1, [r0, #8]
 800476c:	9301      	str	r3, [sp, #4]
 800476e:	f002 fde7 	bl	8007340 <_vfiprintf_r>
 8004772:	b003      	add	sp, #12
 8004774:	f85d eb04 	ldr.w	lr, [sp], #4
 8004778:	b004      	add	sp, #16
 800477a:	4770      	bx	lr
 800477c:	20000018 	.word	0x20000018

08004780 <_puts_r>:
 8004780:	6a03      	ldr	r3, [r0, #32]
 8004782:	b570      	push	{r4, r5, r6, lr}
 8004784:	6884      	ldr	r4, [r0, #8]
 8004786:	4605      	mov	r5, r0
 8004788:	460e      	mov	r6, r1
 800478a:	b90b      	cbnz	r3, 8004790 <_puts_r+0x10>
 800478c:	f7ff ffb0 	bl	80046f0 <__sinit>
 8004790:	6e63      	ldr	r3, [r4, #100]	@ 0x64
 8004792:	07db      	lsls	r3, r3, #31
 8004794:	d405      	bmi.n	80047a2 <_puts_r+0x22>
 8004796:	89a3      	ldrh	r3, [r4, #12]
 8004798:	0598      	lsls	r0, r3, #22
 800479a:	d402      	bmi.n	80047a2 <_puts_r+0x22>
 800479c:	6da0      	ldr	r0, [r4, #88]	@ 0x58
 800479e:	f000 f9c2 	bl	8004b26 <__retarget_lock_acquire_recursive>
 80047a2:	89a3      	ldrh	r3, [r4, #12]
 80047a4:	0719      	lsls	r1, r3, #28
 80047a6:	d502      	bpl.n	80047ae <_puts_r+0x2e>
 80047a8:	6923      	ldr	r3, [r4, #16]
 80047aa:	2b00      	cmp	r3, #0
 80047ac:	d135      	bne.n	800481a <_puts_r+0x9a>
 80047ae:	4621      	mov	r1, r4
 80047b0:	4628      	mov	r0, r5
 80047b2:	f000 f8e5 	bl	8004980 <__swsetup_r>
 80047b6:	b380      	cbz	r0, 800481a <_puts_r+0x9a>
 80047b8:	f04f 35ff 	mov.w	r5, #4294967295
 80047bc:	6e63      	ldr	r3, [r4, #100]	@ 0x64
 80047be:	07da      	lsls	r2, r3, #31
 80047c0:	d405      	bmi.n	80047ce <_puts_r+0x4e>
 80047c2:	89a3      	ldrh	r3, [r4, #12]
 80047c4:	059b      	lsls	r3, r3, #22
 80047c6:	d402      	bmi.n	80047ce <_puts_r+0x4e>
 80047c8:	6da0      	ldr	r0, [r4, #88]	@ 0x58
 80047ca:	f000 f9ad 	bl	8004b28 <__retarget_lock_release_recursive>
 80047ce:	4628      	mov	r0, r5
 80047d0:	bd70      	pop	{r4, r5, r6, pc}
 80047d2:	2b00      	cmp	r3, #0
 80047d4:	da04      	bge.n	80047e0 <_puts_r+0x60>
 80047d6:	69a2      	ldr	r2, [r4, #24]
 80047d8:	429a      	cmp	r2, r3
 80047da:	dc17      	bgt.n	800480c <_puts_r+0x8c>
 80047dc:	290a      	cmp	r1, #10
 80047de:	d015      	beq.n	800480c <_puts_r+0x8c>
 80047e0:	6823      	ldr	r3, [r4, #0]
 80047e2:	1c5a      	adds	r2, r3, #1
 80047e4:	6022      	str	r2, [r4, #0]
 80047e6:	7019      	strb	r1, [r3, #0]
 80047e8:	68a3      	ldr	r3, [r4, #8]
 80047ea:	f816 1f01 	ldrb.w	r1, [r6, #1]!
 80047ee:	3b01      	subs	r3, #1
 80047f0:	60a3      	str	r3, [r4, #8]
 80047f2:	2900      	cmp	r1, #0
 80047f4:	d1ed      	bne.n	80047d2 <_puts_r+0x52>
 80047f6:	2b00      	cmp	r3, #0
 80047f8:	da11      	bge.n	800481e <_puts_r+0x9e>
 80047fa:	4622      	mov	r2, r4
 80047fc:	210a      	movs	r1, #10
 80047fe:	4628      	mov	r0, r5
 8004800:	f000 f87f 	bl	8004902 <__swbuf_r>
 8004804:	3001      	adds	r0, #1
 8004806:	d0d7      	beq.n	80047b8 <_puts_r+0x38>
 8004808:	250a      	movs	r5, #10
 800480a:	e7d7      	b.n	80047bc <_puts_r+0x3c>
 800480c:	4622      	mov	r2, r4
 800480e:	4628      	mov	r0, r5
 8004810:	f000 f877 	bl	8004902 <__swbuf_r>
 8004814:	3001      	adds	r0, #1
 8004816:	d1e7      	bne.n	80047e8 <_puts_r+0x68>
 8004818:	e7ce      	b.n	80047b8 <_puts_r+0x38>
 800481a:	3e01      	subs	r6, #1
 800481c:	e7e4      	b.n	80047e8 <_puts_r+0x68>
 800481e:	6823      	ldr	r3, [r4, #0]
 8004820:	1c5a      	adds	r2, r3, #1
 8004822:	6022      	str	r2, [r4, #0]
 8004824:	220a      	movs	r2, #10
 8004826:	701a      	strb	r2, [r3, #0]
 8004828:	e7ee      	b.n	8004808 <_puts_r+0x88>
	...

0800482c <puts>:
 800482c:	4b02      	ldr	r3, [pc, #8]	@ (8004838 <puts+0xc>)
 800482e:	4601      	mov	r1, r0
 8004830:	6818      	ldr	r0, [r3, #0]
 8004832:	f7ff bfa5 	b.w	8004780 <_puts_r>
 8004836:	bf00      	nop
 8004838:	20000018 	.word	0x20000018

0800483c <siprintf>:
 800483c:	b40e      	push	{r1, r2, r3}
 800483e:	b500      	push	{lr}
 8004840:	b09c      	sub	sp, #112	@ 0x70
 8004842:	ab1d      	add	r3, sp, #116	@ 0x74
 8004844:	9002      	str	r0, [sp, #8]
 8004846:	9006      	str	r0, [sp, #24]
 8004848:	f06f 4100 	mvn.w	r1, #2147483648	@ 0x80000000
 800484c:	4809      	ldr	r0, [pc, #36]	@ (8004874 <siprintf+0x38>)
 800484e:	9107      	str	r1, [sp, #28]
 8004850:	9104      	str	r1, [sp, #16]
 8004852:	4909      	ldr	r1, [pc, #36]	@ (8004878 <siprintf+0x3c>)
 8004854:	f853 2b04 	ldr.w	r2, [r3], #4
 8004858:	9105      	str	r1, [sp, #20]
 800485a:	6800      	ldr	r0, [r0, #0]
 800485c:	9301      	str	r3, [sp, #4]
 800485e:	a902      	add	r1, sp, #8
 8004860:	f002 fc48 	bl	80070f4 <_svfiprintf_r>
 8004864:	9b02      	ldr	r3, [sp, #8]
 8004866:	2200      	movs	r2, #0
 8004868:	701a      	strb	r2, [r3, #0]
 800486a:	b01c      	add	sp, #112	@ 0x70
 800486c:	f85d eb04 	ldr.w	lr, [sp], #4
 8004870:	b003      	add	sp, #12
 8004872:	4770      	bx	lr
 8004874:	20000018 	.word	0x20000018
 8004878:	ffff0208 	.word	0xffff0208

0800487c <__sread>:
 800487c:	b510      	push	{r4, lr}
 800487e:	460c      	mov	r4, r1
 8004880:	f9b1 100e 	ldrsh.w	r1, [r1, #14]
 8004884:	f000 f900 	bl	8004a88 <_read_r>
 8004888:	2800      	cmp	r0, #0
 800488a:	bfab      	itete	ge
 800488c:	6d63      	ldrge	r3, [r4, #84]	@ 0x54
 800488e:	89a3      	ldrhlt	r3, [r4, #12]
 8004890:	181b      	addge	r3, r3, r0
 8004892:	f423 5380 	biclt.w	r3, r3, #4096	@ 0x1000
 8004896:	bfac      	ite	ge
 8004898:	6563      	strge	r3, [r4, #84]	@ 0x54
 800489a:	81a3      	strhlt	r3, [r4, #12]
 800489c:	bd10      	pop	{r4, pc}

0800489e <__swrite>:
 800489e:	e92d 41f0 	stmdb	sp!, {r4, r5, r6, r7, r8, lr}
 80048a2:	461f      	mov	r7, r3
 80048a4:	898b      	ldrh	r3, [r1, #12]
 80048a6:	05db      	lsls	r3, r3, #23
 80048a8:	4605      	mov	r5, r0
 80048aa:	460c      	mov	r4, r1
 80048ac:	4616      	mov	r6, r2
 80048ae:	d505      	bpl.n	80048bc <__swrite+0x1e>
 80048b0:	f9b1 100e 	ldrsh.w	r1, [r1, #14]
 80048b4:	2302      	movs	r3, #2
 80048b6:	2200      	movs	r2, #0
 80048b8:	f000 f8d4 	bl	8004a64 <_lseek_r>
 80048bc:	89a3      	ldrh	r3, [r4, #12]
 80048be:	f9b4 100e 	ldrsh.w	r1, [r4, #14]
 80048c2:	f423 5380 	bic.w	r3, r3, #4096	@ 0x1000
 80048c6:	81a3      	strh	r3, [r4, #12]
 80048c8:	4632      	mov	r2, r6
 80048ca:	463b      	mov	r3, r7
 80048cc:	4628      	mov	r0, r5
 80048ce:	e8bd 41f0 	ldmia.w	sp!, {r4, r5, r6, r7, r8, lr}
 80048d2:	f000 b8eb 	b.w	8004aac <_write_r>

080048d6 <__sseek>:
 80048d6:	b510      	push	{r4, lr}
 80048d8:	460c      	mov	r4, r1
 80048da:	f9b1 100e 	ldrsh.w	r1, [r1, #14]
 80048de:	f000 f8c1 	bl	8004a64 <_lseek_r>
 80048e2:	1c43      	adds	r3, r0, #1
 80048e4:	89a3      	ldrh	r3, [r4, #12]
 80048e6:	bf15      	itete	ne
 80048e8:	6560      	strne	r0, [r4, #84]	@ 0x54
 80048ea:	f423 5380 	biceq.w	r3, r3, #4096	@ 0x1000
 80048ee:	f443 5380 	orrne.w	r3, r3, #4096	@ 0x1000
 80048f2:	81a3      	strheq	r3, [r4, #12]
 80048f4:	bf18      	it	ne
 80048f6:	81a3      	strhne	r3, [r4, #12]
 80048f8:	bd10      	pop	{r4, pc}

080048fa <__sclose>:
 80048fa:	f9b1 100e 	ldrsh.w	r1, [r1, #14]
 80048fe:	f000 b8a1 	b.w	8004a44 <_close_r>

08004902 <__swbuf_r>:
 8004902:	b5f8      	push	{r3, r4, r5, r6, r7, lr}
 8004904:	460e      	mov	r6, r1
 8004906:	4614      	mov	r4, r2
 8004908:	4605      	mov	r5, r0
 800490a:	b118      	cbz	r0, 8004914 <__swbuf_r+0x12>
 800490c:	6a03      	ldr	r3, [r0, #32]
 800490e:	b90b      	cbnz	r3, 8004914 <__swbuf_r+0x12>
 8004910:	f7ff feee 	bl	80046f0 <__sinit>
 8004914:	69a3      	ldr	r3, [r4, #24]
 8004916:	60a3      	str	r3, [r4, #8]
 8004918:	89a3      	ldrh	r3, [r4, #12]
 800491a:	071a      	lsls	r2, r3, #28
 800491c:	d501      	bpl.n	8004922 <__swbuf_r+0x20>
 800491e:	6923      	ldr	r3, [r4, #16]
 8004920:	b943      	cbnz	r3, 8004934 <__swbuf_r+0x32>
 8004922:	4621      	mov	r1, r4
 8004924:	4628      	mov	r0, r5
 8004926:	f000 f82b 	bl	8004980 <__swsetup_r>
 800492a:	b118      	cbz	r0, 8004934 <__swbuf_r+0x32>
 800492c:	f04f 37ff 	mov.w	r7, #4294967295
 8004930:	4638      	mov	r0, r7
 8004932:	bdf8      	pop	{r3, r4, r5, r6, r7, pc}
 8004934:	6823      	ldr	r3, [r4, #0]
 8004936:	6922      	ldr	r2, [r4, #16]
 8004938:	1a98      	subs	r0, r3, r2
 800493a:	6963      	ldr	r3, [r4, #20]
 800493c:	b2f6      	uxtb	r6, r6
 800493e:	4283      	cmp	r3, r0
 8004940:	4637      	mov	r7, r6
 8004942:	dc05      	bgt.n	8004950 <__swbuf_r+0x4e>
 8004944:	4621      	mov	r1, r4
 8004946:	4628      	mov	r0, r5
 8004948:	f002 fe96 	bl	8007678 <_fflush_r>
 800494c:	2800      	cmp	r0, #0
 800494e:	d1ed      	bne.n	800492c <__swbuf_r+0x2a>
 8004950:	68a3      	ldr	r3, [r4, #8]
 8004952:	3b01      	subs	r3, #1
 8004954:	60a3      	str	r3, [r4, #8]
 8004956:	6823      	ldr	r3, [r4, #0]
 8004958:	1c5a      	adds	r2, r3, #1
 800495a:	6022      	str	r2, [r4, #0]
 800495c:	701e      	strb	r6, [r3, #0]
 800495e:	6962      	ldr	r2, [r4, #20]
 8004960:	1c43      	adds	r3, r0, #1
 8004962:	429a      	cmp	r2, r3
 8004964:	d004      	beq.n	8004970 <__swbuf_r+0x6e>
 8004966:	89a3      	ldrh	r3, [r4, #12]
 8004968:	07db      	lsls	r3, r3, #31
 800496a:	d5e1      	bpl.n	8004930 <__swbuf_r+0x2e>
 800496c:	2e0a      	cmp	r6, #10
 800496e:	d1df      	bne.n	8004930 <__swbuf_r+0x2e>
 8004970:	4621      	mov	r1, r4
 8004972:	4628      	mov	r0, r5
 8004974:	f002 fe80 	bl	8007678 <_fflush_r>
 8004978:	2800      	cmp	r0, #0
 800497a:	d0d9      	beq.n	8004930 <__swbuf_r+0x2e>
 800497c:	e7d6      	b.n	800492c <__swbuf_r+0x2a>
	...

08004980 <__swsetup_r>:
 8004980:	b538      	push	{r3, r4, r5, lr}
 8004982:	4b29      	ldr	r3, [pc, #164]	@ (8004a28 <__swsetup_r+0xa8>)
 8004984:	4605      	mov	r5, r0
 8004986:	6818      	ldr	r0, [r3, #0]
 8004988:	460c      	mov	r4, r1
 800498a:	b118      	cbz	r0, 8004994 <__swsetup_r+0x14>
 800498c:	6a03      	ldr	r3, [r0, #32]
 800498e:	b90b      	cbnz	r3, 8004994 <__swsetup_r+0x14>
 8004990:	f7ff feae 	bl	80046f0 <__sinit>
 8004994:	f9b4 300c 	ldrsh.w	r3, [r4, #12]
 8004998:	0719      	lsls	r1, r3, #28
 800499a:	d422      	bmi.n	80049e2 <__swsetup_r+0x62>
 800499c:	06da      	lsls	r2, r3, #27
 800499e:	d407      	bmi.n	80049b0 <__swsetup_r+0x30>
 80049a0:	2209      	movs	r2, #9
 80049a2:	602a      	str	r2, [r5, #0]
 80049a4:	f043 0340 	orr.w	r3, r3, #64	@ 0x40
 80049a8:	81a3      	strh	r3, [r4, #12]
 80049aa:	f04f 30ff 	mov.w	r0, #4294967295
 80049ae:	e033      	b.n	8004a18 <__swsetup_r+0x98>
 80049b0:	0758      	lsls	r0, r3, #29
 80049b2:	d512      	bpl.n	80049da <__swsetup_r+0x5a>
 80049b4:	6b61      	ldr	r1, [r4, #52]	@ 0x34
 80049b6:	b141      	cbz	r1, 80049ca <__swsetup_r+0x4a>
 80049b8:	f104 0344 	add.w	r3, r4, #68	@ 0x44
 80049bc:	4299      	cmp	r1, r3
 80049be:	d002      	beq.n	80049c6 <__swsetup_r+0x46>
 80049c0:	4628      	mov	r0, r5
 80049c2:	f000 ff05 	bl	80057d0 <_free_r>
 80049c6:	2300      	movs	r3, #0
 80049c8:	6363      	str	r3, [r4, #52]	@ 0x34
 80049ca:	89a3      	ldrh	r3, [r4, #12]
 80049cc:	f023 0324 	bic.w	r3, r3, #36	@ 0x24
 80049d0:	81a3      	strh	r3, [r4, #12]
 80049d2:	2300      	movs	r3, #0
 80049d4:	6063      	str	r3, [r4, #4]
 80049d6:	6923      	ldr	r3, [r4, #16]
 80049d8:	6023      	str	r3, [r4, #0]
 80049da:	89a3      	ldrh	r3, [r4, #12]
 80049dc:	f043 0308 	orr.w	r3, r3, #8
 80049e0:	81a3      	strh	r3, [r4, #12]
 80049e2:	6923      	ldr	r3, [r4, #16]
 80049e4:	b94b      	cbnz	r3, 80049fa <__swsetup_r+0x7a>
 80049e6:	89a3      	ldrh	r3, [r4, #12]
 80049e8:	f403 7320 	and.w	r3, r3, #640	@ 0x280
 80049ec:	f5b3 7f00 	cmp.w	r3, #512	@ 0x200
 80049f0:	d003      	beq.n	80049fa <__swsetup_r+0x7a>
 80049f2:	4621      	mov	r1, r4
 80049f4:	4628      	mov	r0, r5
 80049f6:	f002 fe8d 	bl	8007714 <__smakebuf_r>
 80049fa:	f9b4 300c 	ldrsh.w	r3, [r4, #12]
 80049fe:	f013 0201 	ands.w	r2, r3, #1
 8004a02:	d00a      	beq.n	8004a1a <__swsetup_r+0x9a>
 8004a04:	2200      	movs	r2, #0
 8004a06:	60a2      	str	r2, [r4, #8]
 8004a08:	6962      	ldr	r2, [r4, #20]
 8004a0a:	4252      	negs	r2, r2
 8004a0c:	61a2      	str	r2, [r4, #24]
 8004a0e:	6922      	ldr	r2, [r4, #16]
 8004a10:	b942      	cbnz	r2, 8004a24 <__swsetup_r+0xa4>
 8004a12:	f013 0080 	ands.w	r0, r3, #128	@ 0x80
 8004a16:	d1c5      	bne.n	80049a4 <__swsetup_r+0x24>
 8004a18:	bd38      	pop	{r3, r4, r5, pc}
 8004a1a:	0799      	lsls	r1, r3, #30
 8004a1c:	bf58      	it	pl
 8004a1e:	6962      	ldrpl	r2, [r4, #20]
 8004a20:	60a2      	str	r2, [r4, #8]
 8004a22:	e7f4      	b.n	8004a0e <__swsetup_r+0x8e>
 8004a24:	2000      	movs	r0, #0
 8004a26:	e7f7      	b.n	8004a18 <__swsetup_r+0x98>
 8004a28:	20000018 	.word	0x20000018

08004a2c <memset>:
 8004a2c:	4402      	add	r2, r0
 8004a2e:	4603      	mov	r3, r0
 8004a30:	4293      	cmp	r3, r2
 8004a32:	d100      	bne.n	8004a36 <memset+0xa>
 8004a34:	4770      	bx	lr
 8004a36:	f803 1b01 	strb.w	r1, [r3], #1
 8004a3a:	e7f9      	b.n	8004a30 <memset+0x4>

08004a3c <_localeconv_r>:
 8004a3c:	4800      	ldr	r0, [pc, #0]	@ (8004a40 <_localeconv_r+0x4>)
 8004a3e:	4770      	bx	lr
 8004a40:	20000158 	.word	0x20000158

08004a44 <_close_r>:
 8004a44:	b538      	push	{r3, r4, r5, lr}
 8004a46:	4d06      	ldr	r5, [pc, #24]	@ (8004a60 <_close_r+0x1c>)
 8004a48:	2300      	movs	r3, #0
 8004a4a:	4604      	mov	r4, r0
 8004a4c:	4608      	mov	r0, r1
 8004a4e:	602b      	str	r3, [r5, #0]
 8004a50:	f7fc fe9d 	bl	800178e <_close>
 8004a54:	1c43      	adds	r3, r0, #1
 8004a56:	d102      	bne.n	8004a5e <_close_r+0x1a>
 8004a58:	682b      	ldr	r3, [r5, #0]
 8004a5a:	b103      	cbz	r3, 8004a5e <_close_r+0x1a>
 8004a5c:	6023      	str	r3, [r4, #0]
 8004a5e:	bd38      	pop	{r3, r4, r5, pc}
 8004a60:	200003c4 	.word	0x200003c4

08004a64 <_lseek_r>:
 8004a64:	b538      	push	{r3, r4, r5, lr}
 8004a66:	4d07      	ldr	r5, [pc, #28]	@ (8004a84 <_lseek_r+0x20>)
 8004a68:	4604      	mov	r4, r0
 8004a6a:	4608      	mov	r0, r1
 8004a6c:	4611      	mov	r1, r2
 8004a6e:	2200      	movs	r2, #0
 8004a70:	602a      	str	r2, [r5, #0]
 8004a72:	461a      	mov	r2, r3
 8004a74:	f7fc feb2 	bl	80017dc <_lseek>
 8004a78:	1c43      	adds	r3, r0, #1
 8004a7a:	d102      	bne.n	8004a82 <_lseek_r+0x1e>
 8004a7c:	682b      	ldr	r3, [r5, #0]
 8004a7e:	b103      	cbz	r3, 8004a82 <_lseek_r+0x1e>
 8004a80:	6023      	str	r3, [r4, #0]
 8004a82:	bd38      	pop	{r3, r4, r5, pc}
 8004a84:	200003c4 	.word	0x200003c4

08004a88 <_read_r>:
 8004a88:	b538      	push	{r3, r4, r5, lr}
 8004a8a:	4d07      	ldr	r5, [pc, #28]	@ (8004aa8 <_read_r+0x20>)
 8004a8c:	4604      	mov	r4, r0
 8004a8e:	4608      	mov	r0, r1
 8004a90:	4611      	mov	r1, r2
 8004a92:	2200      	movs	r2, #0
 8004a94:	602a      	str	r2, [r5, #0]
 8004a96:	461a      	mov	r2, r3
 8004a98:	f7fc fe5c 	bl	8001754 <_read>
 8004a9c:	1c43      	adds	r3, r0, #1
 8004a9e:	d102      	bne.n	8004aa6 <_read_r+0x1e>
 8004aa0:	682b      	ldr	r3, [r5, #0]
 8004aa2:	b103      	cbz	r3, 8004aa6 <_read_r+0x1e>
 8004aa4:	6023      	str	r3, [r4, #0]
 8004aa6:	bd38      	pop	{r3, r4, r5, pc}
 8004aa8:	200003c4 	.word	0x200003c4

08004aac <_write_r>:
 8004aac:	b538      	push	{r3, r4, r5, lr}
 8004aae:	4d07      	ldr	r5, [pc, #28]	@ (8004acc <_write_r+0x20>)
 8004ab0:	4604      	mov	r4, r0
 8004ab2:	4608      	mov	r0, r1
 8004ab4:	4611      	mov	r1, r2
 8004ab6:	2200      	movs	r2, #0
 8004ab8:	602a      	str	r2, [r5, #0]
 8004aba:	461a      	mov	r2, r3
 8004abc:	f7fc fc94 	bl	80013e8 <_write>
 8004ac0:	1c43      	adds	r3, r0, #1
 8004ac2:	d102      	bne.n	8004aca <_write_r+0x1e>
 8004ac4:	682b      	ldr	r3, [r5, #0]
 8004ac6:	b103      	cbz	r3, 8004aca <_write_r+0x1e>
 8004ac8:	6023      	str	r3, [r4, #0]
 8004aca:	bd38      	pop	{r3, r4, r5, pc}
 8004acc:	200003c4 	.word	0x200003c4

08004ad0 <__errno>:
 8004ad0:	4b01      	ldr	r3, [pc, #4]	@ (8004ad8 <__errno+0x8>)
 8004ad2:	6818      	ldr	r0, [r3, #0]
 8004ad4:	4770      	bx	lr
 8004ad6:	bf00      	nop
 8004ad8:	20000018 	.word	0x20000018

08004adc <__libc_init_array>:
 8004adc:	b570      	push	{r4, r5, r6, lr}
 8004ade:	4d0d      	ldr	r5, [pc, #52]	@ (8004b14 <__libc_init_array+0x38>)
 8004ae0:	4c0d      	ldr	r4, [pc, #52]	@ (8004b18 <__libc_init_array+0x3c>)
 8004ae2:	1b64      	subs	r4, r4, r5
 8004ae4:	10a4      	asrs	r4, r4, #2
 8004ae6:	2600      	movs	r6, #0
 8004ae8:	42a6      	cmp	r6, r4
 8004aea:	d109      	bne.n	8004b00 <__libc_init_array+0x24>
 8004aec:	4d0b      	ldr	r5, [pc, #44]	@ (8004b1c <__libc_init_array+0x40>)
 8004aee:	4c0c      	ldr	r4, [pc, #48]	@ (8004b20 <__libc_init_array+0x44>)
 8004af0:	f003 fcd8 	bl	80084a4 <_init>
 8004af4:	1b64      	subs	r4, r4, r5
 8004af6:	10a4      	asrs	r4, r4, #2
 8004af8:	2600      	movs	r6, #0
 8004afa:	42a6      	cmp	r6, r4
 8004afc:	d105      	bne.n	8004b0a <__libc_init_array+0x2e>
 8004afe:	bd70      	pop	{r4, r5, r6, pc}
 8004b00:	f855 3b04 	ldr.w	r3, [r5], #4
 8004b04:	4798      	blx	r3
 8004b06:	3601      	adds	r6, #1
 8004b08:	e7ee      	b.n	8004ae8 <__libc_init_array+0xc>
 8004b0a:	f855 3b04 	ldr.w	r3, [r5], #4
 8004b0e:	4798      	blx	r3
 8004b10:	3601      	adds	r6, #1
 8004b12:	e7f2      	b.n	8004afa <__libc_init_array+0x1e>
 8004b14:	08008970 	.word	0x08008970
 8004b18:	08008970 	.word	0x08008970
 8004b1c:	08008970 	.word	0x08008970
 8004b20:	08008974 	.word	0x08008974

08004b24 <__retarget_lock_init_recursive>:
 8004b24:	4770      	bx	lr

08004b26 <__retarget_lock_acquire_recursive>:
 8004b26:	4770      	bx	lr

08004b28 <__retarget_lock_release_recursive>:
 8004b28:	4770      	bx	lr
	...

08004b2c <nanf>:
 8004b2c:	ed9f 0a01 	vldr	s0, [pc, #4]	@ 8004b34 <nanf+0x8>
 8004b30:	4770      	bx	lr
 8004b32:	bf00      	nop
 8004b34:	7fc00000 	.word	0x7fc00000

08004b38 <quorem>:
 8004b38:	e92d 4ff7 	stmdb	sp!, {r0, r1, r2, r4, r5, r6, r7, r8, r9, sl, fp, lr}
 8004b3c:	6903      	ldr	r3, [r0, #16]
 8004b3e:	690c      	ldr	r4, [r1, #16]
 8004b40:	42a3      	cmp	r3, r4
 8004b42:	4607      	mov	r7, r0
 8004b44:	db7e      	blt.n	8004c44 <quorem+0x10c>
 8004b46:	3c01      	subs	r4, #1
 8004b48:	f101 0814 	add.w	r8, r1, #20
 8004b4c:	00a3      	lsls	r3, r4, #2
 8004b4e:	f100 0514 	add.w	r5, r0, #20
 8004b52:	9300      	str	r3, [sp, #0]
 8004b54:	eb05 0384 	add.w	r3, r5, r4, lsl #2
 8004b58:	9301      	str	r3, [sp, #4]
 8004b5a:	f858 3024 	ldr.w	r3, [r8, r4, lsl #2]
 8004b5e:	f855 2024 	ldr.w	r2, [r5, r4, lsl #2]
 8004b62:	3301      	adds	r3, #1
 8004b64:	429a      	cmp	r2, r3
 8004b66:	eb08 0984 	add.w	r9, r8, r4, lsl #2
 8004b6a:	fbb2 f6f3 	udiv	r6, r2, r3
 8004b6e:	d32e      	bcc.n	8004bce <quorem+0x96>
 8004b70:	f04f 0a00 	mov.w	sl, #0
 8004b74:	46c4      	mov	ip, r8
 8004b76:	46ae      	mov	lr, r5
 8004b78:	46d3      	mov	fp, sl
 8004b7a:	f85c 3b04 	ldr.w	r3, [ip], #4
 8004b7e:	b298      	uxth	r0, r3
 8004b80:	fb06 a000 	mla	r0, r6, r0, sl
 8004b84:	0c02      	lsrs	r2, r0, #16
 8004b86:	0c1b      	lsrs	r3, r3, #16
 8004b88:	fb06 2303 	mla	r3, r6, r3, r2
 8004b8c:	f8de 2000 	ldr.w	r2, [lr]
 8004b90:	b280      	uxth	r0, r0
 8004b92:	b292      	uxth	r2, r2
 8004b94:	1a12      	subs	r2, r2, r0
 8004b96:	445a      	add	r2, fp
 8004b98:	f8de 0000 	ldr.w	r0, [lr]
 8004b9c:	ea4f 4a13 	mov.w	sl, r3, lsr #16
 8004ba0:	b29b      	uxth	r3, r3
 8004ba2:	ebc3 4322 	rsb	r3, r3, r2, asr #16
 8004ba6:	eb03 4310 	add.w	r3, r3, r0, lsr #16
 8004baa:	b292      	uxth	r2, r2
 8004bac:	ea42 4203 	orr.w	r2, r2, r3, lsl #16
 8004bb0:	45e1      	cmp	r9, ip
 8004bb2:	f84e 2b04 	str.w	r2, [lr], #4
 8004bb6:	ea4f 4b23 	mov.w	fp, r3, asr #16
 8004bba:	d2de      	bcs.n	8004b7a <quorem+0x42>
 8004bbc:	9b00      	ldr	r3, [sp, #0]
 8004bbe:	58eb      	ldr	r3, [r5, r3]
 8004bc0:	b92b      	cbnz	r3, 8004bce <quorem+0x96>
 8004bc2:	9b01      	ldr	r3, [sp, #4]
 8004bc4:	3b04      	subs	r3, #4
 8004bc6:	429d      	cmp	r5, r3
 8004bc8:	461a      	mov	r2, r3
 8004bca:	d32f      	bcc.n	8004c2c <quorem+0xf4>
 8004bcc:	613c      	str	r4, [r7, #16]
 8004bce:	4638      	mov	r0, r7
 8004bd0:	f001 f9c2 	bl	8005f58 <__mcmp>
 8004bd4:	2800      	cmp	r0, #0
 8004bd6:	db25      	blt.n	8004c24 <quorem+0xec>
 8004bd8:	4629      	mov	r1, r5
 8004bda:	2000      	movs	r0, #0
 8004bdc:	f858 2b04 	ldr.w	r2, [r8], #4
 8004be0:	f8d1 c000 	ldr.w	ip, [r1]
 8004be4:	fa1f fe82 	uxth.w	lr, r2
 8004be8:	fa1f f38c 	uxth.w	r3, ip
 8004bec:	eba3 030e 	sub.w	r3, r3, lr
 8004bf0:	4403      	add	r3, r0
 8004bf2:	0c12      	lsrs	r2, r2, #16
 8004bf4:	ebc2 4223 	rsb	r2, r2, r3, asr #16
 8004bf8:	eb02 421c 	add.w	r2, r2, ip, lsr #16
 8004bfc:	b29b      	uxth	r3, r3
 8004bfe:	ea43 4302 	orr.w	r3, r3, r2, lsl #16
 8004c02:	45c1      	cmp	r9, r8
 8004c04:	f841 3b04 	str.w	r3, [r1], #4
 8004c08:	ea4f 4022 	mov.w	r0, r2, asr #16
 8004c0c:	d2e6      	bcs.n	8004bdc <quorem+0xa4>
 8004c0e:	f855 2024 	ldr.w	r2, [r5, r4, lsl #2]
 8004c12:	eb05 0384 	add.w	r3, r5, r4, lsl #2
 8004c16:	b922      	cbnz	r2, 8004c22 <quorem+0xea>
 8004c18:	3b04      	subs	r3, #4
 8004c1a:	429d      	cmp	r5, r3
 8004c1c:	461a      	mov	r2, r3
 8004c1e:	d30b      	bcc.n	8004c38 <quorem+0x100>
 8004c20:	613c      	str	r4, [r7, #16]
 8004c22:	3601      	adds	r6, #1
 8004c24:	4630      	mov	r0, r6
 8004c26:	b003      	add	sp, #12
 8004c28:	e8bd 8ff0 	ldmia.w	sp!, {r4, r5, r6, r7, r8, r9, sl, fp, pc}
 8004c2c:	6812      	ldr	r2, [r2, #0]
 8004c2e:	3b04      	subs	r3, #4
 8004c30:	2a00      	cmp	r2, #0
 8004c32:	d1cb      	bne.n	8004bcc <quorem+0x94>
 8004c34:	3c01      	subs	r4, #1
 8004c36:	e7c6      	b.n	8004bc6 <quorem+0x8e>
 8004c38:	6812      	ldr	r2, [r2, #0]
 8004c3a:	3b04      	subs	r3, #4
 8004c3c:	2a00      	cmp	r2, #0
 8004c3e:	d1ef      	bne.n	8004c20 <quorem+0xe8>
 8004c40:	3c01      	subs	r4, #1
 8004c42:	e7ea      	b.n	8004c1a <quorem+0xe2>
 8004c44:	2000      	movs	r0, #0
 8004c46:	e7ee      	b.n	8004c26 <quorem+0xee>

08004c48 <_dtoa_r>:
 8004c48:	e92d 4ff0 	stmdb	sp!, {r4, r5, r6, r7, r8, r9, sl, fp, lr}
 8004c4c:	69c7      	ldr	r7, [r0, #28]
 8004c4e:	b099      	sub	sp, #100	@ 0x64
 8004c50:	ed8d 0b02 	vstr	d0, [sp, #8]
 8004c54:	ec55 4b10 	vmov	r4, r5, d0
 8004c58:	9e22      	ldr	r6, [sp, #136]	@ 0x88
 8004c5a:	9109      	str	r1, [sp, #36]	@ 0x24
 8004c5c:	4683      	mov	fp, r0
 8004c5e:	920e      	str	r2, [sp, #56]	@ 0x38
 8004c60:	9313      	str	r3, [sp, #76]	@ 0x4c
 8004c62:	b97f      	cbnz	r7, 8004c84 <_dtoa_r+0x3c>
 8004c64:	2010      	movs	r0, #16
 8004c66:	f000 fdfd 	bl	8005864 <malloc>
 8004c6a:	4602      	mov	r2, r0
 8004c6c:	f8cb 001c 	str.w	r0, [fp, #28]
 8004c70:	b920      	cbnz	r0, 8004c7c <_dtoa_r+0x34>
 8004c72:	4ba7      	ldr	r3, [pc, #668]	@ (8004f10 <_dtoa_r+0x2c8>)
 8004c74:	21ef      	movs	r1, #239	@ 0xef
 8004c76:	48a7      	ldr	r0, [pc, #668]	@ (8004f14 <_dtoa_r+0x2cc>)
 8004c78:	f002 fdfe 	bl	8007878 <__assert_func>
 8004c7c:	e9c0 7701 	strd	r7, r7, [r0, #4]
 8004c80:	6007      	str	r7, [r0, #0]
 8004c82:	60c7      	str	r7, [r0, #12]
 8004c84:	f8db 301c 	ldr.w	r3, [fp, #28]
 8004c88:	6819      	ldr	r1, [r3, #0]
 8004c8a:	b159      	cbz	r1, 8004ca4 <_dtoa_r+0x5c>
 8004c8c:	685a      	ldr	r2, [r3, #4]
 8004c8e:	604a      	str	r2, [r1, #4]
 8004c90:	2301      	movs	r3, #1
 8004c92:	4093      	lsls	r3, r2
 8004c94:	608b      	str	r3, [r1, #8]
 8004c96:	4658      	mov	r0, fp
 8004c98:	f000 feda 	bl	8005a50 <_Bfree>
 8004c9c:	f8db 301c 	ldr.w	r3, [fp, #28]
 8004ca0:	2200      	movs	r2, #0
 8004ca2:	601a      	str	r2, [r3, #0]
 8004ca4:	1e2b      	subs	r3, r5, #0
 8004ca6:	bfb9      	ittee	lt
 8004ca8:	f023 4300 	biclt.w	r3, r3, #2147483648	@ 0x80000000
 8004cac:	9303      	strlt	r3, [sp, #12]
 8004cae:	2300      	movge	r3, #0
 8004cb0:	6033      	strge	r3, [r6, #0]
 8004cb2:	9f03      	ldr	r7, [sp, #12]
 8004cb4:	4b98      	ldr	r3, [pc, #608]	@ (8004f18 <_dtoa_r+0x2d0>)
 8004cb6:	bfbc      	itt	lt
 8004cb8:	2201      	movlt	r2, #1
 8004cba:	6032      	strlt	r2, [r6, #0]
 8004cbc:	43bb      	bics	r3, r7
 8004cbe:	d112      	bne.n	8004ce6 <_dtoa_r+0x9e>
 8004cc0:	9a13      	ldr	r2, [sp, #76]	@ 0x4c
 8004cc2:	f242 730f 	movw	r3, #9999	@ 0x270f
 8004cc6:	6013      	str	r3, [r2, #0]
 8004cc8:	f3c7 0313 	ubfx	r3, r7, #0, #20
 8004ccc:	4323      	orrs	r3, r4
 8004cce:	f000 854d 	beq.w	800576c <_dtoa_r+0xb24>
 8004cd2:	9b23      	ldr	r3, [sp, #140]	@ 0x8c
 8004cd4:	f8df a254 	ldr.w	sl, [pc, #596]	@ 8004f2c <_dtoa_r+0x2e4>
 8004cd8:	2b00      	cmp	r3, #0
 8004cda:	f000 854f 	beq.w	800577c <_dtoa_r+0xb34>
 8004cde:	f10a 0303 	add.w	r3, sl, #3
 8004ce2:	f000 bd49 	b.w	8005778 <_dtoa_r+0xb30>
 8004ce6:	ed9d 7b02 	vldr	d7, [sp, #8]
 8004cea:	2200      	movs	r2, #0
 8004cec:	ec51 0b17 	vmov	r0, r1, d7
 8004cf0:	2300      	movs	r3, #0
 8004cf2:	ed8d 7b0c 	vstr	d7, [sp, #48]	@ 0x30
 8004cf6:	f7fb feef 	bl	8000ad8 <__aeabi_dcmpeq>
 8004cfa:	4680      	mov	r8, r0
 8004cfc:	b158      	cbz	r0, 8004d16 <_dtoa_r+0xce>
 8004cfe:	9a13      	ldr	r2, [sp, #76]	@ 0x4c
 8004d00:	2301      	movs	r3, #1
 8004d02:	6013      	str	r3, [r2, #0]
 8004d04:	9b23      	ldr	r3, [sp, #140]	@ 0x8c
 8004d06:	b113      	cbz	r3, 8004d0e <_dtoa_r+0xc6>
 8004d08:	9a23      	ldr	r2, [sp, #140]	@ 0x8c
 8004d0a:	4b84      	ldr	r3, [pc, #528]	@ (8004f1c <_dtoa_r+0x2d4>)
 8004d0c:	6013      	str	r3, [r2, #0]
 8004d0e:	f8df a220 	ldr.w	sl, [pc, #544]	@ 8004f30 <_dtoa_r+0x2e8>
 8004d12:	f000 bd33 	b.w	800577c <_dtoa_r+0xb34>
 8004d16:	ed9d 0b0c 	vldr	d0, [sp, #48]	@ 0x30
 8004d1a:	aa16      	add	r2, sp, #88	@ 0x58
 8004d1c:	a917      	add	r1, sp, #92	@ 0x5c
 8004d1e:	4658      	mov	r0, fp
 8004d20:	f001 fa3a 	bl	8006198 <__d2b>
 8004d24:	f3c7 560a 	ubfx	r6, r7, #20, #11
 8004d28:	4681      	mov	r9, r0
 8004d2a:	2e00      	cmp	r6, #0
 8004d2c:	d077      	beq.n	8004e1e <_dtoa_r+0x1d6>
 8004d2e:	9b0d      	ldr	r3, [sp, #52]	@ 0x34
 8004d30:	f8cd 8050 	str.w	r8, [sp, #80]	@ 0x50
 8004d34:	f3c3 0313 	ubfx	r3, r3, #0, #20
 8004d38:	e9dd 010c 	ldrd	r0, r1, [sp, #48]	@ 0x30
 8004d3c:	f043 537f 	orr.w	r3, r3, #1069547520	@ 0x3fc00000
 8004d40:	f443 1340 	orr.w	r3, r3, #3145728	@ 0x300000
 8004d44:	f2a6 36ff 	subw	r6, r6, #1023	@ 0x3ff
 8004d48:	4619      	mov	r1, r3
 8004d4a:	2200      	movs	r2, #0
 8004d4c:	4b74      	ldr	r3, [pc, #464]	@ (8004f20 <_dtoa_r+0x2d8>)
 8004d4e:	f7fb faa3 	bl	8000298 <__aeabi_dsub>
 8004d52:	a369      	add	r3, pc, #420	@ (adr r3, 8004ef8 <_dtoa_r+0x2b0>)
 8004d54:	e9d3 2300 	ldrd	r2, r3, [r3]
 8004d58:	f7fb fc56 	bl	8000608 <__aeabi_dmul>
 8004d5c:	a368      	add	r3, pc, #416	@ (adr r3, 8004f00 <_dtoa_r+0x2b8>)
 8004d5e:	e9d3 2300 	ldrd	r2, r3, [r3]
 8004d62:	f7fb fa9b 	bl	800029c <__adddf3>
 8004d66:	4604      	mov	r4, r0
 8004d68:	4630      	mov	r0, r6
 8004d6a:	460d      	mov	r5, r1
 8004d6c:	f7fb fbe2 	bl	8000534 <__aeabi_i2d>
 8004d70:	a365      	add	r3, pc, #404	@ (adr r3, 8004f08 <_dtoa_r+0x2c0>)
 8004d72:	e9d3 2300 	ldrd	r2, r3, [r3]
 8004d76:	f7fb fc47 	bl	8000608 <__aeabi_dmul>
 8004d7a:	4602      	mov	r2, r0
 8004d7c:	460b      	mov	r3, r1
 8004d7e:	4620      	mov	r0, r4
 8004d80:	4629      	mov	r1, r5
 8004d82:	f7fb fa8b 	bl	800029c <__adddf3>
 8004d86:	4604      	mov	r4, r0
 8004d88:	460d      	mov	r5, r1
 8004d8a:	f7fb feed 	bl	8000b68 <__aeabi_d2iz>
 8004d8e:	2200      	movs	r2, #0
 8004d90:	4607      	mov	r7, r0
 8004d92:	2300      	movs	r3, #0
 8004d94:	4620      	mov	r0, r4
 8004d96:	4629      	mov	r1, r5
 8004d98:	f7fb fea8 	bl	8000aec <__aeabi_dcmplt>
 8004d9c:	b140      	cbz	r0, 8004db0 <_dtoa_r+0x168>
 8004d9e:	4638      	mov	r0, r7
 8004da0:	f7fb fbc8 	bl	8000534 <__aeabi_i2d>
 8004da4:	4622      	mov	r2, r4
 8004da6:	462b      	mov	r3, r5
 8004da8:	f7fb fe96 	bl	8000ad8 <__aeabi_dcmpeq>
 8004dac:	b900      	cbnz	r0, 8004db0 <_dtoa_r+0x168>
 8004dae:	3f01      	subs	r7, #1
 8004db0:	2f16      	cmp	r7, #22
 8004db2:	d851      	bhi.n	8004e58 <_dtoa_r+0x210>
 8004db4:	4b5b      	ldr	r3, [pc, #364]	@ (8004f24 <_dtoa_r+0x2dc>)
 8004db6:	eb03 03c7 	add.w	r3, r3, r7, lsl #3
 8004dba:	e9d3 2300 	ldrd	r2, r3, [r3]
 8004dbe:	e9dd 010c 	ldrd	r0, r1, [sp, #48]	@ 0x30
 8004dc2:	f7fb fe93 	bl	8000aec <__aeabi_dcmplt>
 8004dc6:	2800      	cmp	r0, #0
 8004dc8:	d048      	beq.n	8004e5c <_dtoa_r+0x214>
 8004dca:	3f01      	subs	r7, #1
 8004dcc:	2300      	movs	r3, #0
 8004dce:	9312      	str	r3, [sp, #72]	@ 0x48
 8004dd0:	9b16      	ldr	r3, [sp, #88]	@ 0x58
 8004dd2:	1b9b      	subs	r3, r3, r6
 8004dd4:	1e5a      	subs	r2, r3, #1
 8004dd6:	bf44      	itt	mi
 8004dd8:	f1c3 0801 	rsbmi	r8, r3, #1
 8004ddc:	2300      	movmi	r3, #0
 8004dde:	9208      	str	r2, [sp, #32]
 8004de0:	bf54      	ite	pl
 8004de2:	f04f 0800 	movpl.w	r8, #0
 8004de6:	9308      	strmi	r3, [sp, #32]
 8004de8:	2f00      	cmp	r7, #0
 8004dea:	db39      	blt.n	8004e60 <_dtoa_r+0x218>
 8004dec:	9b08      	ldr	r3, [sp, #32]
 8004dee:	970f      	str	r7, [sp, #60]	@ 0x3c
 8004df0:	443b      	add	r3, r7
 8004df2:	9308      	str	r3, [sp, #32]
 8004df4:	2300      	movs	r3, #0
 8004df6:	930a      	str	r3, [sp, #40]	@ 0x28
 8004df8:	9b09      	ldr	r3, [sp, #36]	@ 0x24
 8004dfa:	2b09      	cmp	r3, #9
 8004dfc:	d864      	bhi.n	8004ec8 <_dtoa_r+0x280>
 8004dfe:	2b05      	cmp	r3, #5
 8004e00:	bfc4      	itt	gt
 8004e02:	3b04      	subgt	r3, #4
 8004e04:	9309      	strgt	r3, [sp, #36]	@ 0x24
 8004e06:	9b09      	ldr	r3, [sp, #36]	@ 0x24
 8004e08:	f1a3 0302 	sub.w	r3, r3, #2
 8004e0c:	bfcc      	ite	gt
 8004e0e:	2400      	movgt	r4, #0
 8004e10:	2401      	movle	r4, #1
 8004e12:	2b03      	cmp	r3, #3
 8004e14:	d863      	bhi.n	8004ede <_dtoa_r+0x296>
 8004e16:	e8df f003 	tbb	[pc, r3]
 8004e1a:	372a      	.short	0x372a
 8004e1c:	5535      	.short	0x5535
 8004e1e:	e9dd 6316 	ldrd	r6, r3, [sp, #88]	@ 0x58
 8004e22:	441e      	add	r6, r3
 8004e24:	f206 4332 	addw	r3, r6, #1074	@ 0x432
 8004e28:	2b20      	cmp	r3, #32
 8004e2a:	bfc1      	itttt	gt
 8004e2c:	f1c3 0340 	rsbgt	r3, r3, #64	@ 0x40
 8004e30:	409f      	lslgt	r7, r3
 8004e32:	f206 4312 	addwgt	r3, r6, #1042	@ 0x412
 8004e36:	fa24 f303 	lsrgt.w	r3, r4, r3
 8004e3a:	bfd6      	itet	le
 8004e3c:	f1c3 0320 	rsble	r3, r3, #32
 8004e40:	ea47 0003 	orrgt.w	r0, r7, r3
 8004e44:	fa04 f003 	lslle.w	r0, r4, r3
 8004e48:	f7fb fb64 	bl	8000514 <__aeabi_ui2d>
 8004e4c:	2201      	movs	r2, #1
 8004e4e:	f1a1 73f8 	sub.w	r3, r1, #32505856	@ 0x1f00000
 8004e52:	3e01      	subs	r6, #1
 8004e54:	9214      	str	r2, [sp, #80]	@ 0x50
 8004e56:	e777      	b.n	8004d48 <_dtoa_r+0x100>
 8004e58:	2301      	movs	r3, #1
 8004e5a:	e7b8      	b.n	8004dce <_dtoa_r+0x186>
 8004e5c:	9012      	str	r0, [sp, #72]	@ 0x48
 8004e5e:	e7b7      	b.n	8004dd0 <_dtoa_r+0x188>
 8004e60:	427b      	negs	r3, r7
 8004e62:	930a      	str	r3, [sp, #40]	@ 0x28
 8004e64:	2300      	movs	r3, #0
 8004e66:	eba8 0807 	sub.w	r8, r8, r7
 8004e6a:	930f      	str	r3, [sp, #60]	@ 0x3c
 8004e6c:	e7c4      	b.n	8004df8 <_dtoa_r+0x1b0>
 8004e6e:	2300      	movs	r3, #0
 8004e70:	930b      	str	r3, [sp, #44]	@ 0x2c
 8004e72:	9b0e      	ldr	r3, [sp, #56]	@ 0x38
 8004e74:	2b00      	cmp	r3, #0
 8004e76:	dc35      	bgt.n	8004ee4 <_dtoa_r+0x29c>
 8004e78:	2301      	movs	r3, #1
 8004e7a:	9300      	str	r3, [sp, #0]
 8004e7c:	9307      	str	r3, [sp, #28]
 8004e7e:	461a      	mov	r2, r3
 8004e80:	920e      	str	r2, [sp, #56]	@ 0x38
 8004e82:	e00b      	b.n	8004e9c <_dtoa_r+0x254>
 8004e84:	2301      	movs	r3, #1
 8004e86:	e7f3      	b.n	8004e70 <_dtoa_r+0x228>
 8004e88:	2300      	movs	r3, #0
 8004e8a:	930b      	str	r3, [sp, #44]	@ 0x2c
 8004e8c:	9b0e      	ldr	r3, [sp, #56]	@ 0x38
 8004e8e:	18fb      	adds	r3, r7, r3
 8004e90:	9300      	str	r3, [sp, #0]
 8004e92:	3301      	adds	r3, #1
 8004e94:	2b01      	cmp	r3, #1
 8004e96:	9307      	str	r3, [sp, #28]
 8004e98:	bfb8      	it	lt
 8004e9a:	2301      	movlt	r3, #1
 8004e9c:	f8db 001c 	ldr.w	r0, [fp, #28]
 8004ea0:	2100      	movs	r1, #0
 8004ea2:	2204      	movs	r2, #4
 8004ea4:	f102 0514 	add.w	r5, r2, #20
 8004ea8:	429d      	cmp	r5, r3
 8004eaa:	d91f      	bls.n	8004eec <_dtoa_r+0x2a4>
 8004eac:	6041      	str	r1, [r0, #4]
 8004eae:	4658      	mov	r0, fp
 8004eb0:	f000 fd8e 	bl	80059d0 <_Balloc>
 8004eb4:	4682      	mov	sl, r0
 8004eb6:	2800      	cmp	r0, #0
 8004eb8:	d13c      	bne.n	8004f34 <_dtoa_r+0x2ec>
 8004eba:	4b1b      	ldr	r3, [pc, #108]	@ (8004f28 <_dtoa_r+0x2e0>)
 8004ebc:	4602      	mov	r2, r0
 8004ebe:	f240 11af 	movw	r1, #431	@ 0x1af
 8004ec2:	e6d8      	b.n	8004c76 <_dtoa_r+0x2e>
 8004ec4:	2301      	movs	r3, #1
 8004ec6:	e7e0      	b.n	8004e8a <_dtoa_r+0x242>
 8004ec8:	2401      	movs	r4, #1
 8004eca:	2300      	movs	r3, #0
 8004ecc:	9309      	str	r3, [sp, #36]	@ 0x24
 8004ece:	940b      	str	r4, [sp, #44]	@ 0x2c
 8004ed0:	f04f 33ff 	mov.w	r3, #4294967295
 8004ed4:	9300      	str	r3, [sp, #0]
 8004ed6:	9307      	str	r3, [sp, #28]
 8004ed8:	2200      	movs	r2, #0
 8004eda:	2312      	movs	r3, #18
 8004edc:	e7d0      	b.n	8004e80 <_dtoa_r+0x238>
 8004ede:	2301      	movs	r3, #1
 8004ee0:	930b      	str	r3, [sp, #44]	@ 0x2c
 8004ee2:	e7f5      	b.n	8004ed0 <_dtoa_r+0x288>
 8004ee4:	9b0e      	ldr	r3, [sp, #56]	@ 0x38
 8004ee6:	9300      	str	r3, [sp, #0]
 8004ee8:	9307      	str	r3, [sp, #28]
 8004eea:	e7d7      	b.n	8004e9c <_dtoa_r+0x254>
 8004eec:	3101      	adds	r1, #1
 8004eee:	0052      	lsls	r2, r2, #1
 8004ef0:	e7d8      	b.n	8004ea4 <_dtoa_r+0x25c>
 8004ef2:	bf00      	nop
 8004ef4:	f3af 8000 	nop.w
 8004ef8:	636f4361 	.word	0x636f4361
 8004efc:	3fd287a7 	.word	0x3fd287a7
 8004f00:	8b60c8b3 	.word	0x8b60c8b3
 8004f04:	3fc68a28 	.word	0x3fc68a28
 8004f08:	509f79fb 	.word	0x509f79fb
 8004f0c:	3fd34413 	.word	0x3fd34413
 8004f10:	08008582 	.word	0x08008582
 8004f14:	08008599 	.word	0x08008599
 8004f18:	7ff00000 	.word	0x7ff00000
 8004f1c:	0800854d 	.word	0x0800854d
 8004f20:	3ff80000 	.word	0x3ff80000
 8004f24:	08008690 	.word	0x08008690
 8004f28:	080085f1 	.word	0x080085f1
 8004f2c:	0800857e 	.word	0x0800857e
 8004f30:	0800854c 	.word	0x0800854c
 8004f34:	f8db 301c 	ldr.w	r3, [fp, #28]
 8004f38:	6018      	str	r0, [r3, #0]
 8004f3a:	9b07      	ldr	r3, [sp, #28]
 8004f3c:	2b0e      	cmp	r3, #14
 8004f3e:	f200 80a4 	bhi.w	800508a <_dtoa_r+0x442>
 8004f42:	2c00      	cmp	r4, #0
 8004f44:	f000 80a1 	beq.w	800508a <_dtoa_r+0x442>
 8004f48:	2f00      	cmp	r7, #0
 8004f4a:	dd33      	ble.n	8004fb4 <_dtoa_r+0x36c>
 8004f4c:	4bad      	ldr	r3, [pc, #692]	@ (8005204 <_dtoa_r+0x5bc>)
 8004f4e:	f007 020f 	and.w	r2, r7, #15
 8004f52:	eb03 03c2 	add.w	r3, r3, r2, lsl #3
 8004f56:	ed93 7b00 	vldr	d7, [r3]
 8004f5a:	05f8      	lsls	r0, r7, #23
 8004f5c:	ed8d 7b04 	vstr	d7, [sp, #16]
 8004f60:	ea4f 1427 	mov.w	r4, r7, asr #4
 8004f64:	d516      	bpl.n	8004f94 <_dtoa_r+0x34c>
 8004f66:	4ba8      	ldr	r3, [pc, #672]	@ (8005208 <_dtoa_r+0x5c0>)
 8004f68:	e9dd 010c 	ldrd	r0, r1, [sp, #48]	@ 0x30
 8004f6c:	e9d3 2308 	ldrd	r2, r3, [r3, #32]
 8004f70:	f7fb fc74 	bl	800085c <__aeabi_ddiv>
 8004f74:	e9cd 0102 	strd	r0, r1, [sp, #8]
 8004f78:	f004 040f 	and.w	r4, r4, #15
 8004f7c:	2603      	movs	r6, #3
 8004f7e:	4da2      	ldr	r5, [pc, #648]	@ (8005208 <_dtoa_r+0x5c0>)
 8004f80:	b954      	cbnz	r4, 8004f98 <_dtoa_r+0x350>
 8004f82:	e9dd 2304 	ldrd	r2, r3, [sp, #16]
 8004f86:	e9dd 0102 	ldrd	r0, r1, [sp, #8]
 8004f8a:	f7fb fc67 	bl	800085c <__aeabi_ddiv>
 8004f8e:	e9cd 0102 	strd	r0, r1, [sp, #8]
 8004f92:	e028      	b.n	8004fe6 <_dtoa_r+0x39e>
 8004f94:	2602      	movs	r6, #2
 8004f96:	e7f2      	b.n	8004f7e <_dtoa_r+0x336>
 8004f98:	07e1      	lsls	r1, r4, #31
 8004f9a:	d508      	bpl.n	8004fae <_dtoa_r+0x366>
 8004f9c:	e9dd 0104 	ldrd	r0, r1, [sp, #16]
 8004fa0:	e9d5 2300 	ldrd	r2, r3, [r5]
 8004fa4:	f7fb fb30 	bl	8000608 <__aeabi_dmul>
 8004fa8:	e9cd 0104 	strd	r0, r1, [sp, #16]
 8004fac:	3601      	adds	r6, #1
 8004fae:	1064      	asrs	r4, r4, #1
 8004fb0:	3508      	adds	r5, #8
 8004fb2:	e7e5      	b.n	8004f80 <_dtoa_r+0x338>
 8004fb4:	f000 80d2 	beq.w	800515c <_dtoa_r+0x514>
 8004fb8:	427c      	negs	r4, r7
 8004fba:	4b92      	ldr	r3, [pc, #584]	@ (8005204 <_dtoa_r+0x5bc>)
 8004fbc:	4d92      	ldr	r5, [pc, #584]	@ (8005208 <_dtoa_r+0x5c0>)
 8004fbe:	f004 020f 	and.w	r2, r4, #15
 8004fc2:	eb03 03c2 	add.w	r3, r3, r2, lsl #3
 8004fc6:	e9d3 2300 	ldrd	r2, r3, [r3]
 8004fca:	e9dd 010c 	ldrd	r0, r1, [sp, #48]	@ 0x30
 8004fce:	f7fb fb1b 	bl	8000608 <__aeabi_dmul>
 8004fd2:	e9cd 0102 	strd	r0, r1, [sp, #8]
 8004fd6:	1124      	asrs	r4, r4, #4
 8004fd8:	2300      	movs	r3, #0
 8004fda:	2602      	movs	r6, #2
 8004fdc:	2c00      	cmp	r4, #0
 8004fde:	f040 80b2 	bne.w	8005146 <_dtoa_r+0x4fe>
 8004fe2:	2b00      	cmp	r3, #0
 8004fe4:	d1d3      	bne.n	8004f8e <_dtoa_r+0x346>
 8004fe6:	9b12      	ldr	r3, [sp, #72]	@ 0x48
 8004fe8:	e9dd 4502 	ldrd	r4, r5, [sp, #8]
 8004fec:	2b00      	cmp	r3, #0
 8004fee:	f000 80b7 	beq.w	8005160 <_dtoa_r+0x518>
 8004ff2:	4b86      	ldr	r3, [pc, #536]	@ (800520c <_dtoa_r+0x5c4>)
 8004ff4:	2200      	movs	r2, #0
 8004ff6:	4620      	mov	r0, r4
 8004ff8:	4629      	mov	r1, r5
 8004ffa:	f7fb fd77 	bl	8000aec <__aeabi_dcmplt>
 8004ffe:	2800      	cmp	r0, #0
 8005000:	f000 80ae 	beq.w	8005160 <_dtoa_r+0x518>
 8005004:	9b07      	ldr	r3, [sp, #28]
 8005006:	2b00      	cmp	r3, #0
 8005008:	f000 80aa 	beq.w	8005160 <_dtoa_r+0x518>
 800500c:	9b00      	ldr	r3, [sp, #0]
 800500e:	2b00      	cmp	r3, #0
 8005010:	dd37      	ble.n	8005082 <_dtoa_r+0x43a>
 8005012:	1e7b      	subs	r3, r7, #1
 8005014:	9304      	str	r3, [sp, #16]
 8005016:	4620      	mov	r0, r4
 8005018:	4b7d      	ldr	r3, [pc, #500]	@ (8005210 <_dtoa_r+0x5c8>)
 800501a:	2200      	movs	r2, #0
 800501c:	4629      	mov	r1, r5
 800501e:	f7fb faf3 	bl	8000608 <__aeabi_dmul>
 8005022:	e9cd 0102 	strd	r0, r1, [sp, #8]
 8005026:	9c00      	ldr	r4, [sp, #0]
 8005028:	3601      	adds	r6, #1
 800502a:	4630      	mov	r0, r6
 800502c:	f7fb fa82 	bl	8000534 <__aeabi_i2d>
 8005030:	e9dd 2302 	ldrd	r2, r3, [sp, #8]
 8005034:	f7fb fae8 	bl	8000608 <__aeabi_dmul>
 8005038:	4b76      	ldr	r3, [pc, #472]	@ (8005214 <_dtoa_r+0x5cc>)
 800503a:	2200      	movs	r2, #0
 800503c:	f7fb f92e 	bl	800029c <__adddf3>
 8005040:	4605      	mov	r5, r0
 8005042:	f1a1 7650 	sub.w	r6, r1, #54525952	@ 0x3400000
 8005046:	2c00      	cmp	r4, #0
 8005048:	f040 808d 	bne.w	8005166 <_dtoa_r+0x51e>
 800504c:	e9dd 0102 	ldrd	r0, r1, [sp, #8]
 8005050:	4b71      	ldr	r3, [pc, #452]	@ (8005218 <_dtoa_r+0x5d0>)
 8005052:	2200      	movs	r2, #0
 8005054:	f7fb f920 	bl	8000298 <__aeabi_dsub>
 8005058:	4602      	mov	r2, r0
 800505a:	460b      	mov	r3, r1
 800505c:	e9cd 2302 	strd	r2, r3, [sp, #8]
 8005060:	462a      	mov	r2, r5
 8005062:	4633      	mov	r3, r6
 8005064:	f7fb fd60 	bl	8000b28 <__aeabi_dcmpgt>
 8005068:	2800      	cmp	r0, #0
 800506a:	f040 828b 	bne.w	8005584 <_dtoa_r+0x93c>
 800506e:	e9dd 0102 	ldrd	r0, r1, [sp, #8]
 8005072:	462a      	mov	r2, r5
 8005074:	f106 4300 	add.w	r3, r6, #2147483648	@ 0x80000000
 8005078:	f7fb fd38 	bl	8000aec <__aeabi_dcmplt>
 800507c:	2800      	cmp	r0, #0
 800507e:	f040 8128 	bne.w	80052d2 <_dtoa_r+0x68a>
 8005082:	e9dd 340c 	ldrd	r3, r4, [sp, #48]	@ 0x30
 8005086:	e9cd 3402 	strd	r3, r4, [sp, #8]
 800508a:	9b17      	ldr	r3, [sp, #92]	@ 0x5c
 800508c:	2b00      	cmp	r3, #0
 800508e:	f2c0 815a 	blt.w	8005346 <_dtoa_r+0x6fe>
 8005092:	2f0e      	cmp	r7, #14
 8005094:	f300 8157 	bgt.w	8005346 <_dtoa_r+0x6fe>
 8005098:	4b5a      	ldr	r3, [pc, #360]	@ (8005204 <_dtoa_r+0x5bc>)
 800509a:	eb03 03c7 	add.w	r3, r3, r7, lsl #3
 800509e:	ed93 7b00 	vldr	d7, [r3]
 80050a2:	9b0e      	ldr	r3, [sp, #56]	@ 0x38
 80050a4:	2b00      	cmp	r3, #0
 80050a6:	ed8d 7b00 	vstr	d7, [sp]
 80050aa:	da03      	bge.n	80050b4 <_dtoa_r+0x46c>
 80050ac:	9b07      	ldr	r3, [sp, #28]
 80050ae:	2b00      	cmp	r3, #0
 80050b0:	f340 8101 	ble.w	80052b6 <_dtoa_r+0x66e>
 80050b4:	e9dd 4502 	ldrd	r4, r5, [sp, #8]
 80050b8:	4656      	mov	r6, sl
 80050ba:	e9dd 2300 	ldrd	r2, r3, [sp]
 80050be:	4620      	mov	r0, r4
 80050c0:	4629      	mov	r1, r5
 80050c2:	f7fb fbcb 	bl	800085c <__aeabi_ddiv>
 80050c6:	f7fb fd4f 	bl	8000b68 <__aeabi_d2iz>
 80050ca:	4680      	mov	r8, r0
 80050cc:	f7fb fa32 	bl	8000534 <__aeabi_i2d>
 80050d0:	e9dd 2300 	ldrd	r2, r3, [sp]
 80050d4:	f7fb fa98 	bl	8000608 <__aeabi_dmul>
 80050d8:	4602      	mov	r2, r0
 80050da:	460b      	mov	r3, r1
 80050dc:	4620      	mov	r0, r4
 80050de:	4629      	mov	r1, r5
 80050e0:	f108 0430 	add.w	r4, r8, #48	@ 0x30
 80050e4:	f7fb f8d8 	bl	8000298 <__aeabi_dsub>
 80050e8:	f806 4b01 	strb.w	r4, [r6], #1
 80050ec:	9d07      	ldr	r5, [sp, #28]
 80050ee:	eba6 040a 	sub.w	r4, r6, sl
 80050f2:	42a5      	cmp	r5, r4
 80050f4:	4602      	mov	r2, r0
 80050f6:	460b      	mov	r3, r1
 80050f8:	f040 8117 	bne.w	800532a <_dtoa_r+0x6e2>
 80050fc:	f7fb f8ce 	bl	800029c <__adddf3>
 8005100:	e9dd 2300 	ldrd	r2, r3, [sp]
 8005104:	4604      	mov	r4, r0
 8005106:	460d      	mov	r5, r1
 8005108:	f7fb fd0e 	bl	8000b28 <__aeabi_dcmpgt>
 800510c:	2800      	cmp	r0, #0
 800510e:	f040 80f9 	bne.w	8005304 <_dtoa_r+0x6bc>
 8005112:	e9dd 2300 	ldrd	r2, r3, [sp]
 8005116:	4620      	mov	r0, r4
 8005118:	4629      	mov	r1, r5
 800511a:	f7fb fcdd 	bl	8000ad8 <__aeabi_dcmpeq>
 800511e:	b118      	cbz	r0, 8005128 <_dtoa_r+0x4e0>
 8005120:	f018 0f01 	tst.w	r8, #1
 8005124:	f040 80ee 	bne.w	8005304 <_dtoa_r+0x6bc>
 8005128:	4649      	mov	r1, r9
 800512a:	4658      	mov	r0, fp
 800512c:	f000 fc90 	bl	8005a50 <_Bfree>
 8005130:	2300      	movs	r3, #0
 8005132:	7033      	strb	r3, [r6, #0]
 8005134:	9b13      	ldr	r3, [sp, #76]	@ 0x4c
 8005136:	3701      	adds	r7, #1
 8005138:	601f      	str	r7, [r3, #0]
 800513a:	9b23      	ldr	r3, [sp, #140]	@ 0x8c
 800513c:	2b00      	cmp	r3, #0
 800513e:	f000 831d 	beq.w	800577c <_dtoa_r+0xb34>
 8005142:	601e      	str	r6, [r3, #0]
 8005144:	e31a      	b.n	800577c <_dtoa_r+0xb34>
 8005146:	07e2      	lsls	r2, r4, #31
 8005148:	d505      	bpl.n	8005156 <_dtoa_r+0x50e>
 800514a:	e9d5 2300 	ldrd	r2, r3, [r5]
 800514e:	f7fb fa5b 	bl	8000608 <__aeabi_dmul>
 8005152:	3601      	adds	r6, #1
 8005154:	2301      	movs	r3, #1
 8005156:	1064      	asrs	r4, r4, #1
 8005158:	3508      	adds	r5, #8
 800515a:	e73f      	b.n	8004fdc <_dtoa_r+0x394>
 800515c:	2602      	movs	r6, #2
 800515e:	e742      	b.n	8004fe6 <_dtoa_r+0x39e>
 8005160:	9c07      	ldr	r4, [sp, #28]
 8005162:	9704      	str	r7, [sp, #16]
 8005164:	e761      	b.n	800502a <_dtoa_r+0x3e2>
 8005166:	4b27      	ldr	r3, [pc, #156]	@ (8005204 <_dtoa_r+0x5bc>)
 8005168:	990b      	ldr	r1, [sp, #44]	@ 0x2c
 800516a:	eb03 03c4 	add.w	r3, r3, r4, lsl #3
 800516e:	e953 2302 	ldrd	r2, r3, [r3, #-8]
 8005172:	4454      	add	r4, sl
 8005174:	2900      	cmp	r1, #0
 8005176:	d053      	beq.n	8005220 <_dtoa_r+0x5d8>
 8005178:	4928      	ldr	r1, [pc, #160]	@ (800521c <_dtoa_r+0x5d4>)
 800517a:	2000      	movs	r0, #0
 800517c:	f7fb fb6e 	bl	800085c <__aeabi_ddiv>
 8005180:	4633      	mov	r3, r6
 8005182:	462a      	mov	r2, r5
 8005184:	f7fb f888 	bl	8000298 <__aeabi_dsub>
 8005188:	e9cd 0110 	strd	r0, r1, [sp, #64]	@ 0x40
 800518c:	4656      	mov	r6, sl
 800518e:	e9dd 0102 	ldrd	r0, r1, [sp, #8]
 8005192:	f7fb fce9 	bl	8000b68 <__aeabi_d2iz>
 8005196:	4605      	mov	r5, r0
 8005198:	f7fb f9cc 	bl	8000534 <__aeabi_i2d>
 800519c:	4602      	mov	r2, r0
 800519e:	460b      	mov	r3, r1
 80051a0:	e9dd 0102 	ldrd	r0, r1, [sp, #8]
 80051a4:	f7fb f878 	bl	8000298 <__aeabi_dsub>
 80051a8:	3530      	adds	r5, #48	@ 0x30
 80051aa:	4602      	mov	r2, r0
 80051ac:	460b      	mov	r3, r1
 80051ae:	e9cd 2302 	strd	r2, r3, [sp, #8]
 80051b2:	f806 5b01 	strb.w	r5, [r6], #1
 80051b6:	e9dd 2310 	ldrd	r2, r3, [sp, #64]	@ 0x40
 80051ba:	f7fb fc97 	bl	8000aec <__aeabi_dcmplt>
 80051be:	2800      	cmp	r0, #0
 80051c0:	d171      	bne.n	80052a6 <_dtoa_r+0x65e>
 80051c2:	e9dd 2302 	ldrd	r2, r3, [sp, #8]
 80051c6:	4911      	ldr	r1, [pc, #68]	@ (800520c <_dtoa_r+0x5c4>)
 80051c8:	2000      	movs	r0, #0
 80051ca:	f7fb f865 	bl	8000298 <__aeabi_dsub>
 80051ce:	e9dd 2310 	ldrd	r2, r3, [sp, #64]	@ 0x40
 80051d2:	f7fb fc8b 	bl	8000aec <__aeabi_dcmplt>
 80051d6:	2800      	cmp	r0, #0
 80051d8:	f040 8095 	bne.w	8005306 <_dtoa_r+0x6be>
 80051dc:	42a6      	cmp	r6, r4
 80051de:	f43f af50 	beq.w	8005082 <_dtoa_r+0x43a>
 80051e2:	e9dd 0110 	ldrd	r0, r1, [sp, #64]	@ 0x40
 80051e6:	4b0a      	ldr	r3, [pc, #40]	@ (8005210 <_dtoa_r+0x5c8>)
 80051e8:	2200      	movs	r2, #0
 80051ea:	f7fb fa0d 	bl	8000608 <__aeabi_dmul>
 80051ee:	4b08      	ldr	r3, [pc, #32]	@ (8005210 <_dtoa_r+0x5c8>)
 80051f0:	e9cd 0110 	strd	r0, r1, [sp, #64]	@ 0x40
 80051f4:	2200      	movs	r2, #0
 80051f6:	e9dd 0102 	ldrd	r0, r1, [sp, #8]
 80051fa:	f7fb fa05 	bl	8000608 <__aeabi_dmul>
 80051fe:	e9cd 0102 	strd	r0, r1, [sp, #8]
 8005202:	e7c4      	b.n	800518e <_dtoa_r+0x546>
 8005204:	08008690 	.word	0x08008690
 8005208:	08008668 	.word	0x08008668
 800520c:	3ff00000 	.word	0x3ff00000
 8005210:	40240000 	.word	0x40240000
 8005214:	401c0000 	.word	0x401c0000
 8005218:	40140000 	.word	0x40140000
 800521c:	3fe00000 	.word	0x3fe00000
 8005220:	4631      	mov	r1, r6
 8005222:	4628      	mov	r0, r5
 8005224:	f7fb f9f0 	bl	8000608 <__aeabi_dmul>
 8005228:	e9cd 0110 	strd	r0, r1, [sp, #64]	@ 0x40
 800522c:	9415      	str	r4, [sp, #84]	@ 0x54
 800522e:	4656      	mov	r6, sl
 8005230:	e9dd 0102 	ldrd	r0, r1, [sp, #8]
 8005234:	f7fb fc98 	bl	8000b68 <__aeabi_d2iz>
 8005238:	4605      	mov	r5, r0
 800523a:	f7fb f97b 	bl	8000534 <__aeabi_i2d>
 800523e:	4602      	mov	r2, r0
 8005240:	460b      	mov	r3, r1
 8005242:	e9dd 0102 	ldrd	r0, r1, [sp, #8]
 8005246:	f7fb f827 	bl	8000298 <__aeabi_dsub>
 800524a:	3530      	adds	r5, #48	@ 0x30
 800524c:	f806 5b01 	strb.w	r5, [r6], #1
 8005250:	4602      	mov	r2, r0
 8005252:	460b      	mov	r3, r1
 8005254:	42a6      	cmp	r6, r4
 8005256:	e9cd 2302 	strd	r2, r3, [sp, #8]
 800525a:	f04f 0200 	mov.w	r2, #0
 800525e:	d124      	bne.n	80052aa <_dtoa_r+0x662>
 8005260:	4bac      	ldr	r3, [pc, #688]	@ (8005514 <_dtoa_r+0x8cc>)
 8005262:	e9dd 0110 	ldrd	r0, r1, [sp, #64]	@ 0x40
 8005266:	f7fb f819 	bl	800029c <__adddf3>
 800526a:	4602      	mov	r2, r0
 800526c:	460b      	mov	r3, r1
 800526e:	e9dd 0102 	ldrd	r0, r1, [sp, #8]
 8005272:	f7fb fc59 	bl	8000b28 <__aeabi_dcmpgt>
 8005276:	2800      	cmp	r0, #0
 8005278:	d145      	bne.n	8005306 <_dtoa_r+0x6be>
 800527a:	e9dd 2310 	ldrd	r2, r3, [sp, #64]	@ 0x40
 800527e:	49a5      	ldr	r1, [pc, #660]	@ (8005514 <_dtoa_r+0x8cc>)
 8005280:	2000      	movs	r0, #0
 8005282:	f7fb f809 	bl	8000298 <__aeabi_dsub>
 8005286:	4602      	mov	r2, r0
 8005288:	460b      	mov	r3, r1
 800528a:	e9dd 0102 	ldrd	r0, r1, [sp, #8]
 800528e:	f7fb fc2d 	bl	8000aec <__aeabi_dcmplt>
 8005292:	2800      	cmp	r0, #0
 8005294:	f43f aef5 	beq.w	8005082 <_dtoa_r+0x43a>
 8005298:	9e15      	ldr	r6, [sp, #84]	@ 0x54
 800529a:	1e73      	subs	r3, r6, #1
 800529c:	9315      	str	r3, [sp, #84]	@ 0x54
 800529e:	f816 3c01 	ldrb.w	r3, [r6, #-1]
 80052a2:	2b30      	cmp	r3, #48	@ 0x30
 80052a4:	d0f8      	beq.n	8005298 <_dtoa_r+0x650>
 80052a6:	9f04      	ldr	r7, [sp, #16]
 80052a8:	e73e      	b.n	8005128 <_dtoa_r+0x4e0>
 80052aa:	4b9b      	ldr	r3, [pc, #620]	@ (8005518 <_dtoa_r+0x8d0>)
 80052ac:	f7fb f9ac 	bl	8000608 <__aeabi_dmul>
 80052b0:	e9cd 0102 	strd	r0, r1, [sp, #8]
 80052b4:	e7bc      	b.n	8005230 <_dtoa_r+0x5e8>
 80052b6:	d10c      	bne.n	80052d2 <_dtoa_r+0x68a>
 80052b8:	4b98      	ldr	r3, [pc, #608]	@ (800551c <_dtoa_r+0x8d4>)
 80052ba:	2200      	movs	r2, #0
 80052bc:	e9dd 0100 	ldrd	r0, r1, [sp]
 80052c0:	f7fb f9a2 	bl	8000608 <__aeabi_dmul>
 80052c4:	e9dd 2302 	ldrd	r2, r3, [sp, #8]
 80052c8:	f7fb fc24 	bl	8000b14 <__aeabi_dcmpge>
 80052cc:	2800      	cmp	r0, #0
 80052ce:	f000 8157 	beq.w	8005580 <_dtoa_r+0x938>
 80052d2:	2400      	movs	r4, #0
 80052d4:	4625      	mov	r5, r4
 80052d6:	9b0e      	ldr	r3, [sp, #56]	@ 0x38
 80052d8:	43db      	mvns	r3, r3
 80052da:	9304      	str	r3, [sp, #16]
 80052dc:	4656      	mov	r6, sl
 80052de:	2700      	movs	r7, #0
 80052e0:	4621      	mov	r1, r4
 80052e2:	4658      	mov	r0, fp
 80052e4:	f000 fbb4 	bl	8005a50 <_Bfree>
 80052e8:	2d00      	cmp	r5, #0
 80052ea:	d0dc      	beq.n	80052a6 <_dtoa_r+0x65e>
 80052ec:	b12f      	cbz	r7, 80052fa <_dtoa_r+0x6b2>
 80052ee:	42af      	cmp	r7, r5
 80052f0:	d003      	beq.n	80052fa <_dtoa_r+0x6b2>
 80052f2:	4639      	mov	r1, r7
 80052f4:	4658      	mov	r0, fp
 80052f6:	f000 fbab 	bl	8005a50 <_Bfree>
 80052fa:	4629      	mov	r1, r5
 80052fc:	4658      	mov	r0, fp
 80052fe:	f000 fba7 	bl	8005a50 <_Bfree>
 8005302:	e7d0      	b.n	80052a6 <_dtoa_r+0x65e>
 8005304:	9704      	str	r7, [sp, #16]
 8005306:	4633      	mov	r3, r6
 8005308:	461e      	mov	r6, r3
 800530a:	f813 2d01 	ldrb.w	r2, [r3, #-1]!
 800530e:	2a39      	cmp	r2, #57	@ 0x39
 8005310:	d107      	bne.n	8005322 <_dtoa_r+0x6da>
 8005312:	459a      	cmp	sl, r3
 8005314:	d1f8      	bne.n	8005308 <_dtoa_r+0x6c0>
 8005316:	9a04      	ldr	r2, [sp, #16]
 8005318:	3201      	adds	r2, #1
 800531a:	9204      	str	r2, [sp, #16]
 800531c:	2230      	movs	r2, #48	@ 0x30
 800531e:	f88a 2000 	strb.w	r2, [sl]
 8005322:	781a      	ldrb	r2, [r3, #0]
 8005324:	3201      	adds	r2, #1
 8005326:	701a      	strb	r2, [r3, #0]
 8005328:	e7bd      	b.n	80052a6 <_dtoa_r+0x65e>
 800532a:	4b7b      	ldr	r3, [pc, #492]	@ (8005518 <_dtoa_r+0x8d0>)
 800532c:	2200      	movs	r2, #0
 800532e:	f7fb f96b 	bl	8000608 <__aeabi_dmul>
 8005332:	2200      	movs	r2, #0
 8005334:	2300      	movs	r3, #0
 8005336:	4604      	mov	r4, r0
 8005338:	460d      	mov	r5, r1
 800533a:	f7fb fbcd 	bl	8000ad8 <__aeabi_dcmpeq>
 800533e:	2800      	cmp	r0, #0
 8005340:	f43f aebb 	beq.w	80050ba <_dtoa_r+0x472>
 8005344:	e6f0      	b.n	8005128 <_dtoa_r+0x4e0>
 8005346:	9a0b      	ldr	r2, [sp, #44]	@ 0x2c
 8005348:	2a00      	cmp	r2, #0
 800534a:	f000 80db 	beq.w	8005504 <_dtoa_r+0x8bc>
 800534e:	9a09      	ldr	r2, [sp, #36]	@ 0x24
 8005350:	2a01      	cmp	r2, #1
 8005352:	f300 80bf 	bgt.w	80054d4 <_dtoa_r+0x88c>
 8005356:	9a14      	ldr	r2, [sp, #80]	@ 0x50
 8005358:	2a00      	cmp	r2, #0
 800535a:	f000 80b7 	beq.w	80054cc <_dtoa_r+0x884>
 800535e:	f203 4333 	addw	r3, r3, #1075	@ 0x433
 8005362:	9c0a      	ldr	r4, [sp, #40]	@ 0x28
 8005364:	4646      	mov	r6, r8
 8005366:	9a08      	ldr	r2, [sp, #32]
 8005368:	2101      	movs	r1, #1
 800536a:	441a      	add	r2, r3
 800536c:	4658      	mov	r0, fp
 800536e:	4498      	add	r8, r3
 8005370:	9208      	str	r2, [sp, #32]
 8005372:	f000 fc6b 	bl	8005c4c <__i2b>
 8005376:	4605      	mov	r5, r0
 8005378:	b15e      	cbz	r6, 8005392 <_dtoa_r+0x74a>
 800537a:	9b08      	ldr	r3, [sp, #32]
 800537c:	2b00      	cmp	r3, #0
 800537e:	dd08      	ble.n	8005392 <_dtoa_r+0x74a>
 8005380:	42b3      	cmp	r3, r6
 8005382:	9a08      	ldr	r2, [sp, #32]
 8005384:	bfa8      	it	ge
 8005386:	4633      	movge	r3, r6
 8005388:	eba8 0803 	sub.w	r8, r8, r3
 800538c:	1af6      	subs	r6, r6, r3
 800538e:	1ad3      	subs	r3, r2, r3
 8005390:	9308      	str	r3, [sp, #32]
 8005392:	9b0a      	ldr	r3, [sp, #40]	@ 0x28
 8005394:	b1f3      	cbz	r3, 80053d4 <_dtoa_r+0x78c>
 8005396:	9b0b      	ldr	r3, [sp, #44]	@ 0x2c
 8005398:	2b00      	cmp	r3, #0
 800539a:	f000 80b7 	beq.w	800550c <_dtoa_r+0x8c4>
 800539e:	b18c      	cbz	r4, 80053c4 <_dtoa_r+0x77c>
 80053a0:	4629      	mov	r1, r5
 80053a2:	4622      	mov	r2, r4
 80053a4:	4658      	mov	r0, fp
 80053a6:	f000 fd11 	bl	8005dcc <__pow5mult>
 80053aa:	464a      	mov	r2, r9
 80053ac:	4601      	mov	r1, r0
 80053ae:	4605      	mov	r5, r0
 80053b0:	4658      	mov	r0, fp
 80053b2:	f000 fc61 	bl	8005c78 <__multiply>
 80053b6:	4649      	mov	r1, r9
 80053b8:	9004      	str	r0, [sp, #16]
 80053ba:	4658      	mov	r0, fp
 80053bc:	f000 fb48 	bl	8005a50 <_Bfree>
 80053c0:	9b04      	ldr	r3, [sp, #16]
 80053c2:	4699      	mov	r9, r3
 80053c4:	9b0a      	ldr	r3, [sp, #40]	@ 0x28
 80053c6:	1b1a      	subs	r2, r3, r4
 80053c8:	d004      	beq.n	80053d4 <_dtoa_r+0x78c>
 80053ca:	4649      	mov	r1, r9
 80053cc:	4658      	mov	r0, fp
 80053ce:	f000 fcfd 	bl	8005dcc <__pow5mult>
 80053d2:	4681      	mov	r9, r0
 80053d4:	2101      	movs	r1, #1
 80053d6:	4658      	mov	r0, fp
 80053d8:	f000 fc38 	bl	8005c4c <__i2b>
 80053dc:	9b0f      	ldr	r3, [sp, #60]	@ 0x3c
 80053de:	4604      	mov	r4, r0
 80053e0:	2b00      	cmp	r3, #0
 80053e2:	f000 81cf 	beq.w	8005784 <_dtoa_r+0xb3c>
 80053e6:	461a      	mov	r2, r3
 80053e8:	4601      	mov	r1, r0
 80053ea:	4658      	mov	r0, fp
 80053ec:	f000 fcee 	bl	8005dcc <__pow5mult>
 80053f0:	9b09      	ldr	r3, [sp, #36]	@ 0x24
 80053f2:	2b01      	cmp	r3, #1
 80053f4:	4604      	mov	r4, r0
 80053f6:	f300 8095 	bgt.w	8005524 <_dtoa_r+0x8dc>
 80053fa:	9b02      	ldr	r3, [sp, #8]
 80053fc:	2b00      	cmp	r3, #0
 80053fe:	f040 8087 	bne.w	8005510 <_dtoa_r+0x8c8>
 8005402:	9b03      	ldr	r3, [sp, #12]
 8005404:	f3c3 0313 	ubfx	r3, r3, #0, #20
 8005408:	2b00      	cmp	r3, #0
 800540a:	f040 8089 	bne.w	8005520 <_dtoa_r+0x8d8>
 800540e:	9b03      	ldr	r3, [sp, #12]
 8005410:	f023 4300 	bic.w	r3, r3, #2147483648	@ 0x80000000
 8005414:	0d1b      	lsrs	r3, r3, #20
 8005416:	051b      	lsls	r3, r3, #20
 8005418:	b12b      	cbz	r3, 8005426 <_dtoa_r+0x7de>
 800541a:	9b08      	ldr	r3, [sp, #32]
 800541c:	3301      	adds	r3, #1
 800541e:	9308      	str	r3, [sp, #32]
 8005420:	f108 0801 	add.w	r8, r8, #1
 8005424:	2301      	movs	r3, #1
 8005426:	930a      	str	r3, [sp, #40]	@ 0x28
 8005428:	9b0f      	ldr	r3, [sp, #60]	@ 0x3c
 800542a:	2b00      	cmp	r3, #0
 800542c:	f000 81b0 	beq.w	8005790 <_dtoa_r+0xb48>
 8005430:	6923      	ldr	r3, [r4, #16]
 8005432:	eb04 0383 	add.w	r3, r4, r3, lsl #2
 8005436:	6918      	ldr	r0, [r3, #16]
 8005438:	f000 fbbc 	bl	8005bb4 <__hi0bits>
 800543c:	f1c0 0020 	rsb	r0, r0, #32
 8005440:	9b08      	ldr	r3, [sp, #32]
 8005442:	4418      	add	r0, r3
 8005444:	f010 001f 	ands.w	r0, r0, #31
 8005448:	d077      	beq.n	800553a <_dtoa_r+0x8f2>
 800544a:	f1c0 0320 	rsb	r3, r0, #32
 800544e:	2b04      	cmp	r3, #4
 8005450:	dd6b      	ble.n	800552a <_dtoa_r+0x8e2>
 8005452:	9b08      	ldr	r3, [sp, #32]
 8005454:	f1c0 001c 	rsb	r0, r0, #28
 8005458:	4403      	add	r3, r0
 800545a:	4480      	add	r8, r0
 800545c:	4406      	add	r6, r0
 800545e:	9308      	str	r3, [sp, #32]
 8005460:	f1b8 0f00 	cmp.w	r8, #0
 8005464:	dd05      	ble.n	8005472 <_dtoa_r+0x82a>
 8005466:	4649      	mov	r1, r9
 8005468:	4642      	mov	r2, r8
 800546a:	4658      	mov	r0, fp
 800546c:	f000 fd08 	bl	8005e80 <__lshift>
 8005470:	4681      	mov	r9, r0
 8005472:	9b08      	ldr	r3, [sp, #32]
 8005474:	2b00      	cmp	r3, #0
 8005476:	dd05      	ble.n	8005484 <_dtoa_r+0x83c>
 8005478:	4621      	mov	r1, r4
 800547a:	461a      	mov	r2, r3
 800547c:	4658      	mov	r0, fp
 800547e:	f000 fcff 	bl	8005e80 <__lshift>
 8005482:	4604      	mov	r4, r0
 8005484:	9b12      	ldr	r3, [sp, #72]	@ 0x48
 8005486:	2b00      	cmp	r3, #0
 8005488:	d059      	beq.n	800553e <_dtoa_r+0x8f6>
 800548a:	4621      	mov	r1, r4
 800548c:	4648      	mov	r0, r9
 800548e:	f000 fd63 	bl	8005f58 <__mcmp>
 8005492:	2800      	cmp	r0, #0
 8005494:	da53      	bge.n	800553e <_dtoa_r+0x8f6>
 8005496:	1e7b      	subs	r3, r7, #1
 8005498:	9304      	str	r3, [sp, #16]
 800549a:	4649      	mov	r1, r9
 800549c:	2300      	movs	r3, #0
 800549e:	220a      	movs	r2, #10
 80054a0:	4658      	mov	r0, fp
 80054a2:	f000 faf7 	bl	8005a94 <__multadd>
 80054a6:	9b0b      	ldr	r3, [sp, #44]	@ 0x2c
 80054a8:	4681      	mov	r9, r0
 80054aa:	2b00      	cmp	r3, #0
 80054ac:	f000 8172 	beq.w	8005794 <_dtoa_r+0xb4c>
 80054b0:	2300      	movs	r3, #0
 80054b2:	4629      	mov	r1, r5
 80054b4:	220a      	movs	r2, #10
 80054b6:	4658      	mov	r0, fp
 80054b8:	f000 faec 	bl	8005a94 <__multadd>
 80054bc:	9b00      	ldr	r3, [sp, #0]
 80054be:	2b00      	cmp	r3, #0
 80054c0:	4605      	mov	r5, r0
 80054c2:	dc67      	bgt.n	8005594 <_dtoa_r+0x94c>
 80054c4:	9b09      	ldr	r3, [sp, #36]	@ 0x24
 80054c6:	2b02      	cmp	r3, #2
 80054c8:	dc41      	bgt.n	800554e <_dtoa_r+0x906>
 80054ca:	e063      	b.n	8005594 <_dtoa_r+0x94c>
 80054cc:	9b16      	ldr	r3, [sp, #88]	@ 0x58
 80054ce:	f1c3 0336 	rsb	r3, r3, #54	@ 0x36
 80054d2:	e746      	b.n	8005362 <_dtoa_r+0x71a>
 80054d4:	9b07      	ldr	r3, [sp, #28]
 80054d6:	1e5c      	subs	r4, r3, #1
 80054d8:	9b0a      	ldr	r3, [sp, #40]	@ 0x28
 80054da:	42a3      	cmp	r3, r4
 80054dc:	bfbf      	itttt	lt
 80054de:	9b0a      	ldrlt	r3, [sp, #40]	@ 0x28
 80054e0:	9a0f      	ldrlt	r2, [sp, #60]	@ 0x3c
 80054e2:	940a      	strlt	r4, [sp, #40]	@ 0x28
 80054e4:	1ae3      	sublt	r3, r4, r3
 80054e6:	bfb4      	ite	lt
 80054e8:	18d2      	addlt	r2, r2, r3
 80054ea:	1b1c      	subge	r4, r3, r4
 80054ec:	9b07      	ldr	r3, [sp, #28]
 80054ee:	bfbc      	itt	lt
 80054f0:	920f      	strlt	r2, [sp, #60]	@ 0x3c
 80054f2:	2400      	movlt	r4, #0
 80054f4:	2b00      	cmp	r3, #0
 80054f6:	bfb5      	itete	lt
 80054f8:	eba8 0603 	sublt.w	r6, r8, r3
 80054fc:	9b07      	ldrge	r3, [sp, #28]
 80054fe:	2300      	movlt	r3, #0
 8005500:	4646      	movge	r6, r8
 8005502:	e730      	b.n	8005366 <_dtoa_r+0x71e>
 8005504:	9c0a      	ldr	r4, [sp, #40]	@ 0x28
 8005506:	9d0b      	ldr	r5, [sp, #44]	@ 0x2c
 8005508:	4646      	mov	r6, r8
 800550a:	e735      	b.n	8005378 <_dtoa_r+0x730>
 800550c:	9a0a      	ldr	r2, [sp, #40]	@ 0x28
 800550e:	e75c      	b.n	80053ca <_dtoa_r+0x782>
 8005510:	2300      	movs	r3, #0
 8005512:	e788      	b.n	8005426 <_dtoa_r+0x7de>
 8005514:	3fe00000 	.word	0x3fe00000
 8005518:	40240000 	.word	0x40240000
 800551c:	40140000 	.word	0x40140000
 8005520:	9b02      	ldr	r3, [sp, #8]
 8005522:	e780      	b.n	8005426 <_dtoa_r+0x7de>
 8005524:	2300      	movs	r3, #0
 8005526:	930a      	str	r3, [sp, #40]	@ 0x28
 8005528:	e782      	b.n	8005430 <_dtoa_r+0x7e8>
 800552a:	d099      	beq.n	8005460 <_dtoa_r+0x818>
 800552c:	9a08      	ldr	r2, [sp, #32]
 800552e:	331c      	adds	r3, #28
 8005530:	441a      	add	r2, r3
 8005532:	4498      	add	r8, r3
 8005534:	441e      	add	r6, r3
 8005536:	9208      	str	r2, [sp, #32]
 8005538:	e792      	b.n	8005460 <_dtoa_r+0x818>
 800553a:	4603      	mov	r3, r0
 800553c:	e7f6      	b.n	800552c <_dtoa_r+0x8e4>
 800553e:	9b07      	ldr	r3, [sp, #28]
 8005540:	9704      	str	r7, [sp, #16]
 8005542:	2b00      	cmp	r3, #0
 8005544:	dc20      	bgt.n	8005588 <_dtoa_r+0x940>
 8005546:	9300      	str	r3, [sp, #0]
 8005548:	9b09      	ldr	r3, [sp, #36]	@ 0x24
 800554a:	2b02      	cmp	r3, #2
 800554c:	dd1e      	ble.n	800558c <_dtoa_r+0x944>
 800554e:	9b00      	ldr	r3, [sp, #0]
 8005550:	2b00      	cmp	r3, #0
 8005552:	f47f aec0 	bne.w	80052d6 <_dtoa_r+0x68e>
 8005556:	4621      	mov	r1, r4
 8005558:	2205      	movs	r2, #5
 800555a:	4658      	mov	r0, fp
 800555c:	f000 fa9a 	bl	8005a94 <__multadd>
 8005560:	4601      	mov	r1, r0
 8005562:	4604      	mov	r4, r0
 8005564:	4648      	mov	r0, r9
 8005566:	f000 fcf7 	bl	8005f58 <__mcmp>
 800556a:	2800      	cmp	r0, #0
 800556c:	f77f aeb3 	ble.w	80052d6 <_dtoa_r+0x68e>
 8005570:	4656      	mov	r6, sl
 8005572:	2331      	movs	r3, #49	@ 0x31
 8005574:	f806 3b01 	strb.w	r3, [r6], #1
 8005578:	9b04      	ldr	r3, [sp, #16]
 800557a:	3301      	adds	r3, #1
 800557c:	9304      	str	r3, [sp, #16]
 800557e:	e6ae      	b.n	80052de <_dtoa_r+0x696>
 8005580:	9c07      	ldr	r4, [sp, #28]
 8005582:	9704      	str	r7, [sp, #16]
 8005584:	4625      	mov	r5, r4
 8005586:	e7f3      	b.n	8005570 <_dtoa_r+0x928>
 8005588:	9b07      	ldr	r3, [sp, #28]
 800558a:	9300      	str	r3, [sp, #0]
 800558c:	9b0b      	ldr	r3, [sp, #44]	@ 0x2c
 800558e:	2b00      	cmp	r3, #0
 8005590:	f000 8104 	beq.w	800579c <_dtoa_r+0xb54>
 8005594:	2e00      	cmp	r6, #0
 8005596:	dd05      	ble.n	80055a4 <_dtoa_r+0x95c>
 8005598:	4629      	mov	r1, r5
 800559a:	4632      	mov	r2, r6
 800559c:	4658      	mov	r0, fp
 800559e:	f000 fc6f 	bl	8005e80 <__lshift>
 80055a2:	4605      	mov	r5, r0
 80055a4:	9b0a      	ldr	r3, [sp, #40]	@ 0x28
 80055a6:	2b00      	cmp	r3, #0
 80055a8:	d05a      	beq.n	8005660 <_dtoa_r+0xa18>
 80055aa:	6869      	ldr	r1, [r5, #4]
 80055ac:	4658      	mov	r0, fp
 80055ae:	f000 fa0f 	bl	80059d0 <_Balloc>
 80055b2:	4606      	mov	r6, r0
 80055b4:	b928      	cbnz	r0, 80055c2 <_dtoa_r+0x97a>
 80055b6:	4b84      	ldr	r3, [pc, #528]	@ (80057c8 <_dtoa_r+0xb80>)
 80055b8:	4602      	mov	r2, r0
 80055ba:	f240 21ef 	movw	r1, #751	@ 0x2ef
 80055be:	f7ff bb5a 	b.w	8004c76 <_dtoa_r+0x2e>
 80055c2:	692a      	ldr	r2, [r5, #16]
 80055c4:	3202      	adds	r2, #2
 80055c6:	0092      	lsls	r2, r2, #2
 80055c8:	f105 010c 	add.w	r1, r5, #12
 80055cc:	300c      	adds	r0, #12
 80055ce:	f002 f93b 	bl	8007848 <memcpy>
 80055d2:	2201      	movs	r2, #1
 80055d4:	4631      	mov	r1, r6
 80055d6:	4658      	mov	r0, fp
 80055d8:	f000 fc52 	bl	8005e80 <__lshift>
 80055dc:	f10a 0301 	add.w	r3, sl, #1
 80055e0:	9307      	str	r3, [sp, #28]
 80055e2:	9b00      	ldr	r3, [sp, #0]
 80055e4:	4453      	add	r3, sl
 80055e6:	930b      	str	r3, [sp, #44]	@ 0x2c
 80055e8:	9b02      	ldr	r3, [sp, #8]
 80055ea:	f003 0301 	and.w	r3, r3, #1
 80055ee:	462f      	mov	r7, r5
 80055f0:	930a      	str	r3, [sp, #40]	@ 0x28
 80055f2:	4605      	mov	r5, r0
 80055f4:	9b07      	ldr	r3, [sp, #28]
 80055f6:	4621      	mov	r1, r4
 80055f8:	3b01      	subs	r3, #1
 80055fa:	4648      	mov	r0, r9
 80055fc:	9300      	str	r3, [sp, #0]
 80055fe:	f7ff fa9b 	bl	8004b38 <quorem>
 8005602:	4639      	mov	r1, r7
 8005604:	9002      	str	r0, [sp, #8]
 8005606:	f100 0830 	add.w	r8, r0, #48	@ 0x30
 800560a:	4648      	mov	r0, r9
 800560c:	f000 fca4 	bl	8005f58 <__mcmp>
 8005610:	462a      	mov	r2, r5
 8005612:	9008      	str	r0, [sp, #32]
 8005614:	4621      	mov	r1, r4
 8005616:	4658      	mov	r0, fp
 8005618:	f000 fcba 	bl	8005f90 <__mdiff>
 800561c:	68c2      	ldr	r2, [r0, #12]
 800561e:	4606      	mov	r6, r0
 8005620:	bb02      	cbnz	r2, 8005664 <_dtoa_r+0xa1c>
 8005622:	4601      	mov	r1, r0
 8005624:	4648      	mov	r0, r9
 8005626:	f000 fc97 	bl	8005f58 <__mcmp>
 800562a:	4602      	mov	r2, r0
 800562c:	4631      	mov	r1, r6
 800562e:	4658      	mov	r0, fp
 8005630:	920e      	str	r2, [sp, #56]	@ 0x38
 8005632:	f000 fa0d 	bl	8005a50 <_Bfree>
 8005636:	9b09      	ldr	r3, [sp, #36]	@ 0x24
 8005638:	9a0e      	ldr	r2, [sp, #56]	@ 0x38
 800563a:	9e07      	ldr	r6, [sp, #28]
 800563c:	ea43 0102 	orr.w	r1, r3, r2
 8005640:	9b0a      	ldr	r3, [sp, #40]	@ 0x28
 8005642:	4319      	orrs	r1, r3
 8005644:	d110      	bne.n	8005668 <_dtoa_r+0xa20>
 8005646:	f1b8 0f39 	cmp.w	r8, #57	@ 0x39
 800564a:	d029      	beq.n	80056a0 <_dtoa_r+0xa58>
 800564c:	9b08      	ldr	r3, [sp, #32]
 800564e:	2b00      	cmp	r3, #0
 8005650:	dd02      	ble.n	8005658 <_dtoa_r+0xa10>
 8005652:	9b02      	ldr	r3, [sp, #8]
 8005654:	f103 0831 	add.w	r8, r3, #49	@ 0x31
 8005658:	9b00      	ldr	r3, [sp, #0]
 800565a:	f883 8000 	strb.w	r8, [r3]
 800565e:	e63f      	b.n	80052e0 <_dtoa_r+0x698>
 8005660:	4628      	mov	r0, r5
 8005662:	e7bb      	b.n	80055dc <_dtoa_r+0x994>
 8005664:	2201      	movs	r2, #1
 8005666:	e7e1      	b.n	800562c <_dtoa_r+0x9e4>
 8005668:	9b08      	ldr	r3, [sp, #32]
 800566a:	2b00      	cmp	r3, #0
 800566c:	db04      	blt.n	8005678 <_dtoa_r+0xa30>
 800566e:	9909      	ldr	r1, [sp, #36]	@ 0x24
 8005670:	430b      	orrs	r3, r1
 8005672:	990a      	ldr	r1, [sp, #40]	@ 0x28
 8005674:	430b      	orrs	r3, r1
 8005676:	d120      	bne.n	80056ba <_dtoa_r+0xa72>
 8005678:	2a00      	cmp	r2, #0
 800567a:	dded      	ble.n	8005658 <_dtoa_r+0xa10>
 800567c:	4649      	mov	r1, r9
 800567e:	2201      	movs	r2, #1
 8005680:	4658      	mov	r0, fp
 8005682:	f000 fbfd 	bl	8005e80 <__lshift>
 8005686:	4621      	mov	r1, r4
 8005688:	4681      	mov	r9, r0
 800568a:	f000 fc65 	bl	8005f58 <__mcmp>
 800568e:	2800      	cmp	r0, #0
 8005690:	dc03      	bgt.n	800569a <_dtoa_r+0xa52>
 8005692:	d1e1      	bne.n	8005658 <_dtoa_r+0xa10>
 8005694:	f018 0f01 	tst.w	r8, #1
 8005698:	d0de      	beq.n	8005658 <_dtoa_r+0xa10>
 800569a:	f1b8 0f39 	cmp.w	r8, #57	@ 0x39
 800569e:	d1d8      	bne.n	8005652 <_dtoa_r+0xa0a>
 80056a0:	9a00      	ldr	r2, [sp, #0]
 80056a2:	2339      	movs	r3, #57	@ 0x39
 80056a4:	7013      	strb	r3, [r2, #0]
 80056a6:	4633      	mov	r3, r6
 80056a8:	461e      	mov	r6, r3
 80056aa:	3b01      	subs	r3, #1
 80056ac:	f816 2c01 	ldrb.w	r2, [r6, #-1]
 80056b0:	2a39      	cmp	r2, #57	@ 0x39
 80056b2:	d052      	beq.n	800575a <_dtoa_r+0xb12>
 80056b4:	3201      	adds	r2, #1
 80056b6:	701a      	strb	r2, [r3, #0]
 80056b8:	e612      	b.n	80052e0 <_dtoa_r+0x698>
 80056ba:	2a00      	cmp	r2, #0
 80056bc:	dd07      	ble.n	80056ce <_dtoa_r+0xa86>
 80056be:	f1b8 0f39 	cmp.w	r8, #57	@ 0x39
 80056c2:	d0ed      	beq.n	80056a0 <_dtoa_r+0xa58>
 80056c4:	9a00      	ldr	r2, [sp, #0]
 80056c6:	f108 0301 	add.w	r3, r8, #1
 80056ca:	7013      	strb	r3, [r2, #0]
 80056cc:	e608      	b.n	80052e0 <_dtoa_r+0x698>
 80056ce:	9b07      	ldr	r3, [sp, #28]
 80056d0:	9a07      	ldr	r2, [sp, #28]
 80056d2:	f803 8c01 	strb.w	r8, [r3, #-1]
 80056d6:	9b0b      	ldr	r3, [sp, #44]	@ 0x2c
 80056d8:	4293      	cmp	r3, r2
 80056da:	d028      	beq.n	800572e <_dtoa_r+0xae6>
 80056dc:	4649      	mov	r1, r9
 80056de:	2300      	movs	r3, #0
 80056e0:	220a      	movs	r2, #10
 80056e2:	4658      	mov	r0, fp
 80056e4:	f000 f9d6 	bl	8005a94 <__multadd>
 80056e8:	42af      	cmp	r7, r5
 80056ea:	4681      	mov	r9, r0
 80056ec:	f04f 0300 	mov.w	r3, #0
 80056f0:	f04f 020a 	mov.w	r2, #10
 80056f4:	4639      	mov	r1, r7
 80056f6:	4658      	mov	r0, fp
 80056f8:	d107      	bne.n	800570a <_dtoa_r+0xac2>
 80056fa:	f000 f9cb 	bl	8005a94 <__multadd>
 80056fe:	4607      	mov	r7, r0
 8005700:	4605      	mov	r5, r0
 8005702:	9b07      	ldr	r3, [sp, #28]
 8005704:	3301      	adds	r3, #1
 8005706:	9307      	str	r3, [sp, #28]
 8005708:	e774      	b.n	80055f4 <_dtoa_r+0x9ac>
 800570a:	f000 f9c3 	bl	8005a94 <__multadd>
 800570e:	4629      	mov	r1, r5
 8005710:	4607      	mov	r7, r0
 8005712:	2300      	movs	r3, #0
 8005714:	220a      	movs	r2, #10
 8005716:	4658      	mov	r0, fp
 8005718:	f000 f9bc 	bl	8005a94 <__multadd>
 800571c:	4605      	mov	r5, r0
 800571e:	e7f0      	b.n	8005702 <_dtoa_r+0xaba>
 8005720:	9b00      	ldr	r3, [sp, #0]
 8005722:	2b00      	cmp	r3, #0
 8005724:	bfcc      	ite	gt
 8005726:	461e      	movgt	r6, r3
 8005728:	2601      	movle	r6, #1
 800572a:	4456      	add	r6, sl
 800572c:	2700      	movs	r7, #0
 800572e:	4649      	mov	r1, r9
 8005730:	2201      	movs	r2, #1
 8005732:	4658      	mov	r0, fp
 8005734:	f000 fba4 	bl	8005e80 <__lshift>
 8005738:	4621      	mov	r1, r4
 800573a:	4681      	mov	r9, r0
 800573c:	f000 fc0c 	bl	8005f58 <__mcmp>
 8005740:	2800      	cmp	r0, #0
 8005742:	dcb0      	bgt.n	80056a6 <_dtoa_r+0xa5e>
 8005744:	d102      	bne.n	800574c <_dtoa_r+0xb04>
 8005746:	f018 0f01 	tst.w	r8, #1
 800574a:	d1ac      	bne.n	80056a6 <_dtoa_r+0xa5e>
 800574c:	4633      	mov	r3, r6
 800574e:	461e      	mov	r6, r3
 8005750:	f813 2d01 	ldrb.w	r2, [r3, #-1]!
 8005754:	2a30      	cmp	r2, #48	@ 0x30
 8005756:	d0fa      	beq.n	800574e <_dtoa_r+0xb06>
 8005758:	e5c2      	b.n	80052e0 <_dtoa_r+0x698>
 800575a:	459a      	cmp	sl, r3
 800575c:	d1a4      	bne.n	80056a8 <_dtoa_r+0xa60>
 800575e:	9b04      	ldr	r3, [sp, #16]
 8005760:	3301      	adds	r3, #1
 8005762:	9304      	str	r3, [sp, #16]
 8005764:	2331      	movs	r3, #49	@ 0x31
 8005766:	f88a 3000 	strb.w	r3, [sl]
 800576a:	e5b9      	b.n	80052e0 <_dtoa_r+0x698>
 800576c:	9b23      	ldr	r3, [sp, #140]	@ 0x8c
 800576e:	f8df a05c 	ldr.w	sl, [pc, #92]	@ 80057cc <_dtoa_r+0xb84>
 8005772:	b11b      	cbz	r3, 800577c <_dtoa_r+0xb34>
 8005774:	f10a 0308 	add.w	r3, sl, #8
 8005778:	9a23      	ldr	r2, [sp, #140]	@ 0x8c
 800577a:	6013      	str	r3, [r2, #0]
 800577c:	4650      	mov	r0, sl
 800577e:	b019      	add	sp, #100	@ 0x64
 8005780:	e8bd 8ff0 	ldmia.w	sp!, {r4, r5, r6, r7, r8, r9, sl, fp, pc}
 8005784:	9b09      	ldr	r3, [sp, #36]	@ 0x24
 8005786:	2b01      	cmp	r3, #1
 8005788:	f77f ae37 	ble.w	80053fa <_dtoa_r+0x7b2>
 800578c:	9b0f      	ldr	r3, [sp, #60]	@ 0x3c
 800578e:	930a      	str	r3, [sp, #40]	@ 0x28
 8005790:	2001      	movs	r0, #1
 8005792:	e655      	b.n	8005440 <_dtoa_r+0x7f8>
 8005794:	9b00      	ldr	r3, [sp, #0]
 8005796:	2b00      	cmp	r3, #0
 8005798:	f77f aed6 	ble.w	8005548 <_dtoa_r+0x900>
 800579c:	4656      	mov	r6, sl
 800579e:	4621      	mov	r1, r4
 80057a0:	4648      	mov	r0, r9
 80057a2:	f7ff f9c9 	bl	8004b38 <quorem>
 80057a6:	f100 0830 	add.w	r8, r0, #48	@ 0x30
 80057aa:	f806 8b01 	strb.w	r8, [r6], #1
 80057ae:	9b00      	ldr	r3, [sp, #0]
 80057b0:	eba6 020a 	sub.w	r2, r6, sl
 80057b4:	4293      	cmp	r3, r2
 80057b6:	ddb3      	ble.n	8005720 <_dtoa_r+0xad8>
 80057b8:	4649      	mov	r1, r9
 80057ba:	2300      	movs	r3, #0
 80057bc:	220a      	movs	r2, #10
 80057be:	4658      	mov	r0, fp
 80057c0:	f000 f968 	bl	8005a94 <__multadd>
 80057c4:	4681      	mov	r9, r0
 80057c6:	e7ea      	b.n	800579e <_dtoa_r+0xb56>
 80057c8:	080085f1 	.word	0x080085f1
 80057cc:	08008575 	.word	0x08008575

080057d0 <_free_r>:
 80057d0:	b538      	push	{r3, r4, r5, lr}
 80057d2:	4605      	mov	r5, r0
 80057d4:	2900      	cmp	r1, #0
 80057d6:	d041      	beq.n	800585c <_free_r+0x8c>
 80057d8:	f851 3c04 	ldr.w	r3, [r1, #-4]
 80057dc:	1f0c      	subs	r4, r1, #4
 80057de:	2b00      	cmp	r3, #0
 80057e0:	bfb8      	it	lt
 80057e2:	18e4      	addlt	r4, r4, r3
 80057e4:	f000 f8e8 	bl	80059b8 <__malloc_lock>
 80057e8:	4a1d      	ldr	r2, [pc, #116]	@ (8005860 <_free_r+0x90>)
 80057ea:	6813      	ldr	r3, [r2, #0]
 80057ec:	b933      	cbnz	r3, 80057fc <_free_r+0x2c>
 80057ee:	6063      	str	r3, [r4, #4]
 80057f0:	6014      	str	r4, [r2, #0]
 80057f2:	4628      	mov	r0, r5
 80057f4:	e8bd 4038 	ldmia.w	sp!, {r3, r4, r5, lr}
 80057f8:	f000 b8e4 	b.w	80059c4 <__malloc_unlock>
 80057fc:	42a3      	cmp	r3, r4
 80057fe:	d908      	bls.n	8005812 <_free_r+0x42>
 8005800:	6820      	ldr	r0, [r4, #0]
 8005802:	1821      	adds	r1, r4, r0
 8005804:	428b      	cmp	r3, r1
 8005806:	bf01      	itttt	eq
 8005808:	6819      	ldreq	r1, [r3, #0]
 800580a:	685b      	ldreq	r3, [r3, #4]
 800580c:	1809      	addeq	r1, r1, r0
 800580e:	6021      	streq	r1, [r4, #0]
 8005810:	e7ed      	b.n	80057ee <_free_r+0x1e>
 8005812:	461a      	mov	r2, r3
 8005814:	685b      	ldr	r3, [r3, #4]
 8005816:	b10b      	cbz	r3, 800581c <_free_r+0x4c>
 8005818:	42a3      	cmp	r3, r4
 800581a:	d9fa      	bls.n	8005812 <_free_r+0x42>
 800581c:	6811      	ldr	r1, [r2, #0]
 800581e:	1850      	adds	r0, r2, r1
 8005820:	42a0      	cmp	r0, r4
 8005822:	d10b      	bne.n	800583c <_free_r+0x6c>
 8005824:	6820      	ldr	r0, [r4, #0]
 8005826:	4401      	add	r1, r0
 8005828:	1850      	adds	r0, r2, r1
 800582a:	4283      	cmp	r3, r0
 800582c:	6011      	str	r1, [r2, #0]
 800582e:	d1e0      	bne.n	80057f2 <_free_r+0x22>
 8005830:	6818      	ldr	r0, [r3, #0]
 8005832:	685b      	ldr	r3, [r3, #4]
 8005834:	6053      	str	r3, [r2, #4]
 8005836:	4408      	add	r0, r1
 8005838:	6010      	str	r0, [r2, #0]
 800583a:	e7da      	b.n	80057f2 <_free_r+0x22>
 800583c:	d902      	bls.n	8005844 <_free_r+0x74>
 800583e:	230c      	movs	r3, #12
 8005840:	602b      	str	r3, [r5, #0]
 8005842:	e7d6      	b.n	80057f2 <_free_r+0x22>
 8005844:	6820      	ldr	r0, [r4, #0]
 8005846:	1821      	adds	r1, r4, r0
 8005848:	428b      	cmp	r3, r1
 800584a:	bf04      	itt	eq
 800584c:	6819      	ldreq	r1, [r3, #0]
 800584e:	685b      	ldreq	r3, [r3, #4]
 8005850:	6063      	str	r3, [r4, #4]
 8005852:	bf04      	itt	eq
 8005854:	1809      	addeq	r1, r1, r0
 8005856:	6021      	streq	r1, [r4, #0]
 8005858:	6054      	str	r4, [r2, #4]
 800585a:	e7ca      	b.n	80057f2 <_free_r+0x22>
 800585c:	bd38      	pop	{r3, r4, r5, pc}
 800585e:	bf00      	nop
 8005860:	200003d0 	.word	0x200003d0

08005864 <malloc>:
 8005864:	4b02      	ldr	r3, [pc, #8]	@ (8005870 <malloc+0xc>)
 8005866:	4601      	mov	r1, r0
 8005868:	6818      	ldr	r0, [r3, #0]
 800586a:	f000 b825 	b.w	80058b8 <_malloc_r>
 800586e:	bf00      	nop
 8005870:	20000018 	.word	0x20000018

08005874 <sbrk_aligned>:
 8005874:	b570      	push	{r4, r5, r6, lr}
 8005876:	4e0f      	ldr	r6, [pc, #60]	@ (80058b4 <sbrk_aligned+0x40>)
 8005878:	460c      	mov	r4, r1
 800587a:	6831      	ldr	r1, [r6, #0]
 800587c:	4605      	mov	r5, r0
 800587e:	b911      	cbnz	r1, 8005886 <sbrk_aligned+0x12>
 8005880:	f001 ffd2 	bl	8007828 <_sbrk_r>
 8005884:	6030      	str	r0, [r6, #0]
 8005886:	4621      	mov	r1, r4
 8005888:	4628      	mov	r0, r5
 800588a:	f001 ffcd 	bl	8007828 <_sbrk_r>
 800588e:	1c43      	adds	r3, r0, #1
 8005890:	d103      	bne.n	800589a <sbrk_aligned+0x26>
 8005892:	f04f 34ff 	mov.w	r4, #4294967295
 8005896:	4620      	mov	r0, r4
 8005898:	bd70      	pop	{r4, r5, r6, pc}
 800589a:	1cc4      	adds	r4, r0, #3
 800589c:	f024 0403 	bic.w	r4, r4, #3
 80058a0:	42a0      	cmp	r0, r4
 80058a2:	d0f8      	beq.n	8005896 <sbrk_aligned+0x22>
 80058a4:	1a21      	subs	r1, r4, r0
 80058a6:	4628      	mov	r0, r5
 80058a8:	f001 ffbe 	bl	8007828 <_sbrk_r>
 80058ac:	3001      	adds	r0, #1
 80058ae:	d1f2      	bne.n	8005896 <sbrk_aligned+0x22>
 80058b0:	e7ef      	b.n	8005892 <sbrk_aligned+0x1e>
 80058b2:	bf00      	nop
 80058b4:	200003cc 	.word	0x200003cc

080058b8 <_malloc_r>:
 80058b8:	e92d 43f8 	stmdb	sp!, {r3, r4, r5, r6, r7, r8, r9, lr}
 80058bc:	1ccd      	adds	r5, r1, #3
 80058be:	f025 0503 	bic.w	r5, r5, #3
 80058c2:	3508      	adds	r5, #8
 80058c4:	2d0c      	cmp	r5, #12
 80058c6:	bf38      	it	cc
 80058c8:	250c      	movcc	r5, #12
 80058ca:	2d00      	cmp	r5, #0
 80058cc:	4606      	mov	r6, r0
 80058ce:	db01      	blt.n	80058d4 <_malloc_r+0x1c>
 80058d0:	42a9      	cmp	r1, r5
 80058d2:	d904      	bls.n	80058de <_malloc_r+0x26>
 80058d4:	230c      	movs	r3, #12
 80058d6:	6033      	str	r3, [r6, #0]
 80058d8:	2000      	movs	r0, #0
 80058da:	e8bd 83f8 	ldmia.w	sp!, {r3, r4, r5, r6, r7, r8, r9, pc}
 80058de:	f8df 80d4 	ldr.w	r8, [pc, #212]	@ 80059b4 <_malloc_r+0xfc>
 80058e2:	f000 f869 	bl	80059b8 <__malloc_lock>
 80058e6:	f8d8 3000 	ldr.w	r3, [r8]
 80058ea:	461c      	mov	r4, r3
 80058ec:	bb44      	cbnz	r4, 8005940 <_malloc_r+0x88>
 80058ee:	4629      	mov	r1, r5
 80058f0:	4630      	mov	r0, r6
 80058f2:	f7ff ffbf 	bl	8005874 <sbrk_aligned>
 80058f6:	1c43      	adds	r3, r0, #1
 80058f8:	4604      	mov	r4, r0
 80058fa:	d158      	bne.n	80059ae <_malloc_r+0xf6>
 80058fc:	f8d8 4000 	ldr.w	r4, [r8]
 8005900:	4627      	mov	r7, r4
 8005902:	2f00      	cmp	r7, #0
 8005904:	d143      	bne.n	800598e <_malloc_r+0xd6>
 8005906:	2c00      	cmp	r4, #0
 8005908:	d04b      	beq.n	80059a2 <_malloc_r+0xea>
 800590a:	6823      	ldr	r3, [r4, #0]
 800590c:	4639      	mov	r1, r7
 800590e:	4630      	mov	r0, r6
 8005910:	eb04 0903 	add.w	r9, r4, r3
 8005914:	f001 ff88 	bl	8007828 <_sbrk_r>
 8005918:	4581      	cmp	r9, r0
 800591a:	d142      	bne.n	80059a2 <_malloc_r+0xea>
 800591c:	6821      	ldr	r1, [r4, #0]
 800591e:	1a6d      	subs	r5, r5, r1
 8005920:	4629      	mov	r1, r5
 8005922:	4630      	mov	r0, r6
 8005924:	f7ff ffa6 	bl	8005874 <sbrk_aligned>
 8005928:	3001      	adds	r0, #1
 800592a:	d03a      	beq.n	80059a2 <_malloc_r+0xea>
 800592c:	6823      	ldr	r3, [r4, #0]
 800592e:	442b      	add	r3, r5
 8005930:	6023      	str	r3, [r4, #0]
 8005932:	f8d8 3000 	ldr.w	r3, [r8]
 8005936:	685a      	ldr	r2, [r3, #4]
 8005938:	bb62      	cbnz	r2, 8005994 <_malloc_r+0xdc>
 800593a:	f8c8 7000 	str.w	r7, [r8]
 800593e:	e00f      	b.n	8005960 <_malloc_r+0xa8>
 8005940:	6822      	ldr	r2, [r4, #0]
 8005942:	1b52      	subs	r2, r2, r5
 8005944:	d420      	bmi.n	8005988 <_malloc_r+0xd0>
 8005946:	2a0b      	cmp	r2, #11
 8005948:	d917      	bls.n	800597a <_malloc_r+0xc2>
 800594a:	1961      	adds	r1, r4, r5
 800594c:	42a3      	cmp	r3, r4
 800594e:	6025      	str	r5, [r4, #0]
 8005950:	bf18      	it	ne
 8005952:	6059      	strne	r1, [r3, #4]
 8005954:	6863      	ldr	r3, [r4, #4]
 8005956:	bf08      	it	eq
 8005958:	f8c8 1000 	streq.w	r1, [r8]
 800595c:	5162      	str	r2, [r4, r5]
 800595e:	604b      	str	r3, [r1, #4]
 8005960:	4630      	mov	r0, r6
 8005962:	f000 f82f 	bl	80059c4 <__malloc_unlock>
 8005966:	f104 000b 	add.w	r0, r4, #11
 800596a:	1d23      	adds	r3, r4, #4
 800596c:	f020 0007 	bic.w	r0, r0, #7
 8005970:	1ac2      	subs	r2, r0, r3
 8005972:	bf1c      	itt	ne
 8005974:	1a1b      	subne	r3, r3, r0
 8005976:	50a3      	strne	r3, [r4, r2]
 8005978:	e7af      	b.n	80058da <_malloc_r+0x22>
 800597a:	6862      	ldr	r2, [r4, #4]
 800597c:	42a3      	cmp	r3, r4
 800597e:	bf0c      	ite	eq
 8005980:	f8c8 2000 	streq.w	r2, [r8]
 8005984:	605a      	strne	r2, [r3, #4]
 8005986:	e7eb      	b.n	8005960 <_malloc_r+0xa8>
 8005988:	4623      	mov	r3, r4
 800598a:	6864      	ldr	r4, [r4, #4]
 800598c:	e7ae      	b.n	80058ec <_malloc_r+0x34>
 800598e:	463c      	mov	r4, r7
 8005990:	687f      	ldr	r7, [r7, #4]
 8005992:	e7b6      	b.n	8005902 <_malloc_r+0x4a>
 8005994:	461a      	mov	r2, r3
 8005996:	685b      	ldr	r3, [r3, #4]
 8005998:	42a3      	cmp	r3, r4
 800599a:	d1fb      	bne.n	8005994 <_malloc_r+0xdc>
 800599c:	2300      	movs	r3, #0
 800599e:	6053      	str	r3, [r2, #4]
 80059a0:	e7de      	b.n	8005960 <_malloc_r+0xa8>
 80059a2:	230c      	movs	r3, #12
 80059a4:	6033      	str	r3, [r6, #0]
 80059a6:	4630      	mov	r0, r6
 80059a8:	f000 f80c 	bl	80059c4 <__malloc_unlock>
 80059ac:	e794      	b.n	80058d8 <_malloc_r+0x20>
 80059ae:	6005      	str	r5, [r0, #0]
 80059b0:	e7d6      	b.n	8005960 <_malloc_r+0xa8>
 80059b2:	bf00      	nop
 80059b4:	200003d0 	.word	0x200003d0

080059b8 <__malloc_lock>:
 80059b8:	4801      	ldr	r0, [pc, #4]	@ (80059c0 <__malloc_lock+0x8>)
 80059ba:	f7ff b8b4 	b.w	8004b26 <__retarget_lock_acquire_recursive>
 80059be:	bf00      	nop
 80059c0:	200003c8 	.word	0x200003c8

080059c4 <__malloc_unlock>:
 80059c4:	4801      	ldr	r0, [pc, #4]	@ (80059cc <__malloc_unlock+0x8>)
 80059c6:	f7ff b8af 	b.w	8004b28 <__retarget_lock_release_recursive>
 80059ca:	bf00      	nop
 80059cc:	200003c8 	.word	0x200003c8

080059d0 <_Balloc>:
 80059d0:	b570      	push	{r4, r5, r6, lr}
 80059d2:	69c6      	ldr	r6, [r0, #28]
 80059d4:	4604      	mov	r4, r0
 80059d6:	460d      	mov	r5, r1
 80059d8:	b976      	cbnz	r6, 80059f8 <_Balloc+0x28>
 80059da:	2010      	movs	r0, #16
 80059dc:	f7ff ff42 	bl	8005864 <malloc>
 80059e0:	4602      	mov	r2, r0
 80059e2:	61e0      	str	r0, [r4, #28]
 80059e4:	b920      	cbnz	r0, 80059f0 <_Balloc+0x20>
 80059e6:	4b18      	ldr	r3, [pc, #96]	@ (8005a48 <_Balloc+0x78>)
 80059e8:	4818      	ldr	r0, [pc, #96]	@ (8005a4c <_Balloc+0x7c>)
 80059ea:	216b      	movs	r1, #107	@ 0x6b
 80059ec:	f001 ff44 	bl	8007878 <__assert_func>
 80059f0:	e9c0 6601 	strd	r6, r6, [r0, #4]
 80059f4:	6006      	str	r6, [r0, #0]
 80059f6:	60c6      	str	r6, [r0, #12]
 80059f8:	69e6      	ldr	r6, [r4, #28]
 80059fa:	68f3      	ldr	r3, [r6, #12]
 80059fc:	b183      	cbz	r3, 8005a20 <_Balloc+0x50>
 80059fe:	69e3      	ldr	r3, [r4, #28]
 8005a00:	68db      	ldr	r3, [r3, #12]
 8005a02:	f853 0025 	ldr.w	r0, [r3, r5, lsl #2]
 8005a06:	b9b8      	cbnz	r0, 8005a38 <_Balloc+0x68>
 8005a08:	2101      	movs	r1, #1
 8005a0a:	fa01 f605 	lsl.w	r6, r1, r5
 8005a0e:	1d72      	adds	r2, r6, #5
 8005a10:	0092      	lsls	r2, r2, #2
 8005a12:	4620      	mov	r0, r4
 8005a14:	f001 ff4e 	bl	80078b4 <_calloc_r>
 8005a18:	b160      	cbz	r0, 8005a34 <_Balloc+0x64>
 8005a1a:	e9c0 5601 	strd	r5, r6, [r0, #4]
 8005a1e:	e00e      	b.n	8005a3e <_Balloc+0x6e>
 8005a20:	2221      	movs	r2, #33	@ 0x21
 8005a22:	2104      	movs	r1, #4
 8005a24:	4620      	mov	r0, r4
 8005a26:	f001 ff45 	bl	80078b4 <_calloc_r>
 8005a2a:	69e3      	ldr	r3, [r4, #28]
 8005a2c:	60f0      	str	r0, [r6, #12]
 8005a2e:	68db      	ldr	r3, [r3, #12]
 8005a30:	2b00      	cmp	r3, #0
 8005a32:	d1e4      	bne.n	80059fe <_Balloc+0x2e>
 8005a34:	2000      	movs	r0, #0
 8005a36:	bd70      	pop	{r4, r5, r6, pc}
 8005a38:	6802      	ldr	r2, [r0, #0]
 8005a3a:	f843 2025 	str.w	r2, [r3, r5, lsl #2]
 8005a3e:	2300      	movs	r3, #0
 8005a40:	e9c0 3303 	strd	r3, r3, [r0, #12]
 8005a44:	e7f7      	b.n	8005a36 <_Balloc+0x66>
 8005a46:	bf00      	nop
 8005a48:	08008582 	.word	0x08008582
 8005a4c:	08008602 	.word	0x08008602

08005a50 <_Bfree>:
 8005a50:	b570      	push	{r4, r5, r6, lr}
 8005a52:	69c6      	ldr	r6, [r0, #28]
 8005a54:	4605      	mov	r5, r0
 8005a56:	460c      	mov	r4, r1
 8005a58:	b976      	cbnz	r6, 8005a78 <_Bfree+0x28>
 8005a5a:	2010      	movs	r0, #16
 8005a5c:	f7ff ff02 	bl	8005864 <malloc>
 8005a60:	4602      	mov	r2, r0
 8005a62:	61e8      	str	r0, [r5, #28]
 8005a64:	b920      	cbnz	r0, 8005a70 <_Bfree+0x20>
 8005a66:	4b09      	ldr	r3, [pc, #36]	@ (8005a8c <_Bfree+0x3c>)
 8005a68:	4809      	ldr	r0, [pc, #36]	@ (8005a90 <_Bfree+0x40>)
 8005a6a:	218f      	movs	r1, #143	@ 0x8f
 8005a6c:	f001 ff04 	bl	8007878 <__assert_func>
 8005a70:	e9c0 6601 	strd	r6, r6, [r0, #4]
 8005a74:	6006      	str	r6, [r0, #0]
 8005a76:	60c6      	str	r6, [r0, #12]
 8005a78:	b13c      	cbz	r4, 8005a8a <_Bfree+0x3a>
 8005a7a:	69eb      	ldr	r3, [r5, #28]
 8005a7c:	6862      	ldr	r2, [r4, #4]
 8005a7e:	68db      	ldr	r3, [r3, #12]
 8005a80:	f853 1022 	ldr.w	r1, [r3, r2, lsl #2]
 8005a84:	6021      	str	r1, [r4, #0]
 8005a86:	f843 4022 	str.w	r4, [r3, r2, lsl #2]
 8005a8a:	bd70      	pop	{r4, r5, r6, pc}
 8005a8c:	08008582 	.word	0x08008582
 8005a90:	08008602 	.word	0x08008602

08005a94 <__multadd>:
 8005a94:	e92d 41f0 	stmdb	sp!, {r4, r5, r6, r7, r8, lr}
 8005a98:	690d      	ldr	r5, [r1, #16]
 8005a9a:	4607      	mov	r7, r0
 8005a9c:	460c      	mov	r4, r1
 8005a9e:	461e      	mov	r6, r3
 8005aa0:	f101 0c14 	add.w	ip, r1, #20
 8005aa4:	2000      	movs	r0, #0
 8005aa6:	f8dc 3000 	ldr.w	r3, [ip]
 8005aaa:	b299      	uxth	r1, r3
 8005aac:	fb02 6101 	mla	r1, r2, r1, r6
 8005ab0:	0c1e      	lsrs	r6, r3, #16
 8005ab2:	0c0b      	lsrs	r3, r1, #16
 8005ab4:	fb02 3306 	mla	r3, r2, r6, r3
 8005ab8:	b289      	uxth	r1, r1
 8005aba:	3001      	adds	r0, #1
 8005abc:	eb01 4103 	add.w	r1, r1, r3, lsl #16
 8005ac0:	4285      	cmp	r5, r0
 8005ac2:	f84c 1b04 	str.w	r1, [ip], #4
 8005ac6:	ea4f 4613 	mov.w	r6, r3, lsr #16
 8005aca:	dcec      	bgt.n	8005aa6 <__multadd+0x12>
 8005acc:	b30e      	cbz	r6, 8005b12 <__multadd+0x7e>
 8005ace:	68a3      	ldr	r3, [r4, #8]
 8005ad0:	42ab      	cmp	r3, r5
 8005ad2:	dc19      	bgt.n	8005b08 <__multadd+0x74>
 8005ad4:	6861      	ldr	r1, [r4, #4]
 8005ad6:	4638      	mov	r0, r7
 8005ad8:	3101      	adds	r1, #1
 8005ada:	f7ff ff79 	bl	80059d0 <_Balloc>
 8005ade:	4680      	mov	r8, r0
 8005ae0:	b928      	cbnz	r0, 8005aee <__multadd+0x5a>
 8005ae2:	4602      	mov	r2, r0
 8005ae4:	4b0c      	ldr	r3, [pc, #48]	@ (8005b18 <__multadd+0x84>)
 8005ae6:	480d      	ldr	r0, [pc, #52]	@ (8005b1c <__multadd+0x88>)
 8005ae8:	21ba      	movs	r1, #186	@ 0xba
 8005aea:	f001 fec5 	bl	8007878 <__assert_func>
 8005aee:	6922      	ldr	r2, [r4, #16]
 8005af0:	3202      	adds	r2, #2
 8005af2:	f104 010c 	add.w	r1, r4, #12
 8005af6:	0092      	lsls	r2, r2, #2
 8005af8:	300c      	adds	r0, #12
 8005afa:	f001 fea5 	bl	8007848 <memcpy>
 8005afe:	4621      	mov	r1, r4
 8005b00:	4638      	mov	r0, r7
 8005b02:	f7ff ffa5 	bl	8005a50 <_Bfree>
 8005b06:	4644      	mov	r4, r8
 8005b08:	eb04 0385 	add.w	r3, r4, r5, lsl #2
 8005b0c:	3501      	adds	r5, #1
 8005b0e:	615e      	str	r6, [r3, #20]
 8005b10:	6125      	str	r5, [r4, #16]
 8005b12:	4620      	mov	r0, r4
 8005b14:	e8bd 81f0 	ldmia.w	sp!, {r4, r5, r6, r7, r8, pc}
 8005b18:	080085f1 	.word	0x080085f1
 8005b1c:	08008602 	.word	0x08008602

08005b20 <__s2b>:
 8005b20:	e92d 43f8 	stmdb	sp!, {r3, r4, r5, r6, r7, r8, r9, lr}
 8005b24:	460c      	mov	r4, r1
 8005b26:	4615      	mov	r5, r2
 8005b28:	461f      	mov	r7, r3
 8005b2a:	2209      	movs	r2, #9
 8005b2c:	3308      	adds	r3, #8
 8005b2e:	4606      	mov	r6, r0
 8005b30:	fb93 f3f2 	sdiv	r3, r3, r2
 8005b34:	2100      	movs	r1, #0
 8005b36:	2201      	movs	r2, #1
 8005b38:	429a      	cmp	r2, r3
 8005b3a:	db09      	blt.n	8005b50 <__s2b+0x30>
 8005b3c:	4630      	mov	r0, r6
 8005b3e:	f7ff ff47 	bl	80059d0 <_Balloc>
 8005b42:	b940      	cbnz	r0, 8005b56 <__s2b+0x36>
 8005b44:	4602      	mov	r2, r0
 8005b46:	4b19      	ldr	r3, [pc, #100]	@ (8005bac <__s2b+0x8c>)
 8005b48:	4819      	ldr	r0, [pc, #100]	@ (8005bb0 <__s2b+0x90>)
 8005b4a:	21d3      	movs	r1, #211	@ 0xd3
 8005b4c:	f001 fe94 	bl	8007878 <__assert_func>
 8005b50:	0052      	lsls	r2, r2, #1
 8005b52:	3101      	adds	r1, #1
 8005b54:	e7f0      	b.n	8005b38 <__s2b+0x18>
 8005b56:	9b08      	ldr	r3, [sp, #32]
 8005b58:	6143      	str	r3, [r0, #20]
 8005b5a:	2d09      	cmp	r5, #9
 8005b5c:	f04f 0301 	mov.w	r3, #1
 8005b60:	6103      	str	r3, [r0, #16]
 8005b62:	dd16      	ble.n	8005b92 <__s2b+0x72>
 8005b64:	f104 0909 	add.w	r9, r4, #9
 8005b68:	46c8      	mov	r8, r9
 8005b6a:	442c      	add	r4, r5
 8005b6c:	f818 3b01 	ldrb.w	r3, [r8], #1
 8005b70:	4601      	mov	r1, r0
 8005b72:	3b30      	subs	r3, #48	@ 0x30
 8005b74:	220a      	movs	r2, #10
 8005b76:	4630      	mov	r0, r6
 8005b78:	f7ff ff8c 	bl	8005a94 <__multadd>
 8005b7c:	45a0      	cmp	r8, r4
 8005b7e:	d1f5      	bne.n	8005b6c <__s2b+0x4c>
 8005b80:	f1a5 0408 	sub.w	r4, r5, #8
 8005b84:	444c      	add	r4, r9
 8005b86:	1b2d      	subs	r5, r5, r4
 8005b88:	1963      	adds	r3, r4, r5
 8005b8a:	42bb      	cmp	r3, r7
 8005b8c:	db04      	blt.n	8005b98 <__s2b+0x78>
 8005b8e:	e8bd 83f8 	ldmia.w	sp!, {r3, r4, r5, r6, r7, r8, r9, pc}
 8005b92:	340a      	adds	r4, #10
 8005b94:	2509      	movs	r5, #9
 8005b96:	e7f6      	b.n	8005b86 <__s2b+0x66>
 8005b98:	f814 3b01 	ldrb.w	r3, [r4], #1
 8005b9c:	4601      	mov	r1, r0
 8005b9e:	3b30      	subs	r3, #48	@ 0x30
 8005ba0:	220a      	movs	r2, #10
 8005ba2:	4630      	mov	r0, r6
 8005ba4:	f7ff ff76 	bl	8005a94 <__multadd>
 8005ba8:	e7ee      	b.n	8005b88 <__s2b+0x68>
 8005baa:	bf00      	nop
 8005bac:	080085f1 	.word	0x080085f1
 8005bb0:	08008602 	.word	0x08008602

08005bb4 <__hi0bits>:
 8005bb4:	f5b0 3f80 	cmp.w	r0, #65536	@ 0x10000
 8005bb8:	4603      	mov	r3, r0
 8005bba:	bf36      	itet	cc
 8005bbc:	0403      	lslcc	r3, r0, #16
 8005bbe:	2000      	movcs	r0, #0
 8005bc0:	2010      	movcc	r0, #16
 8005bc2:	f1b3 7f80 	cmp.w	r3, #16777216	@ 0x1000000
 8005bc6:	bf3c      	itt	cc
 8005bc8:	021b      	lslcc	r3, r3, #8
 8005bca:	3008      	addcc	r0, #8
 8005bcc:	f1b3 5f80 	cmp.w	r3, #268435456	@ 0x10000000
 8005bd0:	bf3c      	itt	cc
 8005bd2:	011b      	lslcc	r3, r3, #4
 8005bd4:	3004      	addcc	r0, #4
 8005bd6:	f1b3 4f80 	cmp.w	r3, #1073741824	@ 0x40000000
 8005bda:	bf3c      	itt	cc
 8005bdc:	009b      	lslcc	r3, r3, #2
 8005bde:	3002      	addcc	r0, #2
 8005be0:	2b00      	cmp	r3, #0
 8005be2:	db05      	blt.n	8005bf0 <__hi0bits+0x3c>
 8005be4:	f013 4f80 	tst.w	r3, #1073741824	@ 0x40000000
 8005be8:	f100 0001 	add.w	r0, r0, #1
 8005bec:	bf08      	it	eq
 8005bee:	2020      	moveq	r0, #32
 8005bf0:	4770      	bx	lr

08005bf2 <__lo0bits>:
 8005bf2:	6803      	ldr	r3, [r0, #0]
 8005bf4:	4602      	mov	r2, r0
 8005bf6:	f013 0007 	ands.w	r0, r3, #7
 8005bfa:	d00b      	beq.n	8005c14 <__lo0bits+0x22>
 8005bfc:	07d9      	lsls	r1, r3, #31
 8005bfe:	d421      	bmi.n	8005c44 <__lo0bits+0x52>
 8005c00:	0798      	lsls	r0, r3, #30
 8005c02:	bf49      	itett	mi
 8005c04:	085b      	lsrmi	r3, r3, #1
 8005c06:	089b      	lsrpl	r3, r3, #2
 8005c08:	2001      	movmi	r0, #1
 8005c0a:	6013      	strmi	r3, [r2, #0]
 8005c0c:	bf5c      	itt	pl
 8005c0e:	6013      	strpl	r3, [r2, #0]
 8005c10:	2002      	movpl	r0, #2
 8005c12:	4770      	bx	lr
 8005c14:	b299      	uxth	r1, r3
 8005c16:	b909      	cbnz	r1, 8005c1c <__lo0bits+0x2a>
 8005c18:	0c1b      	lsrs	r3, r3, #16
 8005c1a:	2010      	movs	r0, #16
 8005c1c:	b2d9      	uxtb	r1, r3
 8005c1e:	b909      	cbnz	r1, 8005c24 <__lo0bits+0x32>
 8005c20:	3008      	adds	r0, #8
 8005c22:	0a1b      	lsrs	r3, r3, #8
 8005c24:	0719      	lsls	r1, r3, #28
 8005c26:	bf04      	itt	eq
 8005c28:	091b      	lsreq	r3, r3, #4
 8005c2a:	3004      	addeq	r0, #4
 8005c2c:	0799      	lsls	r1, r3, #30
 8005c2e:	bf04      	itt	eq
 8005c30:	089b      	lsreq	r3, r3, #2
 8005c32:	3002      	addeq	r0, #2
 8005c34:	07d9      	lsls	r1, r3, #31
 8005c36:	d403      	bmi.n	8005c40 <__lo0bits+0x4e>
 8005c38:	085b      	lsrs	r3, r3, #1
 8005c3a:	f100 0001 	add.w	r0, r0, #1
 8005c3e:	d003      	beq.n	8005c48 <__lo0bits+0x56>
 8005c40:	6013      	str	r3, [r2, #0]
 8005c42:	4770      	bx	lr
 8005c44:	2000      	movs	r0, #0
 8005c46:	4770      	bx	lr
 8005c48:	2020      	movs	r0, #32
 8005c4a:	4770      	bx	lr

08005c4c <__i2b>:
 8005c4c:	b510      	push	{r4, lr}
 8005c4e:	460c      	mov	r4, r1
 8005c50:	2101      	movs	r1, #1
 8005c52:	f7ff febd 	bl	80059d0 <_Balloc>
 8005c56:	4602      	mov	r2, r0
 8005c58:	b928      	cbnz	r0, 8005c66 <__i2b+0x1a>
 8005c5a:	4b05      	ldr	r3, [pc, #20]	@ (8005c70 <__i2b+0x24>)
 8005c5c:	4805      	ldr	r0, [pc, #20]	@ (8005c74 <__i2b+0x28>)
 8005c5e:	f240 1145 	movw	r1, #325	@ 0x145
 8005c62:	f001 fe09 	bl	8007878 <__assert_func>
 8005c66:	2301      	movs	r3, #1
 8005c68:	6144      	str	r4, [r0, #20]
 8005c6a:	6103      	str	r3, [r0, #16]
 8005c6c:	bd10      	pop	{r4, pc}
 8005c6e:	bf00      	nop
 8005c70:	080085f1 	.word	0x080085f1
 8005c74:	08008602 	.word	0x08008602

08005c78 <__multiply>:
 8005c78:	e92d 4ff0 	stmdb	sp!, {r4, r5, r6, r7, r8, r9, sl, fp, lr}
 8005c7c:	4614      	mov	r4, r2
 8005c7e:	690a      	ldr	r2, [r1, #16]
 8005c80:	6923      	ldr	r3, [r4, #16]
 8005c82:	429a      	cmp	r2, r3
 8005c84:	bfa8      	it	ge
 8005c86:	4623      	movge	r3, r4
 8005c88:	460f      	mov	r7, r1
 8005c8a:	bfa4      	itt	ge
 8005c8c:	460c      	movge	r4, r1
 8005c8e:	461f      	movge	r7, r3
 8005c90:	f8d4 a010 	ldr.w	sl, [r4, #16]
 8005c94:	f8d7 9010 	ldr.w	r9, [r7, #16]
 8005c98:	68a3      	ldr	r3, [r4, #8]
 8005c9a:	6861      	ldr	r1, [r4, #4]
 8005c9c:	eb0a 0609 	add.w	r6, sl, r9
 8005ca0:	42b3      	cmp	r3, r6
 8005ca2:	b085      	sub	sp, #20
 8005ca4:	bfb8      	it	lt
 8005ca6:	3101      	addlt	r1, #1
 8005ca8:	f7ff fe92 	bl	80059d0 <_Balloc>
 8005cac:	b930      	cbnz	r0, 8005cbc <__multiply+0x44>
 8005cae:	4602      	mov	r2, r0
 8005cb0:	4b44      	ldr	r3, [pc, #272]	@ (8005dc4 <__multiply+0x14c>)
 8005cb2:	4845      	ldr	r0, [pc, #276]	@ (8005dc8 <__multiply+0x150>)
 8005cb4:	f44f 71b1 	mov.w	r1, #354	@ 0x162
 8005cb8:	f001 fdde 	bl	8007878 <__assert_func>
 8005cbc:	f100 0514 	add.w	r5, r0, #20
 8005cc0:	eb05 0886 	add.w	r8, r5, r6, lsl #2
 8005cc4:	462b      	mov	r3, r5
 8005cc6:	2200      	movs	r2, #0
 8005cc8:	4543      	cmp	r3, r8
 8005cca:	d321      	bcc.n	8005d10 <__multiply+0x98>
 8005ccc:	f107 0114 	add.w	r1, r7, #20
 8005cd0:	f104 0214 	add.w	r2, r4, #20
 8005cd4:	eb02 028a 	add.w	r2, r2, sl, lsl #2
 8005cd8:	eb01 0389 	add.w	r3, r1, r9, lsl #2
 8005cdc:	9302      	str	r3, [sp, #8]
 8005cde:	1b13      	subs	r3, r2, r4
 8005ce0:	3b15      	subs	r3, #21
 8005ce2:	f023 0303 	bic.w	r3, r3, #3
 8005ce6:	3304      	adds	r3, #4
 8005ce8:	f104 0715 	add.w	r7, r4, #21
 8005cec:	42ba      	cmp	r2, r7
 8005cee:	bf38      	it	cc
 8005cf0:	2304      	movcc	r3, #4
 8005cf2:	9301      	str	r3, [sp, #4]
 8005cf4:	9b02      	ldr	r3, [sp, #8]
 8005cf6:	9103      	str	r1, [sp, #12]
 8005cf8:	428b      	cmp	r3, r1
 8005cfa:	d80c      	bhi.n	8005d16 <__multiply+0x9e>
 8005cfc:	2e00      	cmp	r6, #0
 8005cfe:	dd03      	ble.n	8005d08 <__multiply+0x90>
 8005d00:	f858 3d04 	ldr.w	r3, [r8, #-4]!
 8005d04:	2b00      	cmp	r3, #0
 8005d06:	d05b      	beq.n	8005dc0 <__multiply+0x148>
 8005d08:	6106      	str	r6, [r0, #16]
 8005d0a:	b005      	add	sp, #20
 8005d0c:	e8bd 8ff0 	ldmia.w	sp!, {r4, r5, r6, r7, r8, r9, sl, fp, pc}
 8005d10:	f843 2b04 	str.w	r2, [r3], #4
 8005d14:	e7d8      	b.n	8005cc8 <__multiply+0x50>
 8005d16:	f8b1 a000 	ldrh.w	sl, [r1]
 8005d1a:	f1ba 0f00 	cmp.w	sl, #0
 8005d1e:	d024      	beq.n	8005d6a <__multiply+0xf2>
 8005d20:	f104 0e14 	add.w	lr, r4, #20
 8005d24:	46a9      	mov	r9, r5
 8005d26:	f04f 0c00 	mov.w	ip, #0
 8005d2a:	f85e 7b04 	ldr.w	r7, [lr], #4
 8005d2e:	f8d9 3000 	ldr.w	r3, [r9]
 8005d32:	fa1f fb87 	uxth.w	fp, r7
 8005d36:	b29b      	uxth	r3, r3
 8005d38:	fb0a 330b 	mla	r3, sl, fp, r3
 8005d3c:	ea4f 4b17 	mov.w	fp, r7, lsr #16
 8005d40:	f8d9 7000 	ldr.w	r7, [r9]
 8005d44:	4463      	add	r3, ip
 8005d46:	ea4f 4c17 	mov.w	ip, r7, lsr #16
 8005d4a:	fb0a c70b 	mla	r7, sl, fp, ip
 8005d4e:	eb07 4713 	add.w	r7, r7, r3, lsr #16
 8005d52:	b29b      	uxth	r3, r3
 8005d54:	ea43 4307 	orr.w	r3, r3, r7, lsl #16
 8005d58:	4572      	cmp	r2, lr
 8005d5a:	f849 3b04 	str.w	r3, [r9], #4
 8005d5e:	ea4f 4c17 	mov.w	ip, r7, lsr #16
 8005d62:	d8e2      	bhi.n	8005d2a <__multiply+0xb2>
 8005d64:	9b01      	ldr	r3, [sp, #4]
 8005d66:	f845 c003 	str.w	ip, [r5, r3]
 8005d6a:	9b03      	ldr	r3, [sp, #12]
 8005d6c:	f8b3 9002 	ldrh.w	r9, [r3, #2]
 8005d70:	3104      	adds	r1, #4
 8005d72:	f1b9 0f00 	cmp.w	r9, #0
 8005d76:	d021      	beq.n	8005dbc <__multiply+0x144>
 8005d78:	682b      	ldr	r3, [r5, #0]
 8005d7a:	f104 0c14 	add.w	ip, r4, #20
 8005d7e:	46ae      	mov	lr, r5
 8005d80:	f04f 0a00 	mov.w	sl, #0
 8005d84:	f8bc b000 	ldrh.w	fp, [ip]
 8005d88:	f8be 7002 	ldrh.w	r7, [lr, #2]
 8005d8c:	fb09 770b 	mla	r7, r9, fp, r7
 8005d90:	4457      	add	r7, sl
 8005d92:	b29b      	uxth	r3, r3
 8005d94:	ea43 4307 	orr.w	r3, r3, r7, lsl #16
 8005d98:	f84e 3b04 	str.w	r3, [lr], #4
 8005d9c:	f85c 3b04 	ldr.w	r3, [ip], #4
 8005da0:	ea4f 4a13 	mov.w	sl, r3, lsr #16
 8005da4:	f8be 3000 	ldrh.w	r3, [lr]
 8005da8:	fb09 330a 	mla	r3, r9, sl, r3
 8005dac:	eb03 4317 	add.w	r3, r3, r7, lsr #16
 8005db0:	4562      	cmp	r2, ip
 8005db2:	ea4f 4a13 	mov.w	sl, r3, lsr #16
 8005db6:	d8e5      	bhi.n	8005d84 <__multiply+0x10c>
 8005db8:	9f01      	ldr	r7, [sp, #4]
 8005dba:	51eb      	str	r3, [r5, r7]
 8005dbc:	3504      	adds	r5, #4
 8005dbe:	e799      	b.n	8005cf4 <__multiply+0x7c>
 8005dc0:	3e01      	subs	r6, #1
 8005dc2:	e79b      	b.n	8005cfc <__multiply+0x84>
 8005dc4:	080085f1 	.word	0x080085f1
 8005dc8:	08008602 	.word	0x08008602

08005dcc <__pow5mult>:
 8005dcc:	e92d 43f8 	stmdb	sp!, {r3, r4, r5, r6, r7, r8, r9, lr}
 8005dd0:	4615      	mov	r5, r2
 8005dd2:	f012 0203 	ands.w	r2, r2, #3
 8005dd6:	4607      	mov	r7, r0
 8005dd8:	460e      	mov	r6, r1
 8005dda:	d007      	beq.n	8005dec <__pow5mult+0x20>
 8005ddc:	4c25      	ldr	r4, [pc, #148]	@ (8005e74 <__pow5mult+0xa8>)
 8005dde:	3a01      	subs	r2, #1
 8005de0:	2300      	movs	r3, #0
 8005de2:	f854 2022 	ldr.w	r2, [r4, r2, lsl #2]
 8005de6:	f7ff fe55 	bl	8005a94 <__multadd>
 8005dea:	4606      	mov	r6, r0
 8005dec:	10ad      	asrs	r5, r5, #2
 8005dee:	d03d      	beq.n	8005e6c <__pow5mult+0xa0>
 8005df0:	69fc      	ldr	r4, [r7, #28]
 8005df2:	b97c      	cbnz	r4, 8005e14 <__pow5mult+0x48>
 8005df4:	2010      	movs	r0, #16
 8005df6:	f7ff fd35 	bl	8005864 <malloc>
 8005dfa:	4602      	mov	r2, r0
 8005dfc:	61f8      	str	r0, [r7, #28]
 8005dfe:	b928      	cbnz	r0, 8005e0c <__pow5mult+0x40>
 8005e00:	4b1d      	ldr	r3, [pc, #116]	@ (8005e78 <__pow5mult+0xac>)
 8005e02:	481e      	ldr	r0, [pc, #120]	@ (8005e7c <__pow5mult+0xb0>)
 8005e04:	f240 11b3 	movw	r1, #435	@ 0x1b3
 8005e08:	f001 fd36 	bl	8007878 <__assert_func>
 8005e0c:	e9c0 4401 	strd	r4, r4, [r0, #4]
 8005e10:	6004      	str	r4, [r0, #0]
 8005e12:	60c4      	str	r4, [r0, #12]
 8005e14:	f8d7 801c 	ldr.w	r8, [r7, #28]
 8005e18:	f8d8 4008 	ldr.w	r4, [r8, #8]
 8005e1c:	b94c      	cbnz	r4, 8005e32 <__pow5mult+0x66>
 8005e1e:	f240 2171 	movw	r1, #625	@ 0x271
 8005e22:	4638      	mov	r0, r7
 8005e24:	f7ff ff12 	bl	8005c4c <__i2b>
 8005e28:	2300      	movs	r3, #0
 8005e2a:	f8c8 0008 	str.w	r0, [r8, #8]
 8005e2e:	4604      	mov	r4, r0
 8005e30:	6003      	str	r3, [r0, #0]
 8005e32:	f04f 0900 	mov.w	r9, #0
 8005e36:	07eb      	lsls	r3, r5, #31
 8005e38:	d50a      	bpl.n	8005e50 <__pow5mult+0x84>
 8005e3a:	4631      	mov	r1, r6
 8005e3c:	4622      	mov	r2, r4
 8005e3e:	4638      	mov	r0, r7
 8005e40:	f7ff ff1a 	bl	8005c78 <__multiply>
 8005e44:	4631      	mov	r1, r6
 8005e46:	4680      	mov	r8, r0
 8005e48:	4638      	mov	r0, r7
 8005e4a:	f7ff fe01 	bl	8005a50 <_Bfree>
 8005e4e:	4646      	mov	r6, r8
 8005e50:	106d      	asrs	r5, r5, #1
 8005e52:	d00b      	beq.n	8005e6c <__pow5mult+0xa0>
 8005e54:	6820      	ldr	r0, [r4, #0]
 8005e56:	b938      	cbnz	r0, 8005e68 <__pow5mult+0x9c>
 8005e58:	4622      	mov	r2, r4
 8005e5a:	4621      	mov	r1, r4
 8005e5c:	4638      	mov	r0, r7
 8005e5e:	f7ff ff0b 	bl	8005c78 <__multiply>
 8005e62:	6020      	str	r0, [r4, #0]
 8005e64:	f8c0 9000 	str.w	r9, [r0]
 8005e68:	4604      	mov	r4, r0
 8005e6a:	e7e4      	b.n	8005e36 <__pow5mult+0x6a>
 8005e6c:	4630      	mov	r0, r6
 8005e6e:	e8bd 83f8 	ldmia.w	sp!, {r3, r4, r5, r6, r7, r8, r9, pc}
 8005e72:	bf00      	nop
 8005e74:	0800865c 	.word	0x0800865c
 8005e78:	08008582 	.word	0x08008582
 8005e7c:	08008602 	.word	0x08008602

08005e80 <__lshift>:
 8005e80:	e92d 47f0 	stmdb	sp!, {r4, r5, r6, r7, r8, r9, sl, lr}
 8005e84:	460c      	mov	r4, r1
 8005e86:	6849      	ldr	r1, [r1, #4]
 8005e88:	6923      	ldr	r3, [r4, #16]
 8005e8a:	eb03 1862 	add.w	r8, r3, r2, asr #5
 8005e8e:	68a3      	ldr	r3, [r4, #8]
 8005e90:	4607      	mov	r7, r0
 8005e92:	4691      	mov	r9, r2
 8005e94:	ea4f 1a62 	mov.w	sl, r2, asr #5
 8005e98:	f108 0601 	add.w	r6, r8, #1
 8005e9c:	42b3      	cmp	r3, r6
 8005e9e:	db0b      	blt.n	8005eb8 <__lshift+0x38>
 8005ea0:	4638      	mov	r0, r7
 8005ea2:	f7ff fd95 	bl	80059d0 <_Balloc>
 8005ea6:	4605      	mov	r5, r0
 8005ea8:	b948      	cbnz	r0, 8005ebe <__lshift+0x3e>
 8005eaa:	4602      	mov	r2, r0
 8005eac:	4b28      	ldr	r3, [pc, #160]	@ (8005f50 <__lshift+0xd0>)
 8005eae:	4829      	ldr	r0, [pc, #164]	@ (8005f54 <__lshift+0xd4>)
 8005eb0:	f44f 71ef 	mov.w	r1, #478	@ 0x1de
 8005eb4:	f001 fce0 	bl	8007878 <__assert_func>
 8005eb8:	3101      	adds	r1, #1
 8005eba:	005b      	lsls	r3, r3, #1
 8005ebc:	e7ee      	b.n	8005e9c <__lshift+0x1c>
 8005ebe:	2300      	movs	r3, #0
 8005ec0:	f100 0114 	add.w	r1, r0, #20
 8005ec4:	f100 0210 	add.w	r2, r0, #16
 8005ec8:	4618      	mov	r0, r3
 8005eca:	4553      	cmp	r3, sl
 8005ecc:	db33      	blt.n	8005f36 <__lshift+0xb6>
 8005ece:	6920      	ldr	r0, [r4, #16]
 8005ed0:	ea2a 7aea 	bic.w	sl, sl, sl, asr #31
 8005ed4:	f104 0314 	add.w	r3, r4, #20
 8005ed8:	f019 091f 	ands.w	r9, r9, #31
 8005edc:	eb01 018a 	add.w	r1, r1, sl, lsl #2
 8005ee0:	eb03 0c80 	add.w	ip, r3, r0, lsl #2
 8005ee4:	d02b      	beq.n	8005f3e <__lshift+0xbe>
 8005ee6:	f1c9 0e20 	rsb	lr, r9, #32
 8005eea:	468a      	mov	sl, r1
 8005eec:	2200      	movs	r2, #0
 8005eee:	6818      	ldr	r0, [r3, #0]
 8005ef0:	fa00 f009 	lsl.w	r0, r0, r9
 8005ef4:	4310      	orrs	r0, r2
 8005ef6:	f84a 0b04 	str.w	r0, [sl], #4
 8005efa:	f853 2b04 	ldr.w	r2, [r3], #4
 8005efe:	459c      	cmp	ip, r3
 8005f00:	fa22 f20e 	lsr.w	r2, r2, lr
 8005f04:	d8f3      	bhi.n	8005eee <__lshift+0x6e>
 8005f06:	ebac 0304 	sub.w	r3, ip, r4
 8005f0a:	3b15      	subs	r3, #21
 8005f0c:	f023 0303 	bic.w	r3, r3, #3
 8005f10:	3304      	adds	r3, #4
 8005f12:	f104 0015 	add.w	r0, r4, #21
 8005f16:	4584      	cmp	ip, r0
 8005f18:	bf38      	it	cc
 8005f1a:	2304      	movcc	r3, #4
 8005f1c:	50ca      	str	r2, [r1, r3]
 8005f1e:	b10a      	cbz	r2, 8005f24 <__lshift+0xa4>
 8005f20:	f108 0602 	add.w	r6, r8, #2
 8005f24:	3e01      	subs	r6, #1
 8005f26:	4638      	mov	r0, r7
 8005f28:	612e      	str	r6, [r5, #16]
 8005f2a:	4621      	mov	r1, r4
 8005f2c:	f7ff fd90 	bl	8005a50 <_Bfree>
 8005f30:	4628      	mov	r0, r5
 8005f32:	e8bd 87f0 	ldmia.w	sp!, {r4, r5, r6, r7, r8, r9, sl, pc}
 8005f36:	f842 0f04 	str.w	r0, [r2, #4]!
 8005f3a:	3301      	adds	r3, #1
 8005f3c:	e7c5      	b.n	8005eca <__lshift+0x4a>
 8005f3e:	3904      	subs	r1, #4
 8005f40:	f853 2b04 	ldr.w	r2, [r3], #4
 8005f44:	f841 2f04 	str.w	r2, [r1, #4]!
 8005f48:	459c      	cmp	ip, r3
 8005f4a:	d8f9      	bhi.n	8005f40 <__lshift+0xc0>
 8005f4c:	e7ea      	b.n	8005f24 <__lshift+0xa4>
 8005f4e:	bf00      	nop
 8005f50:	080085f1 	.word	0x080085f1
 8005f54:	08008602 	.word	0x08008602

08005f58 <__mcmp>:
 8005f58:	690a      	ldr	r2, [r1, #16]
 8005f5a:	4603      	mov	r3, r0
 8005f5c:	6900      	ldr	r0, [r0, #16]
 8005f5e:	1a80      	subs	r0, r0, r2
 8005f60:	b530      	push	{r4, r5, lr}
 8005f62:	d10e      	bne.n	8005f82 <__mcmp+0x2a>
 8005f64:	3314      	adds	r3, #20
 8005f66:	3114      	adds	r1, #20
 8005f68:	eb03 0482 	add.w	r4, r3, r2, lsl #2
 8005f6c:	eb01 0182 	add.w	r1, r1, r2, lsl #2
 8005f70:	f854 5d04 	ldr.w	r5, [r4, #-4]!
 8005f74:	f851 2d04 	ldr.w	r2, [r1, #-4]!
 8005f78:	4295      	cmp	r5, r2
 8005f7a:	d003      	beq.n	8005f84 <__mcmp+0x2c>
 8005f7c:	d205      	bcs.n	8005f8a <__mcmp+0x32>
 8005f7e:	f04f 30ff 	mov.w	r0, #4294967295
 8005f82:	bd30      	pop	{r4, r5, pc}
 8005f84:	42a3      	cmp	r3, r4
 8005f86:	d3f3      	bcc.n	8005f70 <__mcmp+0x18>
 8005f88:	e7fb      	b.n	8005f82 <__mcmp+0x2a>
 8005f8a:	2001      	movs	r0, #1
 8005f8c:	e7f9      	b.n	8005f82 <__mcmp+0x2a>
	...

08005f90 <__mdiff>:
 8005f90:	e92d 4ff7 	stmdb	sp!, {r0, r1, r2, r4, r5, r6, r7, r8, r9, sl, fp, lr}
 8005f94:	4689      	mov	r9, r1
 8005f96:	4606      	mov	r6, r0
 8005f98:	4611      	mov	r1, r2
 8005f9a:	4648      	mov	r0, r9
 8005f9c:	4614      	mov	r4, r2
 8005f9e:	f7ff ffdb 	bl	8005f58 <__mcmp>
 8005fa2:	1e05      	subs	r5, r0, #0
 8005fa4:	d112      	bne.n	8005fcc <__mdiff+0x3c>
 8005fa6:	4629      	mov	r1, r5
 8005fa8:	4630      	mov	r0, r6
 8005faa:	f7ff fd11 	bl	80059d0 <_Balloc>
 8005fae:	4602      	mov	r2, r0
 8005fb0:	b928      	cbnz	r0, 8005fbe <__mdiff+0x2e>
 8005fb2:	4b3f      	ldr	r3, [pc, #252]	@ (80060b0 <__mdiff+0x120>)
 8005fb4:	f240 2137 	movw	r1, #567	@ 0x237
 8005fb8:	483e      	ldr	r0, [pc, #248]	@ (80060b4 <__mdiff+0x124>)
 8005fba:	f001 fc5d 	bl	8007878 <__assert_func>
 8005fbe:	2301      	movs	r3, #1
 8005fc0:	e9c0 3504 	strd	r3, r5, [r0, #16]
 8005fc4:	4610      	mov	r0, r2
 8005fc6:	b003      	add	sp, #12
 8005fc8:	e8bd 8ff0 	ldmia.w	sp!, {r4, r5, r6, r7, r8, r9, sl, fp, pc}
 8005fcc:	bfbc      	itt	lt
 8005fce:	464b      	movlt	r3, r9
 8005fd0:	46a1      	movlt	r9, r4
 8005fd2:	4630      	mov	r0, r6
 8005fd4:	f8d9 1004 	ldr.w	r1, [r9, #4]
 8005fd8:	bfba      	itte	lt
 8005fda:	461c      	movlt	r4, r3
 8005fdc:	2501      	movlt	r5, #1
 8005fde:	2500      	movge	r5, #0
 8005fe0:	f7ff fcf6 	bl	80059d0 <_Balloc>
 8005fe4:	4602      	mov	r2, r0
 8005fe6:	b918      	cbnz	r0, 8005ff0 <__mdiff+0x60>
 8005fe8:	4b31      	ldr	r3, [pc, #196]	@ (80060b0 <__mdiff+0x120>)
 8005fea:	f240 2145 	movw	r1, #581	@ 0x245
 8005fee:	e7e3      	b.n	8005fb8 <__mdiff+0x28>
 8005ff0:	f8d9 7010 	ldr.w	r7, [r9, #16]
 8005ff4:	6926      	ldr	r6, [r4, #16]
 8005ff6:	60c5      	str	r5, [r0, #12]
 8005ff8:	f109 0310 	add.w	r3, r9, #16
 8005ffc:	f109 0514 	add.w	r5, r9, #20
 8006000:	f104 0e14 	add.w	lr, r4, #20
 8006004:	f100 0b14 	add.w	fp, r0, #20
 8006008:	eb05 0887 	add.w	r8, r5, r7, lsl #2
 800600c:	eb0e 0686 	add.w	r6, lr, r6, lsl #2
 8006010:	9301      	str	r3, [sp, #4]
 8006012:	46d9      	mov	r9, fp
 8006014:	f04f 0c00 	mov.w	ip, #0
 8006018:	9b01      	ldr	r3, [sp, #4]
 800601a:	f85e 0b04 	ldr.w	r0, [lr], #4
 800601e:	f853 af04 	ldr.w	sl, [r3, #4]!
 8006022:	9301      	str	r3, [sp, #4]
 8006024:	fa1f f38a 	uxth.w	r3, sl
 8006028:	4619      	mov	r1, r3
 800602a:	b283      	uxth	r3, r0
 800602c:	1acb      	subs	r3, r1, r3
 800602e:	0c00      	lsrs	r0, r0, #16
 8006030:	4463      	add	r3, ip
 8006032:	ebc0 401a 	rsb	r0, r0, sl, lsr #16
 8006036:	eb00 4023 	add.w	r0, r0, r3, asr #16
 800603a:	b29b      	uxth	r3, r3
 800603c:	ea43 4300 	orr.w	r3, r3, r0, lsl #16
 8006040:	4576      	cmp	r6, lr
 8006042:	f849 3b04 	str.w	r3, [r9], #4
 8006046:	ea4f 4c20 	mov.w	ip, r0, asr #16
 800604a:	d8e5      	bhi.n	8006018 <__mdiff+0x88>
 800604c:	1b33      	subs	r3, r6, r4
 800604e:	3b15      	subs	r3, #21
 8006050:	f023 0303 	bic.w	r3, r3, #3
 8006054:	3415      	adds	r4, #21
 8006056:	3304      	adds	r3, #4
 8006058:	42a6      	cmp	r6, r4
 800605a:	bf38      	it	cc
 800605c:	2304      	movcc	r3, #4
 800605e:	441d      	add	r5, r3
 8006060:	445b      	add	r3, fp
 8006062:	461e      	mov	r6, r3
 8006064:	462c      	mov	r4, r5
 8006066:	4544      	cmp	r4, r8
 8006068:	d30e      	bcc.n	8006088 <__mdiff+0xf8>
 800606a:	f108 0103 	add.w	r1, r8, #3
 800606e:	1b49      	subs	r1, r1, r5
 8006070:	f021 0103 	bic.w	r1, r1, #3
 8006074:	3d03      	subs	r5, #3
 8006076:	45a8      	cmp	r8, r5
 8006078:	bf38      	it	cc
 800607a:	2100      	movcc	r1, #0
 800607c:	440b      	add	r3, r1
 800607e:	f853 1d04 	ldr.w	r1, [r3, #-4]!
 8006082:	b191      	cbz	r1, 80060aa <__mdiff+0x11a>
 8006084:	6117      	str	r7, [r2, #16]
 8006086:	e79d      	b.n	8005fc4 <__mdiff+0x34>
 8006088:	f854 1b04 	ldr.w	r1, [r4], #4
 800608c:	46e6      	mov	lr, ip
 800608e:	0c08      	lsrs	r0, r1, #16
 8006090:	fa1c fc81 	uxtah	ip, ip, r1
 8006094:	4471      	add	r1, lr
 8006096:	eb00 402c 	add.w	r0, r0, ip, asr #16
 800609a:	b289      	uxth	r1, r1
 800609c:	ea41 4100 	orr.w	r1, r1, r0, lsl #16
 80060a0:	f846 1b04 	str.w	r1, [r6], #4
 80060a4:	ea4f 4c20 	mov.w	ip, r0, asr #16
 80060a8:	e7dd      	b.n	8006066 <__mdiff+0xd6>
 80060aa:	3f01      	subs	r7, #1
 80060ac:	e7e7      	b.n	800607e <__mdiff+0xee>
 80060ae:	bf00      	nop
 80060b0:	080085f1 	.word	0x080085f1
 80060b4:	08008602 	.word	0x08008602

080060b8 <__ulp>:
 80060b8:	b082      	sub	sp, #8
 80060ba:	ed8d 0b00 	vstr	d0, [sp]
 80060be:	9a01      	ldr	r2, [sp, #4]
 80060c0:	4b0f      	ldr	r3, [pc, #60]	@ (8006100 <__ulp+0x48>)
 80060c2:	4013      	ands	r3, r2
 80060c4:	f1a3 7350 	sub.w	r3, r3, #54525952	@ 0x3400000
 80060c8:	2b00      	cmp	r3, #0
 80060ca:	dc08      	bgt.n	80060de <__ulp+0x26>
 80060cc:	425b      	negs	r3, r3
 80060ce:	f1b3 7fa0 	cmp.w	r3, #20971520	@ 0x1400000
 80060d2:	ea4f 5223 	mov.w	r2, r3, asr #20
 80060d6:	da04      	bge.n	80060e2 <__ulp+0x2a>
 80060d8:	f44f 2300 	mov.w	r3, #524288	@ 0x80000
 80060dc:	4113      	asrs	r3, r2
 80060de:	2200      	movs	r2, #0
 80060e0:	e008      	b.n	80060f4 <__ulp+0x3c>
 80060e2:	f1a2 0314 	sub.w	r3, r2, #20
 80060e6:	2b1e      	cmp	r3, #30
 80060e8:	bfda      	itte	le
 80060ea:	f04f 4200 	movle.w	r2, #2147483648	@ 0x80000000
 80060ee:	40da      	lsrle	r2, r3
 80060f0:	2201      	movgt	r2, #1
 80060f2:	2300      	movs	r3, #0
 80060f4:	4619      	mov	r1, r3
 80060f6:	4610      	mov	r0, r2
 80060f8:	ec41 0b10 	vmov	d0, r0, r1
 80060fc:	b002      	add	sp, #8
 80060fe:	4770      	bx	lr
 8006100:	7ff00000 	.word	0x7ff00000

08006104 <__b2d>:
 8006104:	e92d 41f0 	stmdb	sp!, {r4, r5, r6, r7, r8, lr}
 8006108:	6906      	ldr	r6, [r0, #16]
 800610a:	f100 0814 	add.w	r8, r0, #20
 800610e:	eb08 0686 	add.w	r6, r8, r6, lsl #2
 8006112:	1f37      	subs	r7, r6, #4
 8006114:	f856 2c04 	ldr.w	r2, [r6, #-4]
 8006118:	4610      	mov	r0, r2
 800611a:	f7ff fd4b 	bl	8005bb4 <__hi0bits>
 800611e:	f1c0 0320 	rsb	r3, r0, #32
 8006122:	280a      	cmp	r0, #10
 8006124:	600b      	str	r3, [r1, #0]
 8006126:	491b      	ldr	r1, [pc, #108]	@ (8006194 <__b2d+0x90>)
 8006128:	dc15      	bgt.n	8006156 <__b2d+0x52>
 800612a:	f1c0 0c0b 	rsb	ip, r0, #11
 800612e:	fa22 f30c 	lsr.w	r3, r2, ip
 8006132:	45b8      	cmp	r8, r7
 8006134:	ea43 0501 	orr.w	r5, r3, r1
 8006138:	bf34      	ite	cc
 800613a:	f856 3c08 	ldrcc.w	r3, [r6, #-8]
 800613e:	2300      	movcs	r3, #0
 8006140:	3015      	adds	r0, #21
 8006142:	fa02 f000 	lsl.w	r0, r2, r0
 8006146:	fa23 f30c 	lsr.w	r3, r3, ip
 800614a:	4303      	orrs	r3, r0
 800614c:	461c      	mov	r4, r3
 800614e:	ec45 4b10 	vmov	d0, r4, r5
 8006152:	e8bd 81f0 	ldmia.w	sp!, {r4, r5, r6, r7, r8, pc}
 8006156:	45b8      	cmp	r8, r7
 8006158:	bf3a      	itte	cc
 800615a:	f856 3c08 	ldrcc.w	r3, [r6, #-8]
 800615e:	f1a6 0708 	subcc.w	r7, r6, #8
 8006162:	2300      	movcs	r3, #0
 8006164:	380b      	subs	r0, #11
 8006166:	d012      	beq.n	800618e <__b2d+0x8a>
 8006168:	f1c0 0120 	rsb	r1, r0, #32
 800616c:	fa23 f401 	lsr.w	r4, r3, r1
 8006170:	4082      	lsls	r2, r0
 8006172:	4322      	orrs	r2, r4
 8006174:	4547      	cmp	r7, r8
 8006176:	f042 557f 	orr.w	r5, r2, #1069547520	@ 0x3fc00000
 800617a:	bf8c      	ite	hi
 800617c:	f857 2c04 	ldrhi.w	r2, [r7, #-4]
 8006180:	2200      	movls	r2, #0
 8006182:	4083      	lsls	r3, r0
 8006184:	40ca      	lsrs	r2, r1
 8006186:	f445 1540 	orr.w	r5, r5, #3145728	@ 0x300000
 800618a:	4313      	orrs	r3, r2
 800618c:	e7de      	b.n	800614c <__b2d+0x48>
 800618e:	ea42 0501 	orr.w	r5, r2, r1
 8006192:	e7db      	b.n	800614c <__b2d+0x48>
 8006194:	3ff00000 	.word	0x3ff00000

08006198 <__d2b>:
 8006198:	e92d 43f7 	stmdb	sp!, {r0, r1, r2, r4, r5, r6, r7, r8, r9, lr}
 800619c:	460f      	mov	r7, r1
 800619e:	2101      	movs	r1, #1
 80061a0:	ec59 8b10 	vmov	r8, r9, d0
 80061a4:	4616      	mov	r6, r2
 80061a6:	f7ff fc13 	bl	80059d0 <_Balloc>
 80061aa:	4604      	mov	r4, r0
 80061ac:	b930      	cbnz	r0, 80061bc <__d2b+0x24>
 80061ae:	4602      	mov	r2, r0
 80061b0:	4b23      	ldr	r3, [pc, #140]	@ (8006240 <__d2b+0xa8>)
 80061b2:	4824      	ldr	r0, [pc, #144]	@ (8006244 <__d2b+0xac>)
 80061b4:	f240 310f 	movw	r1, #783	@ 0x30f
 80061b8:	f001 fb5e 	bl	8007878 <__assert_func>
 80061bc:	f3c9 550a 	ubfx	r5, r9, #20, #11
 80061c0:	f3c9 0313 	ubfx	r3, r9, #0, #20
 80061c4:	b10d      	cbz	r5, 80061ca <__d2b+0x32>
 80061c6:	f443 1380 	orr.w	r3, r3, #1048576	@ 0x100000
 80061ca:	9301      	str	r3, [sp, #4]
 80061cc:	f1b8 0300 	subs.w	r3, r8, #0
 80061d0:	d023      	beq.n	800621a <__d2b+0x82>
 80061d2:	4668      	mov	r0, sp
 80061d4:	9300      	str	r3, [sp, #0]
 80061d6:	f7ff fd0c 	bl	8005bf2 <__lo0bits>
 80061da:	e9dd 1200 	ldrd	r1, r2, [sp]
 80061de:	b1d0      	cbz	r0, 8006216 <__d2b+0x7e>
 80061e0:	f1c0 0320 	rsb	r3, r0, #32
 80061e4:	fa02 f303 	lsl.w	r3, r2, r3
 80061e8:	430b      	orrs	r3, r1
 80061ea:	40c2      	lsrs	r2, r0
 80061ec:	6163      	str	r3, [r4, #20]
 80061ee:	9201      	str	r2, [sp, #4]
 80061f0:	9b01      	ldr	r3, [sp, #4]
 80061f2:	61a3      	str	r3, [r4, #24]
 80061f4:	2b00      	cmp	r3, #0
 80061f6:	bf0c      	ite	eq
 80061f8:	2201      	moveq	r2, #1
 80061fa:	2202      	movne	r2, #2
 80061fc:	6122      	str	r2, [r4, #16]
 80061fe:	b1a5      	cbz	r5, 800622a <__d2b+0x92>
 8006200:	f2a5 4533 	subw	r5, r5, #1075	@ 0x433
 8006204:	4405      	add	r5, r0
 8006206:	603d      	str	r5, [r7, #0]
 8006208:	f1c0 0035 	rsb	r0, r0, #53	@ 0x35
 800620c:	6030      	str	r0, [r6, #0]
 800620e:	4620      	mov	r0, r4
 8006210:	b003      	add	sp, #12
 8006212:	e8bd 83f0 	ldmia.w	sp!, {r4, r5, r6, r7, r8, r9, pc}
 8006216:	6161      	str	r1, [r4, #20]
 8006218:	e7ea      	b.n	80061f0 <__d2b+0x58>
 800621a:	a801      	add	r0, sp, #4
 800621c:	f7ff fce9 	bl	8005bf2 <__lo0bits>
 8006220:	9b01      	ldr	r3, [sp, #4]
 8006222:	6163      	str	r3, [r4, #20]
 8006224:	3020      	adds	r0, #32
 8006226:	2201      	movs	r2, #1
 8006228:	e7e8      	b.n	80061fc <__d2b+0x64>
 800622a:	eb04 0382 	add.w	r3, r4, r2, lsl #2
 800622e:	f2a0 4032 	subw	r0, r0, #1074	@ 0x432
 8006232:	6038      	str	r0, [r7, #0]
 8006234:	6918      	ldr	r0, [r3, #16]
 8006236:	f7ff fcbd 	bl	8005bb4 <__hi0bits>
 800623a:	ebc0 1042 	rsb	r0, r0, r2, lsl #5
 800623e:	e7e5      	b.n	800620c <__d2b+0x74>
 8006240:	080085f1 	.word	0x080085f1
 8006244:	08008602 	.word	0x08008602

08006248 <__ratio>:
 8006248:	e92d 4ff0 	stmdb	sp!, {r4, r5, r6, r7, r8, r9, sl, fp, lr}
 800624c:	b085      	sub	sp, #20
 800624e:	e9cd 1000 	strd	r1, r0, [sp]
 8006252:	a902      	add	r1, sp, #8
 8006254:	f7ff ff56 	bl	8006104 <__b2d>
 8006258:	9800      	ldr	r0, [sp, #0]
 800625a:	a903      	add	r1, sp, #12
 800625c:	ec55 4b10 	vmov	r4, r5, d0
 8006260:	f7ff ff50 	bl	8006104 <__b2d>
 8006264:	9b01      	ldr	r3, [sp, #4]
 8006266:	6919      	ldr	r1, [r3, #16]
 8006268:	9b00      	ldr	r3, [sp, #0]
 800626a:	691b      	ldr	r3, [r3, #16]
 800626c:	1ac9      	subs	r1, r1, r3
 800626e:	e9dd 3202 	ldrd	r3, r2, [sp, #8]
 8006272:	1a9b      	subs	r3, r3, r2
 8006274:	ec5b ab10 	vmov	sl, fp, d0
 8006278:	eb03 1341 	add.w	r3, r3, r1, lsl #5
 800627c:	2b00      	cmp	r3, #0
 800627e:	bfce      	itee	gt
 8006280:	462a      	movgt	r2, r5
 8006282:	ebc3 3303 	rsble	r3, r3, r3, lsl #12
 8006286:	465a      	movle	r2, fp
 8006288:	462f      	mov	r7, r5
 800628a:	46d9      	mov	r9, fp
 800628c:	bfcc      	ite	gt
 800628e:	eb02 5703 	addgt.w	r7, r2, r3, lsl #20
 8006292:	eb02 5903 	addle.w	r9, r2, r3, lsl #20
 8006296:	464b      	mov	r3, r9
 8006298:	4652      	mov	r2, sl
 800629a:	4620      	mov	r0, r4
 800629c:	4639      	mov	r1, r7
 800629e:	f7fa fadd 	bl	800085c <__aeabi_ddiv>
 80062a2:	ec41 0b10 	vmov	d0, r0, r1
 80062a6:	b005      	add	sp, #20
 80062a8:	e8bd 8ff0 	ldmia.w	sp!, {r4, r5, r6, r7, r8, r9, sl, fp, pc}

080062ac <__copybits>:
 80062ac:	3901      	subs	r1, #1
 80062ae:	b570      	push	{r4, r5, r6, lr}
 80062b0:	1149      	asrs	r1, r1, #5
 80062b2:	6914      	ldr	r4, [r2, #16]
 80062b4:	3101      	adds	r1, #1
 80062b6:	f102 0314 	add.w	r3, r2, #20
 80062ba:	eb00 0181 	add.w	r1, r0, r1, lsl #2
 80062be:	eb03 0484 	add.w	r4, r3, r4, lsl #2
 80062c2:	1f05      	subs	r5, r0, #4
 80062c4:	42a3      	cmp	r3, r4
 80062c6:	d30c      	bcc.n	80062e2 <__copybits+0x36>
 80062c8:	1aa3      	subs	r3, r4, r2
 80062ca:	3b11      	subs	r3, #17
 80062cc:	f023 0303 	bic.w	r3, r3, #3
 80062d0:	3211      	adds	r2, #17
 80062d2:	42a2      	cmp	r2, r4
 80062d4:	bf88      	it	hi
 80062d6:	2300      	movhi	r3, #0
 80062d8:	4418      	add	r0, r3
 80062da:	2300      	movs	r3, #0
 80062dc:	4288      	cmp	r0, r1
 80062de:	d305      	bcc.n	80062ec <__copybits+0x40>
 80062e0:	bd70      	pop	{r4, r5, r6, pc}
 80062e2:	f853 6b04 	ldr.w	r6, [r3], #4
 80062e6:	f845 6f04 	str.w	r6, [r5, #4]!
 80062ea:	e7eb      	b.n	80062c4 <__copybits+0x18>
 80062ec:	f840 3b04 	str.w	r3, [r0], #4
 80062f0:	e7f4      	b.n	80062dc <__copybits+0x30>

080062f2 <__any_on>:
 80062f2:	f100 0214 	add.w	r2, r0, #20
 80062f6:	6900      	ldr	r0, [r0, #16]
 80062f8:	114b      	asrs	r3, r1, #5
 80062fa:	4298      	cmp	r0, r3
 80062fc:	b510      	push	{r4, lr}
 80062fe:	db11      	blt.n	8006324 <__any_on+0x32>
 8006300:	dd0a      	ble.n	8006318 <__any_on+0x26>
 8006302:	f011 011f 	ands.w	r1, r1, #31
 8006306:	d007      	beq.n	8006318 <__any_on+0x26>
 8006308:	f852 4023 	ldr.w	r4, [r2, r3, lsl #2]
 800630c:	fa24 f001 	lsr.w	r0, r4, r1
 8006310:	fa00 f101 	lsl.w	r1, r0, r1
 8006314:	428c      	cmp	r4, r1
 8006316:	d10b      	bne.n	8006330 <__any_on+0x3e>
 8006318:	eb02 0383 	add.w	r3, r2, r3, lsl #2
 800631c:	4293      	cmp	r3, r2
 800631e:	d803      	bhi.n	8006328 <__any_on+0x36>
 8006320:	2000      	movs	r0, #0
 8006322:	bd10      	pop	{r4, pc}
 8006324:	4603      	mov	r3, r0
 8006326:	e7f7      	b.n	8006318 <__any_on+0x26>
 8006328:	f853 1d04 	ldr.w	r1, [r3, #-4]!
 800632c:	2900      	cmp	r1, #0
 800632e:	d0f5      	beq.n	800631c <__any_on+0x2a>
 8006330:	2001      	movs	r0, #1
 8006332:	e7f6      	b.n	8006322 <__any_on+0x30>

08006334 <sulp>:
 8006334:	b570      	push	{r4, r5, r6, lr}
 8006336:	4604      	mov	r4, r0
 8006338:	460d      	mov	r5, r1
 800633a:	ec45 4b10 	vmov	d0, r4, r5
 800633e:	4616      	mov	r6, r2
 8006340:	f7ff feba 	bl	80060b8 <__ulp>
 8006344:	ec51 0b10 	vmov	r0, r1, d0
 8006348:	b17e      	cbz	r6, 800636a <sulp+0x36>
 800634a:	f3c5 530a 	ubfx	r3, r5, #20, #11
 800634e:	f1c3 036b 	rsb	r3, r3, #107	@ 0x6b
 8006352:	2b00      	cmp	r3, #0
 8006354:	dd09      	ble.n	800636a <sulp+0x36>
 8006356:	051b      	lsls	r3, r3, #20
 8006358:	f103 557f 	add.w	r5, r3, #1069547520	@ 0x3fc00000
 800635c:	2400      	movs	r4, #0
 800635e:	f505 1540 	add.w	r5, r5, #3145728	@ 0x300000
 8006362:	4622      	mov	r2, r4
 8006364:	462b      	mov	r3, r5
 8006366:	f7fa f94f 	bl	8000608 <__aeabi_dmul>
 800636a:	ec41 0b10 	vmov	d0, r0, r1
 800636e:	bd70      	pop	{r4, r5, r6, pc}

08006370 <_strtod_l>:
 8006370:	e92d 4ff0 	stmdb	sp!, {r4, r5, r6, r7, r8, r9, sl, fp, lr}
 8006374:	b09f      	sub	sp, #124	@ 0x7c
 8006376:	460c      	mov	r4, r1
 8006378:	9217      	str	r2, [sp, #92]	@ 0x5c
 800637a:	2200      	movs	r2, #0
 800637c:	921a      	str	r2, [sp, #104]	@ 0x68
 800637e:	9005      	str	r0, [sp, #20]
 8006380:	f04f 0a00 	mov.w	sl, #0
 8006384:	f04f 0b00 	mov.w	fp, #0
 8006388:	460a      	mov	r2, r1
 800638a:	9219      	str	r2, [sp, #100]	@ 0x64
 800638c:	7811      	ldrb	r1, [r2, #0]
 800638e:	292b      	cmp	r1, #43	@ 0x2b
 8006390:	d04a      	beq.n	8006428 <_strtod_l+0xb8>
 8006392:	d838      	bhi.n	8006406 <_strtod_l+0x96>
 8006394:	290d      	cmp	r1, #13
 8006396:	d832      	bhi.n	80063fe <_strtod_l+0x8e>
 8006398:	2908      	cmp	r1, #8
 800639a:	d832      	bhi.n	8006402 <_strtod_l+0x92>
 800639c:	2900      	cmp	r1, #0
 800639e:	d03b      	beq.n	8006418 <_strtod_l+0xa8>
 80063a0:	2200      	movs	r2, #0
 80063a2:	920b      	str	r2, [sp, #44]	@ 0x2c
 80063a4:	9d19      	ldr	r5, [sp, #100]	@ 0x64
 80063a6:	782a      	ldrb	r2, [r5, #0]
 80063a8:	2a30      	cmp	r2, #48	@ 0x30
 80063aa:	f040 80b3 	bne.w	8006514 <_strtod_l+0x1a4>
 80063ae:	786a      	ldrb	r2, [r5, #1]
 80063b0:	f002 02df 	and.w	r2, r2, #223	@ 0xdf
 80063b4:	2a58      	cmp	r2, #88	@ 0x58
 80063b6:	d16e      	bne.n	8006496 <_strtod_l+0x126>
 80063b8:	9302      	str	r3, [sp, #8]
 80063ba:	9b0b      	ldr	r3, [sp, #44]	@ 0x2c
 80063bc:	9301      	str	r3, [sp, #4]
 80063be:	ab1a      	add	r3, sp, #104	@ 0x68
 80063c0:	9300      	str	r3, [sp, #0]
 80063c2:	4a8e      	ldr	r2, [pc, #568]	@ (80065fc <_strtod_l+0x28c>)
 80063c4:	9805      	ldr	r0, [sp, #20]
 80063c6:	ab1b      	add	r3, sp, #108	@ 0x6c
 80063c8:	a919      	add	r1, sp, #100	@ 0x64
 80063ca:	f001 faef 	bl	80079ac <__gethex>
 80063ce:	f010 060f 	ands.w	r6, r0, #15
 80063d2:	4604      	mov	r4, r0
 80063d4:	d005      	beq.n	80063e2 <_strtod_l+0x72>
 80063d6:	2e06      	cmp	r6, #6
 80063d8:	d128      	bne.n	800642c <_strtod_l+0xbc>
 80063da:	3501      	adds	r5, #1
 80063dc:	2300      	movs	r3, #0
 80063de:	9519      	str	r5, [sp, #100]	@ 0x64
 80063e0:	930b      	str	r3, [sp, #44]	@ 0x2c
 80063e2:	9b17      	ldr	r3, [sp, #92]	@ 0x5c
 80063e4:	2b00      	cmp	r3, #0
 80063e6:	f040 858e 	bne.w	8006f06 <_strtod_l+0xb96>
 80063ea:	9b0b      	ldr	r3, [sp, #44]	@ 0x2c
 80063ec:	b1cb      	cbz	r3, 8006422 <_strtod_l+0xb2>
 80063ee:	4652      	mov	r2, sl
 80063f0:	f10b 4300 	add.w	r3, fp, #2147483648	@ 0x80000000
 80063f4:	ec43 2b10 	vmov	d0, r2, r3
 80063f8:	b01f      	add	sp, #124	@ 0x7c
 80063fa:	e8bd 8ff0 	ldmia.w	sp!, {r4, r5, r6, r7, r8, r9, sl, fp, pc}
 80063fe:	2920      	cmp	r1, #32
 8006400:	d1ce      	bne.n	80063a0 <_strtod_l+0x30>
 8006402:	3201      	adds	r2, #1
 8006404:	e7c1      	b.n	800638a <_strtod_l+0x1a>
 8006406:	292d      	cmp	r1, #45	@ 0x2d
 8006408:	d1ca      	bne.n	80063a0 <_strtod_l+0x30>
 800640a:	2101      	movs	r1, #1
 800640c:	910b      	str	r1, [sp, #44]	@ 0x2c
 800640e:	1c51      	adds	r1, r2, #1
 8006410:	9119      	str	r1, [sp, #100]	@ 0x64
 8006412:	7852      	ldrb	r2, [r2, #1]
 8006414:	2a00      	cmp	r2, #0
 8006416:	d1c5      	bne.n	80063a4 <_strtod_l+0x34>
 8006418:	9b17      	ldr	r3, [sp, #92]	@ 0x5c
 800641a:	9419      	str	r4, [sp, #100]	@ 0x64
 800641c:	2b00      	cmp	r3, #0
 800641e:	f040 8570 	bne.w	8006f02 <_strtod_l+0xb92>
 8006422:	4652      	mov	r2, sl
 8006424:	465b      	mov	r3, fp
 8006426:	e7e5      	b.n	80063f4 <_strtod_l+0x84>
 8006428:	2100      	movs	r1, #0
 800642a:	e7ef      	b.n	800640c <_strtod_l+0x9c>
 800642c:	9a1a      	ldr	r2, [sp, #104]	@ 0x68
 800642e:	b13a      	cbz	r2, 8006440 <_strtod_l+0xd0>
 8006430:	2135      	movs	r1, #53	@ 0x35
 8006432:	a81c      	add	r0, sp, #112	@ 0x70
 8006434:	f7ff ff3a 	bl	80062ac <__copybits>
 8006438:	991a      	ldr	r1, [sp, #104]	@ 0x68
 800643a:	9805      	ldr	r0, [sp, #20]
 800643c:	f7ff fb08 	bl	8005a50 <_Bfree>
 8006440:	3e01      	subs	r6, #1
 8006442:	9a1b      	ldr	r2, [sp, #108]	@ 0x6c
 8006444:	2e04      	cmp	r6, #4
 8006446:	d806      	bhi.n	8006456 <_strtod_l+0xe6>
 8006448:	e8df f006 	tbb	[pc, r6]
 800644c:	201d0314 	.word	0x201d0314
 8006450:	14          	.byte	0x14
 8006451:	00          	.byte	0x00
 8006452:	e9dd ab1c 	ldrd	sl, fp, [sp, #112]	@ 0x70
 8006456:	05e1      	lsls	r1, r4, #23
 8006458:	bf48      	it	mi
 800645a:	f04b 4b00 	orrmi.w	fp, fp, #2147483648	@ 0x80000000
 800645e:	f02b 4300 	bic.w	r3, fp, #2147483648	@ 0x80000000
 8006462:	0d1b      	lsrs	r3, r3, #20
 8006464:	051b      	lsls	r3, r3, #20
 8006466:	2b00      	cmp	r3, #0
 8006468:	d1bb      	bne.n	80063e2 <_strtod_l+0x72>
 800646a:	f7fe fb31 	bl	8004ad0 <__errno>
 800646e:	2322      	movs	r3, #34	@ 0x22
 8006470:	6003      	str	r3, [r0, #0]
 8006472:	e7b6      	b.n	80063e2 <_strtod_l+0x72>
 8006474:	e9dd a31c 	ldrd	sl, r3, [sp, #112]	@ 0x70
 8006478:	f202 4233 	addw	r2, r2, #1075	@ 0x433
 800647c:	f423 1380 	bic.w	r3, r3, #1048576	@ 0x100000
 8006480:	ea43 5b02 	orr.w	fp, r3, r2, lsl #20
 8006484:	e7e7      	b.n	8006456 <_strtod_l+0xe6>
 8006486:	f8df b17c 	ldr.w	fp, [pc, #380]	@ 8006604 <_strtod_l+0x294>
 800648a:	e7e4      	b.n	8006456 <_strtod_l+0xe6>
 800648c:	f06f 4b00 	mvn.w	fp, #2147483648	@ 0x80000000
 8006490:	f04f 3aff 	mov.w	sl, #4294967295
 8006494:	e7df      	b.n	8006456 <_strtod_l+0xe6>
 8006496:	9b19      	ldr	r3, [sp, #100]	@ 0x64
 8006498:	1c5a      	adds	r2, r3, #1
 800649a:	9219      	str	r2, [sp, #100]	@ 0x64
 800649c:	785b      	ldrb	r3, [r3, #1]
 800649e:	2b30      	cmp	r3, #48	@ 0x30
 80064a0:	d0f9      	beq.n	8006496 <_strtod_l+0x126>
 80064a2:	2b00      	cmp	r3, #0
 80064a4:	d09d      	beq.n	80063e2 <_strtod_l+0x72>
 80064a6:	2301      	movs	r3, #1
 80064a8:	9309      	str	r3, [sp, #36]	@ 0x24
 80064aa:	9b19      	ldr	r3, [sp, #100]	@ 0x64
 80064ac:	930c      	str	r3, [sp, #48]	@ 0x30
 80064ae:	2300      	movs	r3, #0
 80064b0:	9308      	str	r3, [sp, #32]
 80064b2:	930a      	str	r3, [sp, #40]	@ 0x28
 80064b4:	461f      	mov	r7, r3
 80064b6:	220a      	movs	r2, #10
 80064b8:	9819      	ldr	r0, [sp, #100]	@ 0x64
 80064ba:	7805      	ldrb	r5, [r0, #0]
 80064bc:	f1a5 0330 	sub.w	r3, r5, #48	@ 0x30
 80064c0:	b2d9      	uxtb	r1, r3
 80064c2:	2909      	cmp	r1, #9
 80064c4:	d928      	bls.n	8006518 <_strtod_l+0x1a8>
 80064c6:	494e      	ldr	r1, [pc, #312]	@ (8006600 <_strtod_l+0x290>)
 80064c8:	2201      	movs	r2, #1
 80064ca:	f001 f979 	bl	80077c0 <strncmp>
 80064ce:	2800      	cmp	r0, #0
 80064d0:	d032      	beq.n	8006538 <_strtod_l+0x1c8>
 80064d2:	2000      	movs	r0, #0
 80064d4:	462a      	mov	r2, r5
 80064d6:	4681      	mov	r9, r0
 80064d8:	463d      	mov	r5, r7
 80064da:	4603      	mov	r3, r0
 80064dc:	2a65      	cmp	r2, #101	@ 0x65
 80064de:	d001      	beq.n	80064e4 <_strtod_l+0x174>
 80064e0:	2a45      	cmp	r2, #69	@ 0x45
 80064e2:	d114      	bne.n	800650e <_strtod_l+0x19e>
 80064e4:	b91d      	cbnz	r5, 80064ee <_strtod_l+0x17e>
 80064e6:	9a09      	ldr	r2, [sp, #36]	@ 0x24
 80064e8:	4302      	orrs	r2, r0
 80064ea:	d095      	beq.n	8006418 <_strtod_l+0xa8>
 80064ec:	2500      	movs	r5, #0
 80064ee:	9c19      	ldr	r4, [sp, #100]	@ 0x64
 80064f0:	1c62      	adds	r2, r4, #1
 80064f2:	9219      	str	r2, [sp, #100]	@ 0x64
 80064f4:	7862      	ldrb	r2, [r4, #1]
 80064f6:	2a2b      	cmp	r2, #43	@ 0x2b
 80064f8:	d077      	beq.n	80065ea <_strtod_l+0x27a>
 80064fa:	2a2d      	cmp	r2, #45	@ 0x2d
 80064fc:	d07b      	beq.n	80065f6 <_strtod_l+0x286>
 80064fe:	f04f 0c00 	mov.w	ip, #0
 8006502:	f1a2 0130 	sub.w	r1, r2, #48	@ 0x30
 8006506:	2909      	cmp	r1, #9
 8006508:	f240 8082 	bls.w	8006610 <_strtod_l+0x2a0>
 800650c:	9419      	str	r4, [sp, #100]	@ 0x64
 800650e:	f04f 0800 	mov.w	r8, #0
 8006512:	e0a2      	b.n	800665a <_strtod_l+0x2ea>
 8006514:	2300      	movs	r3, #0
 8006516:	e7c7      	b.n	80064a8 <_strtod_l+0x138>
 8006518:	2f08      	cmp	r7, #8
 800651a:	bfd5      	itete	le
 800651c:	990a      	ldrle	r1, [sp, #40]	@ 0x28
 800651e:	9908      	ldrgt	r1, [sp, #32]
 8006520:	fb02 3301 	mlale	r3, r2, r1, r3
 8006524:	fb02 3301 	mlagt	r3, r2, r1, r3
 8006528:	f100 0001 	add.w	r0, r0, #1
 800652c:	bfd4      	ite	le
 800652e:	930a      	strle	r3, [sp, #40]	@ 0x28
 8006530:	9308      	strgt	r3, [sp, #32]
 8006532:	3701      	adds	r7, #1
 8006534:	9019      	str	r0, [sp, #100]	@ 0x64
 8006536:	e7bf      	b.n	80064b8 <_strtod_l+0x148>
 8006538:	9b19      	ldr	r3, [sp, #100]	@ 0x64
 800653a:	1c5a      	adds	r2, r3, #1
 800653c:	9219      	str	r2, [sp, #100]	@ 0x64
 800653e:	785a      	ldrb	r2, [r3, #1]
 8006540:	b37f      	cbz	r7, 80065a2 <_strtod_l+0x232>
 8006542:	4681      	mov	r9, r0
 8006544:	463d      	mov	r5, r7
 8006546:	f1a2 0330 	sub.w	r3, r2, #48	@ 0x30
 800654a:	2b09      	cmp	r3, #9
 800654c:	d912      	bls.n	8006574 <_strtod_l+0x204>
 800654e:	2301      	movs	r3, #1
 8006550:	e7c4      	b.n	80064dc <_strtod_l+0x16c>
 8006552:	9b19      	ldr	r3, [sp, #100]	@ 0x64
 8006554:	1c5a      	adds	r2, r3, #1
 8006556:	9219      	str	r2, [sp, #100]	@ 0x64
 8006558:	785a      	ldrb	r2, [r3, #1]
 800655a:	3001      	adds	r0, #1
 800655c:	2a30      	cmp	r2, #48	@ 0x30
 800655e:	d0f8      	beq.n	8006552 <_strtod_l+0x1e2>
 8006560:	f1a2 0331 	sub.w	r3, r2, #49	@ 0x31
 8006564:	2b08      	cmp	r3, #8
 8006566:	f200 84d3 	bhi.w	8006f10 <_strtod_l+0xba0>
 800656a:	9b19      	ldr	r3, [sp, #100]	@ 0x64
 800656c:	930c      	str	r3, [sp, #48]	@ 0x30
 800656e:	4681      	mov	r9, r0
 8006570:	2000      	movs	r0, #0
 8006572:	4605      	mov	r5, r0
 8006574:	3a30      	subs	r2, #48	@ 0x30
 8006576:	f100 0301 	add.w	r3, r0, #1
 800657a:	d02a      	beq.n	80065d2 <_strtod_l+0x262>
 800657c:	4499      	add	r9, r3
 800657e:	eb00 0c05 	add.w	ip, r0, r5
 8006582:	462b      	mov	r3, r5
 8006584:	210a      	movs	r1, #10
 8006586:	4563      	cmp	r3, ip
 8006588:	d10d      	bne.n	80065a6 <_strtod_l+0x236>
 800658a:	1c69      	adds	r1, r5, #1
 800658c:	4401      	add	r1, r0
 800658e:	4428      	add	r0, r5
 8006590:	2808      	cmp	r0, #8
 8006592:	dc16      	bgt.n	80065c2 <_strtod_l+0x252>
 8006594:	980a      	ldr	r0, [sp, #40]	@ 0x28
 8006596:	230a      	movs	r3, #10
 8006598:	fb03 2300 	mla	r3, r3, r0, r2
 800659c:	930a      	str	r3, [sp, #40]	@ 0x28
 800659e:	2300      	movs	r3, #0
 80065a0:	e018      	b.n	80065d4 <_strtod_l+0x264>
 80065a2:	4638      	mov	r0, r7
 80065a4:	e7da      	b.n	800655c <_strtod_l+0x1ec>
 80065a6:	2b08      	cmp	r3, #8
 80065a8:	f103 0301 	add.w	r3, r3, #1
 80065ac:	dc03      	bgt.n	80065b6 <_strtod_l+0x246>
 80065ae:	9e0a      	ldr	r6, [sp, #40]	@ 0x28
 80065b0:	434e      	muls	r6, r1
 80065b2:	960a      	str	r6, [sp, #40]	@ 0x28
 80065b4:	e7e7      	b.n	8006586 <_strtod_l+0x216>
 80065b6:	2b10      	cmp	r3, #16
 80065b8:	bfde      	ittt	le
 80065ba:	9e08      	ldrle	r6, [sp, #32]
 80065bc:	434e      	mulle	r6, r1
 80065be:	9608      	strle	r6, [sp, #32]
 80065c0:	e7e1      	b.n	8006586 <_strtod_l+0x216>
 80065c2:	280f      	cmp	r0, #15
 80065c4:	dceb      	bgt.n	800659e <_strtod_l+0x22e>
 80065c6:	9808      	ldr	r0, [sp, #32]
 80065c8:	230a      	movs	r3, #10
 80065ca:	fb03 2300 	mla	r3, r3, r0, r2
 80065ce:	9308      	str	r3, [sp, #32]
 80065d0:	e7e5      	b.n	800659e <_strtod_l+0x22e>
 80065d2:	4629      	mov	r1, r5
 80065d4:	9a19      	ldr	r2, [sp, #100]	@ 0x64
 80065d6:	1c50      	adds	r0, r2, #1
 80065d8:	9019      	str	r0, [sp, #100]	@ 0x64
 80065da:	7852      	ldrb	r2, [r2, #1]
 80065dc:	4618      	mov	r0, r3
 80065de:	460d      	mov	r5, r1
 80065e0:	e7b1      	b.n	8006546 <_strtod_l+0x1d6>
 80065e2:	f04f 0900 	mov.w	r9, #0
 80065e6:	2301      	movs	r3, #1
 80065e8:	e77d      	b.n	80064e6 <_strtod_l+0x176>
 80065ea:	f04f 0c00 	mov.w	ip, #0
 80065ee:	1ca2      	adds	r2, r4, #2
 80065f0:	9219      	str	r2, [sp, #100]	@ 0x64
 80065f2:	78a2      	ldrb	r2, [r4, #2]
 80065f4:	e785      	b.n	8006502 <_strtod_l+0x192>
 80065f6:	f04f 0c01 	mov.w	ip, #1
 80065fa:	e7f8      	b.n	80065ee <_strtod_l+0x27e>
 80065fc:	08008770 	.word	0x08008770
 8006600:	08008758 	.word	0x08008758
 8006604:	7ff00000 	.word	0x7ff00000
 8006608:	9a19      	ldr	r2, [sp, #100]	@ 0x64
 800660a:	1c51      	adds	r1, r2, #1
 800660c:	9119      	str	r1, [sp, #100]	@ 0x64
 800660e:	7852      	ldrb	r2, [r2, #1]
 8006610:	2a30      	cmp	r2, #48	@ 0x30
 8006612:	d0f9      	beq.n	8006608 <_strtod_l+0x298>
 8006614:	f1a2 0131 	sub.w	r1, r2, #49	@ 0x31
 8006618:	2908      	cmp	r1, #8
 800661a:	f63f af78 	bhi.w	800650e <_strtod_l+0x19e>
 800661e:	3a30      	subs	r2, #48	@ 0x30
 8006620:	920e      	str	r2, [sp, #56]	@ 0x38
 8006622:	9a19      	ldr	r2, [sp, #100]	@ 0x64
 8006624:	920f      	str	r2, [sp, #60]	@ 0x3c
 8006626:	f04f 080a 	mov.w	r8, #10
 800662a:	9a19      	ldr	r2, [sp, #100]	@ 0x64
 800662c:	1c56      	adds	r6, r2, #1
 800662e:	9619      	str	r6, [sp, #100]	@ 0x64
 8006630:	7852      	ldrb	r2, [r2, #1]
 8006632:	f1a2 0e30 	sub.w	lr, r2, #48	@ 0x30
 8006636:	f1be 0f09 	cmp.w	lr, #9
 800663a:	d939      	bls.n	80066b0 <_strtod_l+0x340>
 800663c:	990f      	ldr	r1, [sp, #60]	@ 0x3c
 800663e:	1a76      	subs	r6, r6, r1
 8006640:	2e08      	cmp	r6, #8
 8006642:	f644 681f 	movw	r8, #19999	@ 0x4e1f
 8006646:	dc03      	bgt.n	8006650 <_strtod_l+0x2e0>
 8006648:	990e      	ldr	r1, [sp, #56]	@ 0x38
 800664a:	4588      	cmp	r8, r1
 800664c:	bfa8      	it	ge
 800664e:	4688      	movge	r8, r1
 8006650:	f1bc 0f00 	cmp.w	ip, #0
 8006654:	d001      	beq.n	800665a <_strtod_l+0x2ea>
 8006656:	f1c8 0800 	rsb	r8, r8, #0
 800665a:	2d00      	cmp	r5, #0
 800665c:	d14e      	bne.n	80066fc <_strtod_l+0x38c>
 800665e:	9909      	ldr	r1, [sp, #36]	@ 0x24
 8006660:	4308      	orrs	r0, r1
 8006662:	f47f aebe 	bne.w	80063e2 <_strtod_l+0x72>
 8006666:	2b00      	cmp	r3, #0
 8006668:	f47f aed6 	bne.w	8006418 <_strtod_l+0xa8>
 800666c:	2a69      	cmp	r2, #105	@ 0x69
 800666e:	d028      	beq.n	80066c2 <_strtod_l+0x352>
 8006670:	dc25      	bgt.n	80066be <_strtod_l+0x34e>
 8006672:	2a49      	cmp	r2, #73	@ 0x49
 8006674:	d025      	beq.n	80066c2 <_strtod_l+0x352>
 8006676:	2a4e      	cmp	r2, #78	@ 0x4e
 8006678:	f47f aece 	bne.w	8006418 <_strtod_l+0xa8>
 800667c:	499b      	ldr	r1, [pc, #620]	@ (80068ec <_strtod_l+0x57c>)
 800667e:	a819      	add	r0, sp, #100	@ 0x64
 8006680:	f001 fbb6 	bl	8007df0 <__match>
 8006684:	2800      	cmp	r0, #0
 8006686:	f43f aec7 	beq.w	8006418 <_strtod_l+0xa8>
 800668a:	9b19      	ldr	r3, [sp, #100]	@ 0x64
 800668c:	781b      	ldrb	r3, [r3, #0]
 800668e:	2b28      	cmp	r3, #40	@ 0x28
 8006690:	d12e      	bne.n	80066f0 <_strtod_l+0x380>
 8006692:	4997      	ldr	r1, [pc, #604]	@ (80068f0 <_strtod_l+0x580>)
 8006694:	aa1c      	add	r2, sp, #112	@ 0x70
 8006696:	a819      	add	r0, sp, #100	@ 0x64
 8006698:	f001 fbbe 	bl	8007e18 <__hexnan>
 800669c:	2805      	cmp	r0, #5
 800669e:	d127      	bne.n	80066f0 <_strtod_l+0x380>
 80066a0:	9b1d      	ldr	r3, [sp, #116]	@ 0x74
 80066a2:	f8dd a070 	ldr.w	sl, [sp, #112]	@ 0x70
 80066a6:	f043 4bff 	orr.w	fp, r3, #2139095040	@ 0x7f800000
 80066aa:	f44b 0be0 	orr.w	fp, fp, #7340032	@ 0x700000
 80066ae:	e698      	b.n	80063e2 <_strtod_l+0x72>
 80066b0:	990e      	ldr	r1, [sp, #56]	@ 0x38
 80066b2:	fb08 2101 	mla	r1, r8, r1, r2
 80066b6:	f1a1 0230 	sub.w	r2, r1, #48	@ 0x30
 80066ba:	920e      	str	r2, [sp, #56]	@ 0x38
 80066bc:	e7b5      	b.n	800662a <_strtod_l+0x2ba>
 80066be:	2a6e      	cmp	r2, #110	@ 0x6e
 80066c0:	e7da      	b.n	8006678 <_strtod_l+0x308>
 80066c2:	498c      	ldr	r1, [pc, #560]	@ (80068f4 <_strtod_l+0x584>)
 80066c4:	a819      	add	r0, sp, #100	@ 0x64
 80066c6:	f001 fb93 	bl	8007df0 <__match>
 80066ca:	2800      	cmp	r0, #0
 80066cc:	f43f aea4 	beq.w	8006418 <_strtod_l+0xa8>
 80066d0:	9b19      	ldr	r3, [sp, #100]	@ 0x64
 80066d2:	4989      	ldr	r1, [pc, #548]	@ (80068f8 <_strtod_l+0x588>)
 80066d4:	3b01      	subs	r3, #1
 80066d6:	a819      	add	r0, sp, #100	@ 0x64
 80066d8:	9319      	str	r3, [sp, #100]	@ 0x64
 80066da:	f001 fb89 	bl	8007df0 <__match>
 80066de:	b910      	cbnz	r0, 80066e6 <_strtod_l+0x376>
 80066e0:	9b19      	ldr	r3, [sp, #100]	@ 0x64
 80066e2:	3301      	adds	r3, #1
 80066e4:	9319      	str	r3, [sp, #100]	@ 0x64
 80066e6:	f8df b220 	ldr.w	fp, [pc, #544]	@ 8006908 <_strtod_l+0x598>
 80066ea:	f04f 0a00 	mov.w	sl, #0
 80066ee:	e678      	b.n	80063e2 <_strtod_l+0x72>
 80066f0:	4882      	ldr	r0, [pc, #520]	@ (80068fc <_strtod_l+0x58c>)
 80066f2:	f001 f8b9 	bl	8007868 <nan>
 80066f6:	ec5b ab10 	vmov	sl, fp, d0
 80066fa:	e672      	b.n	80063e2 <_strtod_l+0x72>
 80066fc:	eba8 0309 	sub.w	r3, r8, r9
 8006700:	980a      	ldr	r0, [sp, #40]	@ 0x28
 8006702:	9309      	str	r3, [sp, #36]	@ 0x24
 8006704:	2f00      	cmp	r7, #0
 8006706:	bf08      	it	eq
 8006708:	462f      	moveq	r7, r5
 800670a:	2d10      	cmp	r5, #16
 800670c:	462c      	mov	r4, r5
 800670e:	bfa8      	it	ge
 8006710:	2410      	movge	r4, #16
 8006712:	f7f9 feff 	bl	8000514 <__aeabi_ui2d>
 8006716:	2d09      	cmp	r5, #9
 8006718:	4682      	mov	sl, r0
 800671a:	468b      	mov	fp, r1
 800671c:	dc13      	bgt.n	8006746 <_strtod_l+0x3d6>
 800671e:	9b09      	ldr	r3, [sp, #36]	@ 0x24
 8006720:	2b00      	cmp	r3, #0
 8006722:	f43f ae5e 	beq.w	80063e2 <_strtod_l+0x72>
 8006726:	9b09      	ldr	r3, [sp, #36]	@ 0x24
 8006728:	dd78      	ble.n	800681c <_strtod_l+0x4ac>
 800672a:	2b16      	cmp	r3, #22
 800672c:	dc5f      	bgt.n	80067ee <_strtod_l+0x47e>
 800672e:	4974      	ldr	r1, [pc, #464]	@ (8006900 <_strtod_l+0x590>)
 8006730:	eb01 01c3 	add.w	r1, r1, r3, lsl #3
 8006734:	e9d1 0100 	ldrd	r0, r1, [r1]
 8006738:	4652      	mov	r2, sl
 800673a:	465b      	mov	r3, fp
 800673c:	f7f9 ff64 	bl	8000608 <__aeabi_dmul>
 8006740:	4682      	mov	sl, r0
 8006742:	468b      	mov	fp, r1
 8006744:	e64d      	b.n	80063e2 <_strtod_l+0x72>
 8006746:	4b6e      	ldr	r3, [pc, #440]	@ (8006900 <_strtod_l+0x590>)
 8006748:	eb03 03c4 	add.w	r3, r3, r4, lsl #3
 800674c:	e953 2312 	ldrd	r2, r3, [r3, #-72]	@ 0x48
 8006750:	f7f9 ff5a 	bl	8000608 <__aeabi_dmul>
 8006754:	4682      	mov	sl, r0
 8006756:	9808      	ldr	r0, [sp, #32]
 8006758:	468b      	mov	fp, r1
 800675a:	f7f9 fedb 	bl	8000514 <__aeabi_ui2d>
 800675e:	4602      	mov	r2, r0
 8006760:	460b      	mov	r3, r1
 8006762:	4650      	mov	r0, sl
 8006764:	4659      	mov	r1, fp
 8006766:	f7f9 fd99 	bl	800029c <__adddf3>
 800676a:	2d0f      	cmp	r5, #15
 800676c:	4682      	mov	sl, r0
 800676e:	468b      	mov	fp, r1
 8006770:	ddd5      	ble.n	800671e <_strtod_l+0x3ae>
 8006772:	9b09      	ldr	r3, [sp, #36]	@ 0x24
 8006774:	1b2c      	subs	r4, r5, r4
 8006776:	441c      	add	r4, r3
 8006778:	2c00      	cmp	r4, #0
 800677a:	f340 8096 	ble.w	80068aa <_strtod_l+0x53a>
 800677e:	f014 030f 	ands.w	r3, r4, #15
 8006782:	d00a      	beq.n	800679a <_strtod_l+0x42a>
 8006784:	495e      	ldr	r1, [pc, #376]	@ (8006900 <_strtod_l+0x590>)
 8006786:	eb01 01c3 	add.w	r1, r1, r3, lsl #3
 800678a:	4652      	mov	r2, sl
 800678c:	465b      	mov	r3, fp
 800678e:	e9d1 0100 	ldrd	r0, r1, [r1]
 8006792:	f7f9 ff39 	bl	8000608 <__aeabi_dmul>
 8006796:	4682      	mov	sl, r0
 8006798:	468b      	mov	fp, r1
 800679a:	f034 040f 	bics.w	r4, r4, #15
 800679e:	d073      	beq.n	8006888 <_strtod_l+0x518>
 80067a0:	f5b4 7f9a 	cmp.w	r4, #308	@ 0x134
 80067a4:	dd48      	ble.n	8006838 <_strtod_l+0x4c8>
 80067a6:	2400      	movs	r4, #0
 80067a8:	46a0      	mov	r8, r4
 80067aa:	940a      	str	r4, [sp, #40]	@ 0x28
 80067ac:	46a1      	mov	r9, r4
 80067ae:	9a05      	ldr	r2, [sp, #20]
 80067b0:	f8df b154 	ldr.w	fp, [pc, #340]	@ 8006908 <_strtod_l+0x598>
 80067b4:	2322      	movs	r3, #34	@ 0x22
 80067b6:	6013      	str	r3, [r2, #0]
 80067b8:	f04f 0a00 	mov.w	sl, #0
 80067bc:	9b0a      	ldr	r3, [sp, #40]	@ 0x28
 80067be:	2b00      	cmp	r3, #0
 80067c0:	f43f ae0f 	beq.w	80063e2 <_strtod_l+0x72>
 80067c4:	991a      	ldr	r1, [sp, #104]	@ 0x68
 80067c6:	9805      	ldr	r0, [sp, #20]
 80067c8:	f7ff f942 	bl	8005a50 <_Bfree>
 80067cc:	9805      	ldr	r0, [sp, #20]
 80067ce:	4649      	mov	r1, r9
 80067d0:	f7ff f93e 	bl	8005a50 <_Bfree>
 80067d4:	9805      	ldr	r0, [sp, #20]
 80067d6:	4641      	mov	r1, r8
 80067d8:	f7ff f93a 	bl	8005a50 <_Bfree>
 80067dc:	990a      	ldr	r1, [sp, #40]	@ 0x28
 80067de:	9805      	ldr	r0, [sp, #20]
 80067e0:	f7ff f936 	bl	8005a50 <_Bfree>
 80067e4:	9805      	ldr	r0, [sp, #20]
 80067e6:	4621      	mov	r1, r4
 80067e8:	f7ff f932 	bl	8005a50 <_Bfree>
 80067ec:	e5f9      	b.n	80063e2 <_strtod_l+0x72>
 80067ee:	9a09      	ldr	r2, [sp, #36]	@ 0x24
 80067f0:	f1c5 0325 	rsb	r3, r5, #37	@ 0x25
 80067f4:	4293      	cmp	r3, r2
 80067f6:	dbbc      	blt.n	8006772 <_strtod_l+0x402>
 80067f8:	4c41      	ldr	r4, [pc, #260]	@ (8006900 <_strtod_l+0x590>)
 80067fa:	f1c5 050f 	rsb	r5, r5, #15
 80067fe:	eb04 01c5 	add.w	r1, r4, r5, lsl #3
 8006802:	4652      	mov	r2, sl
 8006804:	465b      	mov	r3, fp
 8006806:	e9d1 0100 	ldrd	r0, r1, [r1]
 800680a:	f7f9 fefd 	bl	8000608 <__aeabi_dmul>
 800680e:	9b09      	ldr	r3, [sp, #36]	@ 0x24
 8006810:	1b5d      	subs	r5, r3, r5
 8006812:	eb04 04c5 	add.w	r4, r4, r5, lsl #3
 8006816:	e9d4 2300 	ldrd	r2, r3, [r4]
 800681a:	e78f      	b.n	800673c <_strtod_l+0x3cc>
 800681c:	3316      	adds	r3, #22
 800681e:	dba8      	blt.n	8006772 <_strtod_l+0x402>
 8006820:	4b37      	ldr	r3, [pc, #220]	@ (8006900 <_strtod_l+0x590>)
 8006822:	eba9 0808 	sub.w	r8, r9, r8
 8006826:	eb03 08c8 	add.w	r8, r3, r8, lsl #3
 800682a:	e9d8 2300 	ldrd	r2, r3, [r8]
 800682e:	4650      	mov	r0, sl
 8006830:	4659      	mov	r1, fp
 8006832:	f7fa f813 	bl	800085c <__aeabi_ddiv>
 8006836:	e783      	b.n	8006740 <_strtod_l+0x3d0>
 8006838:	4b32      	ldr	r3, [pc, #200]	@ (8006904 <_strtod_l+0x594>)
 800683a:	9308      	str	r3, [sp, #32]
 800683c:	2300      	movs	r3, #0
 800683e:	1124      	asrs	r4, r4, #4
 8006840:	4650      	mov	r0, sl
 8006842:	4659      	mov	r1, fp
 8006844:	461e      	mov	r6, r3
 8006846:	2c01      	cmp	r4, #1
 8006848:	dc21      	bgt.n	800688e <_strtod_l+0x51e>
 800684a:	b10b      	cbz	r3, 8006850 <_strtod_l+0x4e0>
 800684c:	4682      	mov	sl, r0
 800684e:	468b      	mov	fp, r1
 8006850:	492c      	ldr	r1, [pc, #176]	@ (8006904 <_strtod_l+0x594>)
 8006852:	f1ab 7b54 	sub.w	fp, fp, #55574528	@ 0x3500000
 8006856:	eb01 01c6 	add.w	r1, r1, r6, lsl #3
 800685a:	4652      	mov	r2, sl
 800685c:	465b      	mov	r3, fp
 800685e:	e9d1 0100 	ldrd	r0, r1, [r1]
 8006862:	f7f9 fed1 	bl	8000608 <__aeabi_dmul>
 8006866:	4b28      	ldr	r3, [pc, #160]	@ (8006908 <_strtod_l+0x598>)
 8006868:	460a      	mov	r2, r1
 800686a:	400b      	ands	r3, r1
 800686c:	4927      	ldr	r1, [pc, #156]	@ (800690c <_strtod_l+0x59c>)
 800686e:	428b      	cmp	r3, r1
 8006870:	4682      	mov	sl, r0
 8006872:	d898      	bhi.n	80067a6 <_strtod_l+0x436>
 8006874:	f5a1 1180 	sub.w	r1, r1, #1048576	@ 0x100000
 8006878:	428b      	cmp	r3, r1
 800687a:	bf86      	itte	hi
 800687c:	f8df b090 	ldrhi.w	fp, [pc, #144]	@ 8006910 <_strtod_l+0x5a0>
 8006880:	f04f 3aff 	movhi.w	sl, #4294967295
 8006884:	f102 7b54 	addls.w	fp, r2, #55574528	@ 0x3500000
 8006888:	2300      	movs	r3, #0
 800688a:	9308      	str	r3, [sp, #32]
 800688c:	e07a      	b.n	8006984 <_strtod_l+0x614>
 800688e:	07e2      	lsls	r2, r4, #31
 8006890:	d505      	bpl.n	800689e <_strtod_l+0x52e>
 8006892:	9b08      	ldr	r3, [sp, #32]
 8006894:	e9d3 2300 	ldrd	r2, r3, [r3]
 8006898:	f7f9 feb6 	bl	8000608 <__aeabi_dmul>
 800689c:	2301      	movs	r3, #1
 800689e:	9a08      	ldr	r2, [sp, #32]
 80068a0:	3208      	adds	r2, #8
 80068a2:	3601      	adds	r6, #1
 80068a4:	1064      	asrs	r4, r4, #1
 80068a6:	9208      	str	r2, [sp, #32]
 80068a8:	e7cd      	b.n	8006846 <_strtod_l+0x4d6>
 80068aa:	d0ed      	beq.n	8006888 <_strtod_l+0x518>
 80068ac:	4264      	negs	r4, r4
 80068ae:	f014 020f 	ands.w	r2, r4, #15
 80068b2:	d00a      	beq.n	80068ca <_strtod_l+0x55a>
 80068b4:	4b12      	ldr	r3, [pc, #72]	@ (8006900 <_strtod_l+0x590>)
 80068b6:	eb03 03c2 	add.w	r3, r3, r2, lsl #3
 80068ba:	4650      	mov	r0, sl
 80068bc:	4659      	mov	r1, fp
 80068be:	e9d3 2300 	ldrd	r2, r3, [r3]
 80068c2:	f7f9 ffcb 	bl	800085c <__aeabi_ddiv>
 80068c6:	4682      	mov	sl, r0
 80068c8:	468b      	mov	fp, r1
 80068ca:	1124      	asrs	r4, r4, #4
 80068cc:	d0dc      	beq.n	8006888 <_strtod_l+0x518>
 80068ce:	2c1f      	cmp	r4, #31
 80068d0:	dd20      	ble.n	8006914 <_strtod_l+0x5a4>
 80068d2:	2400      	movs	r4, #0
 80068d4:	46a0      	mov	r8, r4
 80068d6:	940a      	str	r4, [sp, #40]	@ 0x28
 80068d8:	46a1      	mov	r9, r4
 80068da:	9a05      	ldr	r2, [sp, #20]
 80068dc:	2322      	movs	r3, #34	@ 0x22
 80068de:	f04f 0a00 	mov.w	sl, #0
 80068e2:	f04f 0b00 	mov.w	fp, #0
 80068e6:	6013      	str	r3, [r2, #0]
 80068e8:	e768      	b.n	80067bc <_strtod_l+0x44c>
 80068ea:	bf00      	nop
 80068ec:	08008549 	.word	0x08008549
 80068f0:	0800875c 	.word	0x0800875c
 80068f4:	08008541 	.word	0x08008541
 80068f8:	08008578 	.word	0x08008578
 80068fc:	08008905 	.word	0x08008905
 8006900:	08008690 	.word	0x08008690
 8006904:	08008668 	.word	0x08008668
 8006908:	7ff00000 	.word	0x7ff00000
 800690c:	7ca00000 	.word	0x7ca00000
 8006910:	7fefffff 	.word	0x7fefffff
 8006914:	f014 0310 	ands.w	r3, r4, #16
 8006918:	bf18      	it	ne
 800691a:	236a      	movne	r3, #106	@ 0x6a
 800691c:	4ea9      	ldr	r6, [pc, #676]	@ (8006bc4 <_strtod_l+0x854>)
 800691e:	9308      	str	r3, [sp, #32]
 8006920:	4650      	mov	r0, sl
 8006922:	4659      	mov	r1, fp
 8006924:	2300      	movs	r3, #0
 8006926:	07e2      	lsls	r2, r4, #31
 8006928:	d504      	bpl.n	8006934 <_strtod_l+0x5c4>
 800692a:	e9d6 2300 	ldrd	r2, r3, [r6]
 800692e:	f7f9 fe6b 	bl	8000608 <__aeabi_dmul>
 8006932:	2301      	movs	r3, #1
 8006934:	1064      	asrs	r4, r4, #1
 8006936:	f106 0608 	add.w	r6, r6, #8
 800693a:	d1f4      	bne.n	8006926 <_strtod_l+0x5b6>
 800693c:	b10b      	cbz	r3, 8006942 <_strtod_l+0x5d2>
 800693e:	4682      	mov	sl, r0
 8006940:	468b      	mov	fp, r1
 8006942:	9b08      	ldr	r3, [sp, #32]
 8006944:	b1b3      	cbz	r3, 8006974 <_strtod_l+0x604>
 8006946:	f3cb 520a 	ubfx	r2, fp, #20, #11
 800694a:	f1c2 036b 	rsb	r3, r2, #107	@ 0x6b
 800694e:	2b00      	cmp	r3, #0
 8006950:	4659      	mov	r1, fp
 8006952:	dd0f      	ble.n	8006974 <_strtod_l+0x604>
 8006954:	2b1f      	cmp	r3, #31
 8006956:	dd55      	ble.n	8006a04 <_strtod_l+0x694>
 8006958:	2b34      	cmp	r3, #52	@ 0x34
 800695a:	bfde      	ittt	le
 800695c:	f04f 33ff 	movle.w	r3, #4294967295
 8006960:	f1c2 024b 	rsble	r2, r2, #75	@ 0x4b
 8006964:	4093      	lslle	r3, r2
 8006966:	f04f 0a00 	mov.w	sl, #0
 800696a:	bfcc      	ite	gt
 800696c:	f04f 7b5c 	movgt.w	fp, #57671680	@ 0x3700000
 8006970:	ea03 0b01 	andle.w	fp, r3, r1
 8006974:	2200      	movs	r2, #0
 8006976:	2300      	movs	r3, #0
 8006978:	4650      	mov	r0, sl
 800697a:	4659      	mov	r1, fp
 800697c:	f7fa f8ac 	bl	8000ad8 <__aeabi_dcmpeq>
 8006980:	2800      	cmp	r0, #0
 8006982:	d1a6      	bne.n	80068d2 <_strtod_l+0x562>
 8006984:	9b0a      	ldr	r3, [sp, #40]	@ 0x28
 8006986:	9300      	str	r3, [sp, #0]
 8006988:	990c      	ldr	r1, [sp, #48]	@ 0x30
 800698a:	9805      	ldr	r0, [sp, #20]
 800698c:	462b      	mov	r3, r5
 800698e:	463a      	mov	r2, r7
 8006990:	f7ff f8c6 	bl	8005b20 <__s2b>
 8006994:	900a      	str	r0, [sp, #40]	@ 0x28
 8006996:	2800      	cmp	r0, #0
 8006998:	f43f af05 	beq.w	80067a6 <_strtod_l+0x436>
 800699c:	9a09      	ldr	r2, [sp, #36]	@ 0x24
 800699e:	2a00      	cmp	r2, #0
 80069a0:	eba9 0308 	sub.w	r3, r9, r8
 80069a4:	bfa8      	it	ge
 80069a6:	2300      	movge	r3, #0
 80069a8:	9312      	str	r3, [sp, #72]	@ 0x48
 80069aa:	2400      	movs	r4, #0
 80069ac:	ea22 73e2 	bic.w	r3, r2, r2, asr #31
 80069b0:	9316      	str	r3, [sp, #88]	@ 0x58
 80069b2:	46a0      	mov	r8, r4
 80069b4:	9b0a      	ldr	r3, [sp, #40]	@ 0x28
 80069b6:	9805      	ldr	r0, [sp, #20]
 80069b8:	6859      	ldr	r1, [r3, #4]
 80069ba:	f7ff f809 	bl	80059d0 <_Balloc>
 80069be:	4681      	mov	r9, r0
 80069c0:	2800      	cmp	r0, #0
 80069c2:	f43f aef4 	beq.w	80067ae <_strtod_l+0x43e>
 80069c6:	9b0a      	ldr	r3, [sp, #40]	@ 0x28
 80069c8:	691a      	ldr	r2, [r3, #16]
 80069ca:	3202      	adds	r2, #2
 80069cc:	f103 010c 	add.w	r1, r3, #12
 80069d0:	0092      	lsls	r2, r2, #2
 80069d2:	300c      	adds	r0, #12
 80069d4:	f000 ff38 	bl	8007848 <memcpy>
 80069d8:	ec4b ab10 	vmov	d0, sl, fp
 80069dc:	9805      	ldr	r0, [sp, #20]
 80069de:	aa1c      	add	r2, sp, #112	@ 0x70
 80069e0:	a91b      	add	r1, sp, #108	@ 0x6c
 80069e2:	e9cd ab0c 	strd	sl, fp, [sp, #48]	@ 0x30
 80069e6:	f7ff fbd7 	bl	8006198 <__d2b>
 80069ea:	901a      	str	r0, [sp, #104]	@ 0x68
 80069ec:	2800      	cmp	r0, #0
 80069ee:	f43f aede 	beq.w	80067ae <_strtod_l+0x43e>
 80069f2:	9805      	ldr	r0, [sp, #20]
 80069f4:	2101      	movs	r1, #1
 80069f6:	f7ff f929 	bl	8005c4c <__i2b>
 80069fa:	4680      	mov	r8, r0
 80069fc:	b948      	cbnz	r0, 8006a12 <_strtod_l+0x6a2>
 80069fe:	f04f 0800 	mov.w	r8, #0
 8006a02:	e6d4      	b.n	80067ae <_strtod_l+0x43e>
 8006a04:	f04f 32ff 	mov.w	r2, #4294967295
 8006a08:	fa02 f303 	lsl.w	r3, r2, r3
 8006a0c:	ea03 0a0a 	and.w	sl, r3, sl
 8006a10:	e7b0      	b.n	8006974 <_strtod_l+0x604>
 8006a12:	9d1b      	ldr	r5, [sp, #108]	@ 0x6c
 8006a14:	9a1c      	ldr	r2, [sp, #112]	@ 0x70
 8006a16:	2d00      	cmp	r5, #0
 8006a18:	bfab      	itete	ge
 8006a1a:	9b12      	ldrge	r3, [sp, #72]	@ 0x48
 8006a1c:	9b16      	ldrlt	r3, [sp, #88]	@ 0x58
 8006a1e:	9e16      	ldrge	r6, [sp, #88]	@ 0x58
 8006a20:	9f12      	ldrlt	r7, [sp, #72]	@ 0x48
 8006a22:	bfac      	ite	ge
 8006a24:	18ef      	addge	r7, r5, r3
 8006a26:	1b5e      	sublt	r6, r3, r5
 8006a28:	9b08      	ldr	r3, [sp, #32]
 8006a2a:	1aed      	subs	r5, r5, r3
 8006a2c:	4415      	add	r5, r2
 8006a2e:	4b66      	ldr	r3, [pc, #408]	@ (8006bc8 <_strtod_l+0x858>)
 8006a30:	3d01      	subs	r5, #1
 8006a32:	429d      	cmp	r5, r3
 8006a34:	f1c2 0236 	rsb	r2, r2, #54	@ 0x36
 8006a38:	da50      	bge.n	8006adc <_strtod_l+0x76c>
 8006a3a:	1b5b      	subs	r3, r3, r5
 8006a3c:	2b1f      	cmp	r3, #31
 8006a3e:	eba2 0203 	sub.w	r2, r2, r3
 8006a42:	f04f 0101 	mov.w	r1, #1
 8006a46:	dc3d      	bgt.n	8006ac4 <_strtod_l+0x754>
 8006a48:	fa01 f303 	lsl.w	r3, r1, r3
 8006a4c:	9313      	str	r3, [sp, #76]	@ 0x4c
 8006a4e:	2300      	movs	r3, #0
 8006a50:	9310      	str	r3, [sp, #64]	@ 0x40
 8006a52:	18bd      	adds	r5, r7, r2
 8006a54:	9b08      	ldr	r3, [sp, #32]
 8006a56:	42af      	cmp	r7, r5
 8006a58:	4416      	add	r6, r2
 8006a5a:	441e      	add	r6, r3
 8006a5c:	463b      	mov	r3, r7
 8006a5e:	bfa8      	it	ge
 8006a60:	462b      	movge	r3, r5
 8006a62:	42b3      	cmp	r3, r6
 8006a64:	bfa8      	it	ge
 8006a66:	4633      	movge	r3, r6
 8006a68:	2b00      	cmp	r3, #0
 8006a6a:	bfc2      	ittt	gt
 8006a6c:	1aed      	subgt	r5, r5, r3
 8006a6e:	1af6      	subgt	r6, r6, r3
 8006a70:	1aff      	subgt	r7, r7, r3
 8006a72:	9b12      	ldr	r3, [sp, #72]	@ 0x48
 8006a74:	2b00      	cmp	r3, #0
 8006a76:	dd16      	ble.n	8006aa6 <_strtod_l+0x736>
 8006a78:	4641      	mov	r1, r8
 8006a7a:	9805      	ldr	r0, [sp, #20]
 8006a7c:	461a      	mov	r2, r3
 8006a7e:	f7ff f9a5 	bl	8005dcc <__pow5mult>
 8006a82:	4680      	mov	r8, r0
 8006a84:	2800      	cmp	r0, #0
 8006a86:	d0ba      	beq.n	80069fe <_strtod_l+0x68e>
 8006a88:	4601      	mov	r1, r0
 8006a8a:	9a1a      	ldr	r2, [sp, #104]	@ 0x68
 8006a8c:	9805      	ldr	r0, [sp, #20]
 8006a8e:	f7ff f8f3 	bl	8005c78 <__multiply>
 8006a92:	900e      	str	r0, [sp, #56]	@ 0x38
 8006a94:	2800      	cmp	r0, #0
 8006a96:	f43f ae8a 	beq.w	80067ae <_strtod_l+0x43e>
 8006a9a:	991a      	ldr	r1, [sp, #104]	@ 0x68
 8006a9c:	9805      	ldr	r0, [sp, #20]
 8006a9e:	f7fe ffd7 	bl	8005a50 <_Bfree>
 8006aa2:	9b0e      	ldr	r3, [sp, #56]	@ 0x38
 8006aa4:	931a      	str	r3, [sp, #104]	@ 0x68
 8006aa6:	2d00      	cmp	r5, #0
 8006aa8:	dc1d      	bgt.n	8006ae6 <_strtod_l+0x776>
 8006aaa:	9b09      	ldr	r3, [sp, #36]	@ 0x24
 8006aac:	2b00      	cmp	r3, #0
 8006aae:	dd23      	ble.n	8006af8 <_strtod_l+0x788>
 8006ab0:	4649      	mov	r1, r9
 8006ab2:	9a16      	ldr	r2, [sp, #88]	@ 0x58
 8006ab4:	9805      	ldr	r0, [sp, #20]
 8006ab6:	f7ff f989 	bl	8005dcc <__pow5mult>
 8006aba:	4681      	mov	r9, r0
 8006abc:	b9e0      	cbnz	r0, 8006af8 <_strtod_l+0x788>
 8006abe:	f04f 0900 	mov.w	r9, #0
 8006ac2:	e674      	b.n	80067ae <_strtod_l+0x43e>
 8006ac4:	f1c5 457f 	rsb	r5, r5, #4278190080	@ 0xff000000
 8006ac8:	f505 057f 	add.w	r5, r5, #16711680	@ 0xff0000
 8006acc:	f505 457b 	add.w	r5, r5, #64256	@ 0xfb00
 8006ad0:	35e2      	adds	r5, #226	@ 0xe2
 8006ad2:	fa01 f305 	lsl.w	r3, r1, r5
 8006ad6:	9310      	str	r3, [sp, #64]	@ 0x40
 8006ad8:	9113      	str	r1, [sp, #76]	@ 0x4c
 8006ada:	e7ba      	b.n	8006a52 <_strtod_l+0x6e2>
 8006adc:	2300      	movs	r3, #0
 8006ade:	9310      	str	r3, [sp, #64]	@ 0x40
 8006ae0:	2301      	movs	r3, #1
 8006ae2:	9313      	str	r3, [sp, #76]	@ 0x4c
 8006ae4:	e7b5      	b.n	8006a52 <_strtod_l+0x6e2>
 8006ae6:	991a      	ldr	r1, [sp, #104]	@ 0x68
 8006ae8:	9805      	ldr	r0, [sp, #20]
 8006aea:	462a      	mov	r2, r5
 8006aec:	f7ff f9c8 	bl	8005e80 <__lshift>
 8006af0:	901a      	str	r0, [sp, #104]	@ 0x68
 8006af2:	2800      	cmp	r0, #0
 8006af4:	d1d9      	bne.n	8006aaa <_strtod_l+0x73a>
 8006af6:	e65a      	b.n	80067ae <_strtod_l+0x43e>
 8006af8:	2e00      	cmp	r6, #0
 8006afa:	dd07      	ble.n	8006b0c <_strtod_l+0x79c>
 8006afc:	4649      	mov	r1, r9
 8006afe:	9805      	ldr	r0, [sp, #20]
 8006b00:	4632      	mov	r2, r6
 8006b02:	f7ff f9bd 	bl	8005e80 <__lshift>
 8006b06:	4681      	mov	r9, r0
 8006b08:	2800      	cmp	r0, #0
 8006b0a:	d0d8      	beq.n	8006abe <_strtod_l+0x74e>
 8006b0c:	2f00      	cmp	r7, #0
 8006b0e:	dd08      	ble.n	8006b22 <_strtod_l+0x7b2>
 8006b10:	4641      	mov	r1, r8
 8006b12:	9805      	ldr	r0, [sp, #20]
 8006b14:	463a      	mov	r2, r7
 8006b16:	f7ff f9b3 	bl	8005e80 <__lshift>
 8006b1a:	4680      	mov	r8, r0
 8006b1c:	2800      	cmp	r0, #0
 8006b1e:	f43f ae46 	beq.w	80067ae <_strtod_l+0x43e>
 8006b22:	991a      	ldr	r1, [sp, #104]	@ 0x68
 8006b24:	9805      	ldr	r0, [sp, #20]
 8006b26:	464a      	mov	r2, r9
 8006b28:	f7ff fa32 	bl	8005f90 <__mdiff>
 8006b2c:	4604      	mov	r4, r0
 8006b2e:	2800      	cmp	r0, #0
 8006b30:	f43f ae3d 	beq.w	80067ae <_strtod_l+0x43e>
 8006b34:	68c3      	ldr	r3, [r0, #12]
 8006b36:	930f      	str	r3, [sp, #60]	@ 0x3c
 8006b38:	2300      	movs	r3, #0
 8006b3a:	60c3      	str	r3, [r0, #12]
 8006b3c:	4641      	mov	r1, r8
 8006b3e:	f7ff fa0b 	bl	8005f58 <__mcmp>
 8006b42:	2800      	cmp	r0, #0
 8006b44:	da46      	bge.n	8006bd4 <_strtod_l+0x864>
 8006b46:	9b0f      	ldr	r3, [sp, #60]	@ 0x3c
 8006b48:	ea53 030a 	orrs.w	r3, r3, sl
 8006b4c:	d16c      	bne.n	8006c28 <_strtod_l+0x8b8>
 8006b4e:	f3cb 0313 	ubfx	r3, fp, #0, #20
 8006b52:	2b00      	cmp	r3, #0
 8006b54:	d168      	bne.n	8006c28 <_strtod_l+0x8b8>
 8006b56:	f02b 4300 	bic.w	r3, fp, #2147483648	@ 0x80000000
 8006b5a:	0d1b      	lsrs	r3, r3, #20
 8006b5c:	051b      	lsls	r3, r3, #20
 8006b5e:	f1b3 6fd6 	cmp.w	r3, #112197632	@ 0x6b00000
 8006b62:	d961      	bls.n	8006c28 <_strtod_l+0x8b8>
 8006b64:	6963      	ldr	r3, [r4, #20]
 8006b66:	b913      	cbnz	r3, 8006b6e <_strtod_l+0x7fe>
 8006b68:	6923      	ldr	r3, [r4, #16]
 8006b6a:	2b01      	cmp	r3, #1
 8006b6c:	dd5c      	ble.n	8006c28 <_strtod_l+0x8b8>
 8006b6e:	4621      	mov	r1, r4
 8006b70:	2201      	movs	r2, #1
 8006b72:	9805      	ldr	r0, [sp, #20]
 8006b74:	f7ff f984 	bl	8005e80 <__lshift>
 8006b78:	4641      	mov	r1, r8
 8006b7a:	4604      	mov	r4, r0
 8006b7c:	f7ff f9ec 	bl	8005f58 <__mcmp>
 8006b80:	2800      	cmp	r0, #0
 8006b82:	dd51      	ble.n	8006c28 <_strtod_l+0x8b8>
 8006b84:	f02b 4300 	bic.w	r3, fp, #2147483648	@ 0x80000000
 8006b88:	9a08      	ldr	r2, [sp, #32]
 8006b8a:	0d1b      	lsrs	r3, r3, #20
 8006b8c:	051b      	lsls	r3, r3, #20
 8006b8e:	2a00      	cmp	r2, #0
 8006b90:	d06b      	beq.n	8006c6a <_strtod_l+0x8fa>
 8006b92:	f1b3 6fd6 	cmp.w	r3, #112197632	@ 0x6b00000
 8006b96:	d868      	bhi.n	8006c6a <_strtod_l+0x8fa>
 8006b98:	f1b3 7f5c 	cmp.w	r3, #57671680	@ 0x3700000
 8006b9c:	f67f ae9d 	bls.w	80068da <_strtod_l+0x56a>
 8006ba0:	4b0a      	ldr	r3, [pc, #40]	@ (8006bcc <_strtod_l+0x85c>)
 8006ba2:	4650      	mov	r0, sl
 8006ba4:	4659      	mov	r1, fp
 8006ba6:	2200      	movs	r2, #0
 8006ba8:	f7f9 fd2e 	bl	8000608 <__aeabi_dmul>
 8006bac:	4b08      	ldr	r3, [pc, #32]	@ (8006bd0 <_strtod_l+0x860>)
 8006bae:	400b      	ands	r3, r1
 8006bb0:	4682      	mov	sl, r0
 8006bb2:	468b      	mov	fp, r1
 8006bb4:	2b00      	cmp	r3, #0
 8006bb6:	f47f ae05 	bne.w	80067c4 <_strtod_l+0x454>
 8006bba:	9a05      	ldr	r2, [sp, #20]
 8006bbc:	2322      	movs	r3, #34	@ 0x22
 8006bbe:	6013      	str	r3, [r2, #0]
 8006bc0:	e600      	b.n	80067c4 <_strtod_l+0x454>
 8006bc2:	bf00      	nop
 8006bc4:	08008788 	.word	0x08008788
 8006bc8:	fffffc02 	.word	0xfffffc02
 8006bcc:	39500000 	.word	0x39500000
 8006bd0:	7ff00000 	.word	0x7ff00000
 8006bd4:	f8cd b038 	str.w	fp, [sp, #56]	@ 0x38
 8006bd8:	d165      	bne.n	8006ca6 <_strtod_l+0x936>
 8006bda:	9a0f      	ldr	r2, [sp, #60]	@ 0x3c
 8006bdc:	f3cb 0313 	ubfx	r3, fp, #0, #20
 8006be0:	b35a      	cbz	r2, 8006c3a <_strtod_l+0x8ca>
 8006be2:	4a9f      	ldr	r2, [pc, #636]	@ (8006e60 <_strtod_l+0xaf0>)
 8006be4:	4293      	cmp	r3, r2
 8006be6:	d12b      	bne.n	8006c40 <_strtod_l+0x8d0>
 8006be8:	9b08      	ldr	r3, [sp, #32]
 8006bea:	4651      	mov	r1, sl
 8006bec:	b303      	cbz	r3, 8006c30 <_strtod_l+0x8c0>
 8006bee:	4b9d      	ldr	r3, [pc, #628]	@ (8006e64 <_strtod_l+0xaf4>)
 8006bf0:	465a      	mov	r2, fp
 8006bf2:	4013      	ands	r3, r2
 8006bf4:	f1b3 6fd4 	cmp.w	r3, #111149056	@ 0x6a00000
 8006bf8:	f04f 32ff 	mov.w	r2, #4294967295
 8006bfc:	d81b      	bhi.n	8006c36 <_strtod_l+0x8c6>
 8006bfe:	0d1b      	lsrs	r3, r3, #20
 8006c00:	f1c3 036b 	rsb	r3, r3, #107	@ 0x6b
 8006c04:	fa02 f303 	lsl.w	r3, r2, r3
 8006c08:	4299      	cmp	r1, r3
 8006c0a:	d119      	bne.n	8006c40 <_strtod_l+0x8d0>
 8006c0c:	4b96      	ldr	r3, [pc, #600]	@ (8006e68 <_strtod_l+0xaf8>)
 8006c0e:	9a0e      	ldr	r2, [sp, #56]	@ 0x38
 8006c10:	429a      	cmp	r2, r3
 8006c12:	d102      	bne.n	8006c1a <_strtod_l+0x8aa>
 8006c14:	3101      	adds	r1, #1
 8006c16:	f43f adca 	beq.w	80067ae <_strtod_l+0x43e>
 8006c1a:	4b92      	ldr	r3, [pc, #584]	@ (8006e64 <_strtod_l+0xaf4>)
 8006c1c:	9a0e      	ldr	r2, [sp, #56]	@ 0x38
 8006c1e:	401a      	ands	r2, r3
 8006c20:	f502 1b80 	add.w	fp, r2, #1048576	@ 0x100000
 8006c24:	f04f 0a00 	mov.w	sl, #0
 8006c28:	9b08      	ldr	r3, [sp, #32]
 8006c2a:	2b00      	cmp	r3, #0
 8006c2c:	d1b8      	bne.n	8006ba0 <_strtod_l+0x830>
 8006c2e:	e5c9      	b.n	80067c4 <_strtod_l+0x454>
 8006c30:	f04f 33ff 	mov.w	r3, #4294967295
 8006c34:	e7e8      	b.n	8006c08 <_strtod_l+0x898>
 8006c36:	4613      	mov	r3, r2
 8006c38:	e7e6      	b.n	8006c08 <_strtod_l+0x898>
 8006c3a:	ea53 030a 	orrs.w	r3, r3, sl
 8006c3e:	d0a1      	beq.n	8006b84 <_strtod_l+0x814>
 8006c40:	9b10      	ldr	r3, [sp, #64]	@ 0x40
 8006c42:	b1db      	cbz	r3, 8006c7c <_strtod_l+0x90c>
 8006c44:	9a0e      	ldr	r2, [sp, #56]	@ 0x38
 8006c46:	4213      	tst	r3, r2
 8006c48:	d0ee      	beq.n	8006c28 <_strtod_l+0x8b8>
 8006c4a:	9b0f      	ldr	r3, [sp, #60]	@ 0x3c
 8006c4c:	9a08      	ldr	r2, [sp, #32]
 8006c4e:	4650      	mov	r0, sl
 8006c50:	4659      	mov	r1, fp
 8006c52:	b1bb      	cbz	r3, 8006c84 <_strtod_l+0x914>
 8006c54:	f7ff fb6e 	bl	8006334 <sulp>
 8006c58:	e9dd 010c 	ldrd	r0, r1, [sp, #48]	@ 0x30
 8006c5c:	ec53 2b10 	vmov	r2, r3, d0
 8006c60:	f7f9 fb1c 	bl	800029c <__adddf3>
 8006c64:	4682      	mov	sl, r0
 8006c66:	468b      	mov	fp, r1
 8006c68:	e7de      	b.n	8006c28 <_strtod_l+0x8b8>
 8006c6a:	f5a3 1380 	sub.w	r3, r3, #1048576	@ 0x100000
 8006c6e:	ea6f 5b13 	mvn.w	fp, r3, lsr #20
 8006c72:	ea6f 5b0b 	mvn.w	fp, fp, lsl #20
 8006c76:	f04f 3aff 	mov.w	sl, #4294967295
 8006c7a:	e7d5      	b.n	8006c28 <_strtod_l+0x8b8>
 8006c7c:	9b13      	ldr	r3, [sp, #76]	@ 0x4c
 8006c7e:	ea13 0f0a 	tst.w	r3, sl
 8006c82:	e7e1      	b.n	8006c48 <_strtod_l+0x8d8>
 8006c84:	f7ff fb56 	bl	8006334 <sulp>
 8006c88:	e9dd 010c 	ldrd	r0, r1, [sp, #48]	@ 0x30
 8006c8c:	ec53 2b10 	vmov	r2, r3, d0
 8006c90:	f7f9 fb02 	bl	8000298 <__aeabi_dsub>
 8006c94:	2200      	movs	r2, #0
 8006c96:	2300      	movs	r3, #0
 8006c98:	4682      	mov	sl, r0
 8006c9a:	468b      	mov	fp, r1
 8006c9c:	f7f9 ff1c 	bl	8000ad8 <__aeabi_dcmpeq>
 8006ca0:	2800      	cmp	r0, #0
 8006ca2:	d0c1      	beq.n	8006c28 <_strtod_l+0x8b8>
 8006ca4:	e619      	b.n	80068da <_strtod_l+0x56a>
 8006ca6:	4641      	mov	r1, r8
 8006ca8:	4620      	mov	r0, r4
 8006caa:	f7ff facd 	bl	8006248 <__ratio>
 8006cae:	ec57 6b10 	vmov	r6, r7, d0
 8006cb2:	2200      	movs	r2, #0
 8006cb4:	f04f 4380 	mov.w	r3, #1073741824	@ 0x40000000
 8006cb8:	4630      	mov	r0, r6
 8006cba:	4639      	mov	r1, r7
 8006cbc:	f7f9 ff20 	bl	8000b00 <__aeabi_dcmple>
 8006cc0:	2800      	cmp	r0, #0
 8006cc2:	d06f      	beq.n	8006da4 <_strtod_l+0xa34>
 8006cc4:	9b0f      	ldr	r3, [sp, #60]	@ 0x3c
 8006cc6:	2b00      	cmp	r3, #0
 8006cc8:	d17a      	bne.n	8006dc0 <_strtod_l+0xa50>
 8006cca:	f1ba 0f00 	cmp.w	sl, #0
 8006cce:	d158      	bne.n	8006d82 <_strtod_l+0xa12>
 8006cd0:	9b0e      	ldr	r3, [sp, #56]	@ 0x38
 8006cd2:	f3c3 0313 	ubfx	r3, r3, #0, #20
 8006cd6:	2b00      	cmp	r3, #0
 8006cd8:	d15a      	bne.n	8006d90 <_strtod_l+0xa20>
 8006cda:	4b64      	ldr	r3, [pc, #400]	@ (8006e6c <_strtod_l+0xafc>)
 8006cdc:	2200      	movs	r2, #0
 8006cde:	4630      	mov	r0, r6
 8006ce0:	4639      	mov	r1, r7
 8006ce2:	f7f9 ff03 	bl	8000aec <__aeabi_dcmplt>
 8006ce6:	2800      	cmp	r0, #0
 8006ce8:	d159      	bne.n	8006d9e <_strtod_l+0xa2e>
 8006cea:	4630      	mov	r0, r6
 8006cec:	4639      	mov	r1, r7
 8006cee:	4b60      	ldr	r3, [pc, #384]	@ (8006e70 <_strtod_l+0xb00>)
 8006cf0:	2200      	movs	r2, #0
 8006cf2:	f7f9 fc89 	bl	8000608 <__aeabi_dmul>
 8006cf6:	4606      	mov	r6, r0
 8006cf8:	460f      	mov	r7, r1
 8006cfa:	f107 4300 	add.w	r3, r7, #2147483648	@ 0x80000000
 8006cfe:	9606      	str	r6, [sp, #24]
 8006d00:	9307      	str	r3, [sp, #28]
 8006d02:	e9dd 2306 	ldrd	r2, r3, [sp, #24]
 8006d06:	4d57      	ldr	r5, [pc, #348]	@ (8006e64 <_strtod_l+0xaf4>)
 8006d08:	e9cd 2310 	strd	r2, r3, [sp, #64]	@ 0x40
 8006d0c:	9b0e      	ldr	r3, [sp, #56]	@ 0x38
 8006d0e:	401d      	ands	r5, r3
 8006d10:	4b58      	ldr	r3, [pc, #352]	@ (8006e74 <_strtod_l+0xb04>)
 8006d12:	429d      	cmp	r5, r3
 8006d14:	f040 80b2 	bne.w	8006e7c <_strtod_l+0xb0c>
 8006d18:	9b0e      	ldr	r3, [sp, #56]	@ 0x38
 8006d1a:	f1a3 7b54 	sub.w	fp, r3, #55574528	@ 0x3500000
 8006d1e:	ec4b ab10 	vmov	d0, sl, fp
 8006d22:	f7ff f9c9 	bl	80060b8 <__ulp>
 8006d26:	e9dd 2306 	ldrd	r2, r3, [sp, #24]
 8006d2a:	ec51 0b10 	vmov	r0, r1, d0
 8006d2e:	f7f9 fc6b 	bl	8000608 <__aeabi_dmul>
 8006d32:	4652      	mov	r2, sl
 8006d34:	465b      	mov	r3, fp
 8006d36:	f7f9 fab1 	bl	800029c <__adddf3>
 8006d3a:	460b      	mov	r3, r1
 8006d3c:	4949      	ldr	r1, [pc, #292]	@ (8006e64 <_strtod_l+0xaf4>)
 8006d3e:	4a4e      	ldr	r2, [pc, #312]	@ (8006e78 <_strtod_l+0xb08>)
 8006d40:	4019      	ands	r1, r3
 8006d42:	4291      	cmp	r1, r2
 8006d44:	4682      	mov	sl, r0
 8006d46:	d942      	bls.n	8006dce <_strtod_l+0xa5e>
 8006d48:	9a0d      	ldr	r2, [sp, #52]	@ 0x34
 8006d4a:	4b47      	ldr	r3, [pc, #284]	@ (8006e68 <_strtod_l+0xaf8>)
 8006d4c:	429a      	cmp	r2, r3
 8006d4e:	d103      	bne.n	8006d58 <_strtod_l+0x9e8>
 8006d50:	9b0c      	ldr	r3, [sp, #48]	@ 0x30
 8006d52:	3301      	adds	r3, #1
 8006d54:	f43f ad2b 	beq.w	80067ae <_strtod_l+0x43e>
 8006d58:	f8df b10c 	ldr.w	fp, [pc, #268]	@ 8006e68 <_strtod_l+0xaf8>
 8006d5c:	f04f 3aff 	mov.w	sl, #4294967295
 8006d60:	991a      	ldr	r1, [sp, #104]	@ 0x68
 8006d62:	9805      	ldr	r0, [sp, #20]
 8006d64:	f7fe fe74 	bl	8005a50 <_Bfree>
 8006d68:	9805      	ldr	r0, [sp, #20]
 8006d6a:	4649      	mov	r1, r9
 8006d6c:	f7fe fe70 	bl	8005a50 <_Bfree>
 8006d70:	9805      	ldr	r0, [sp, #20]
 8006d72:	4641      	mov	r1, r8
 8006d74:	f7fe fe6c 	bl	8005a50 <_Bfree>
 8006d78:	9805      	ldr	r0, [sp, #20]
 8006d7a:	4621      	mov	r1, r4
 8006d7c:	f7fe fe68 	bl	8005a50 <_Bfree>
 8006d80:	e618      	b.n	80069b4 <_strtod_l+0x644>
 8006d82:	f1ba 0f01 	cmp.w	sl, #1
 8006d86:	d103      	bne.n	8006d90 <_strtod_l+0xa20>
 8006d88:	9b0e      	ldr	r3, [sp, #56]	@ 0x38
 8006d8a:	2b00      	cmp	r3, #0
 8006d8c:	f43f ada5 	beq.w	80068da <_strtod_l+0x56a>
 8006d90:	ed9f 7b2b 	vldr	d7, [pc, #172]	@ 8006e40 <_strtod_l+0xad0>
 8006d94:	4f35      	ldr	r7, [pc, #212]	@ (8006e6c <_strtod_l+0xafc>)
 8006d96:	ed8d 7b06 	vstr	d7, [sp, #24]
 8006d9a:	2600      	movs	r6, #0
 8006d9c:	e7b1      	b.n	8006d02 <_strtod_l+0x992>
 8006d9e:	4f34      	ldr	r7, [pc, #208]	@ (8006e70 <_strtod_l+0xb00>)
 8006da0:	2600      	movs	r6, #0
 8006da2:	e7aa      	b.n	8006cfa <_strtod_l+0x98a>
 8006da4:	4b32      	ldr	r3, [pc, #200]	@ (8006e70 <_strtod_l+0xb00>)
 8006da6:	4630      	mov	r0, r6
 8006da8:	4639      	mov	r1, r7
 8006daa:	2200      	movs	r2, #0
 8006dac:	f7f9 fc2c 	bl	8000608 <__aeabi_dmul>
 8006db0:	9b0f      	ldr	r3, [sp, #60]	@ 0x3c
 8006db2:	4606      	mov	r6, r0
 8006db4:	460f      	mov	r7, r1
 8006db6:	2b00      	cmp	r3, #0
 8006db8:	d09f      	beq.n	8006cfa <_strtod_l+0x98a>
 8006dba:	e9cd 6706 	strd	r6, r7, [sp, #24]
 8006dbe:	e7a0      	b.n	8006d02 <_strtod_l+0x992>
 8006dc0:	ed9f 7b21 	vldr	d7, [pc, #132]	@ 8006e48 <_strtod_l+0xad8>
 8006dc4:	ed8d 7b06 	vstr	d7, [sp, #24]
 8006dc8:	ec57 6b17 	vmov	r6, r7, d7
 8006dcc:	e799      	b.n	8006d02 <_strtod_l+0x992>
 8006dce:	f103 7b54 	add.w	fp, r3, #55574528	@ 0x3500000
 8006dd2:	9b08      	ldr	r3, [sp, #32]
 8006dd4:	f8cd b038 	str.w	fp, [sp, #56]	@ 0x38
 8006dd8:	2b00      	cmp	r3, #0
 8006dda:	d1c1      	bne.n	8006d60 <_strtod_l+0x9f0>
 8006ddc:	f02b 4300 	bic.w	r3, fp, #2147483648	@ 0x80000000
 8006de0:	0d1b      	lsrs	r3, r3, #20
 8006de2:	051b      	lsls	r3, r3, #20
 8006de4:	429d      	cmp	r5, r3
 8006de6:	d1bb      	bne.n	8006d60 <_strtod_l+0x9f0>
 8006de8:	4630      	mov	r0, r6
 8006dea:	4639      	mov	r1, r7
 8006dec:	f7f9 ff6c 	bl	8000cc8 <__aeabi_d2lz>
 8006df0:	f7f9 fbdc 	bl	80005ac <__aeabi_l2d>
 8006df4:	4602      	mov	r2, r0
 8006df6:	460b      	mov	r3, r1
 8006df8:	4630      	mov	r0, r6
 8006dfa:	4639      	mov	r1, r7
 8006dfc:	f7f9 fa4c 	bl	8000298 <__aeabi_dsub>
 8006e00:	460b      	mov	r3, r1
 8006e02:	4602      	mov	r2, r0
 8006e04:	e9cd 230c 	strd	r2, r3, [sp, #48]	@ 0x30
 8006e08:	f3cb 0613 	ubfx	r6, fp, #0, #20
 8006e0c:	9b0f      	ldr	r3, [sp, #60]	@ 0x3c
 8006e0e:	ea46 060a 	orr.w	r6, r6, sl
 8006e12:	431e      	orrs	r6, r3
 8006e14:	d06f      	beq.n	8006ef6 <_strtod_l+0xb86>
 8006e16:	a30e      	add	r3, pc, #56	@ (adr r3, 8006e50 <_strtod_l+0xae0>)
 8006e18:	e9d3 2300 	ldrd	r2, r3, [r3]
 8006e1c:	f7f9 fe66 	bl	8000aec <__aeabi_dcmplt>
 8006e20:	2800      	cmp	r0, #0
 8006e22:	f47f accf 	bne.w	80067c4 <_strtod_l+0x454>
 8006e26:	a30c      	add	r3, pc, #48	@ (adr r3, 8006e58 <_strtod_l+0xae8>)
 8006e28:	e9d3 2300 	ldrd	r2, r3, [r3]
 8006e2c:	e9dd 010c 	ldrd	r0, r1, [sp, #48]	@ 0x30
 8006e30:	f7f9 fe7a 	bl	8000b28 <__aeabi_dcmpgt>
 8006e34:	2800      	cmp	r0, #0
 8006e36:	d093      	beq.n	8006d60 <_strtod_l+0x9f0>
 8006e38:	e4c4      	b.n	80067c4 <_strtod_l+0x454>
 8006e3a:	bf00      	nop
 8006e3c:	f3af 8000 	nop.w
 8006e40:	00000000 	.word	0x00000000
 8006e44:	bff00000 	.word	0xbff00000
 8006e48:	00000000 	.word	0x00000000
 8006e4c:	3ff00000 	.word	0x3ff00000
 8006e50:	94a03595 	.word	0x94a03595
 8006e54:	3fdfffff 	.word	0x3fdfffff
 8006e58:	35afe535 	.word	0x35afe535
 8006e5c:	3fe00000 	.word	0x3fe00000
 8006e60:	000fffff 	.word	0x000fffff
 8006e64:	7ff00000 	.word	0x7ff00000
 8006e68:	7fefffff 	.word	0x7fefffff
 8006e6c:	3ff00000 	.word	0x3ff00000
 8006e70:	3fe00000 	.word	0x3fe00000
 8006e74:	7fe00000 	.word	0x7fe00000
 8006e78:	7c9fffff 	.word	0x7c9fffff
 8006e7c:	9b08      	ldr	r3, [sp, #32]
 8006e7e:	b323      	cbz	r3, 8006eca <_strtod_l+0xb5a>
 8006e80:	f1b5 6fd4 	cmp.w	r5, #111149056	@ 0x6a00000
 8006e84:	d821      	bhi.n	8006eca <_strtod_l+0xb5a>
 8006e86:	a328      	add	r3, pc, #160	@ (adr r3, 8006f28 <_strtod_l+0xbb8>)
 8006e88:	e9d3 2300 	ldrd	r2, r3, [r3]
 8006e8c:	4630      	mov	r0, r6
 8006e8e:	4639      	mov	r1, r7
 8006e90:	f7f9 fe36 	bl	8000b00 <__aeabi_dcmple>
 8006e94:	b1a0      	cbz	r0, 8006ec0 <_strtod_l+0xb50>
 8006e96:	4639      	mov	r1, r7
 8006e98:	4630      	mov	r0, r6
 8006e9a:	f7f9 fe8d 	bl	8000bb8 <__aeabi_d2uiz>
 8006e9e:	2801      	cmp	r0, #1
 8006ea0:	bf38      	it	cc
 8006ea2:	2001      	movcc	r0, #1
 8006ea4:	f7f9 fb36 	bl	8000514 <__aeabi_ui2d>
 8006ea8:	9b0f      	ldr	r3, [sp, #60]	@ 0x3c
 8006eaa:	4606      	mov	r6, r0
 8006eac:	460f      	mov	r7, r1
 8006eae:	b9fb      	cbnz	r3, 8006ef0 <_strtod_l+0xb80>
 8006eb0:	f101 4300 	add.w	r3, r1, #2147483648	@ 0x80000000
 8006eb4:	9014      	str	r0, [sp, #80]	@ 0x50
 8006eb6:	9315      	str	r3, [sp, #84]	@ 0x54
 8006eb8:	e9dd 2314 	ldrd	r2, r3, [sp, #80]	@ 0x50
 8006ebc:	e9cd 2310 	strd	r2, r3, [sp, #64]	@ 0x40
 8006ec0:	9b11      	ldr	r3, [sp, #68]	@ 0x44
 8006ec2:	f103 63d6 	add.w	r3, r3, #112197632	@ 0x6b00000
 8006ec6:	1b5b      	subs	r3, r3, r5
 8006ec8:	9311      	str	r3, [sp, #68]	@ 0x44
 8006eca:	ed9d 0b0c 	vldr	d0, [sp, #48]	@ 0x30
 8006ece:	e9dd ab10 	ldrd	sl, fp, [sp, #64]	@ 0x40
 8006ed2:	f7ff f8f1 	bl	80060b8 <__ulp>
 8006ed6:	4650      	mov	r0, sl
 8006ed8:	ec53 2b10 	vmov	r2, r3, d0
 8006edc:	4659      	mov	r1, fp
 8006ede:	f7f9 fb93 	bl	8000608 <__aeabi_dmul>
 8006ee2:	e9dd 230c 	ldrd	r2, r3, [sp, #48]	@ 0x30
 8006ee6:	f7f9 f9d9 	bl	800029c <__adddf3>
 8006eea:	4682      	mov	sl, r0
 8006eec:	468b      	mov	fp, r1
 8006eee:	e770      	b.n	8006dd2 <_strtod_l+0xa62>
 8006ef0:	e9cd 6714 	strd	r6, r7, [sp, #80]	@ 0x50
 8006ef4:	e7e0      	b.n	8006eb8 <_strtod_l+0xb48>
 8006ef6:	a30e      	add	r3, pc, #56	@ (adr r3, 8006f30 <_strtod_l+0xbc0>)
 8006ef8:	e9d3 2300 	ldrd	r2, r3, [r3]
 8006efc:	f7f9 fdf6 	bl	8000aec <__aeabi_dcmplt>
 8006f00:	e798      	b.n	8006e34 <_strtod_l+0xac4>
 8006f02:	2300      	movs	r3, #0
 8006f04:	930b      	str	r3, [sp, #44]	@ 0x2c
 8006f06:	9a17      	ldr	r2, [sp, #92]	@ 0x5c
 8006f08:	9b19      	ldr	r3, [sp, #100]	@ 0x64
 8006f0a:	6013      	str	r3, [r2, #0]
 8006f0c:	f7ff ba6d 	b.w	80063ea <_strtod_l+0x7a>
 8006f10:	2a65      	cmp	r2, #101	@ 0x65
 8006f12:	f43f ab66 	beq.w	80065e2 <_strtod_l+0x272>
 8006f16:	2a45      	cmp	r2, #69	@ 0x45
 8006f18:	f43f ab63 	beq.w	80065e2 <_strtod_l+0x272>
 8006f1c:	2301      	movs	r3, #1
 8006f1e:	f7ff bb9e 	b.w	800665e <_strtod_l+0x2ee>
 8006f22:	bf00      	nop
 8006f24:	f3af 8000 	nop.w
 8006f28:	ffc00000 	.word	0xffc00000
 8006f2c:	41dfffff 	.word	0x41dfffff
 8006f30:	94a03595 	.word	0x94a03595
 8006f34:	3fcfffff 	.word	0x3fcfffff

08006f38 <_strtod_r>:
 8006f38:	4b01      	ldr	r3, [pc, #4]	@ (8006f40 <_strtod_r+0x8>)
 8006f3a:	f7ff ba19 	b.w	8006370 <_strtod_l>
 8006f3e:	bf00      	nop
 8006f40:	20000068 	.word	0x20000068

08006f44 <_strtol_l.constprop.0>:
 8006f44:	2b24      	cmp	r3, #36	@ 0x24
 8006f46:	e92d 47f0 	stmdb	sp!, {r4, r5, r6, r7, r8, r9, sl, lr}
 8006f4a:	4686      	mov	lr, r0
 8006f4c:	4690      	mov	r8, r2
 8006f4e:	d801      	bhi.n	8006f54 <_strtol_l.constprop.0+0x10>
 8006f50:	2b01      	cmp	r3, #1
 8006f52:	d106      	bne.n	8006f62 <_strtol_l.constprop.0+0x1e>
 8006f54:	f7fd fdbc 	bl	8004ad0 <__errno>
 8006f58:	2316      	movs	r3, #22
 8006f5a:	6003      	str	r3, [r0, #0]
 8006f5c:	2000      	movs	r0, #0
 8006f5e:	e8bd 87f0 	ldmia.w	sp!, {r4, r5, r6, r7, r8, r9, sl, pc}
 8006f62:	4834      	ldr	r0, [pc, #208]	@ (8007034 <_strtol_l.constprop.0+0xf0>)
 8006f64:	460d      	mov	r5, r1
 8006f66:	462a      	mov	r2, r5
 8006f68:	f815 4b01 	ldrb.w	r4, [r5], #1
 8006f6c:	5d06      	ldrb	r6, [r0, r4]
 8006f6e:	f016 0608 	ands.w	r6, r6, #8
 8006f72:	d1f8      	bne.n	8006f66 <_strtol_l.constprop.0+0x22>
 8006f74:	2c2d      	cmp	r4, #45	@ 0x2d
 8006f76:	d12d      	bne.n	8006fd4 <_strtol_l.constprop.0+0x90>
 8006f78:	782c      	ldrb	r4, [r5, #0]
 8006f7a:	2601      	movs	r6, #1
 8006f7c:	1c95      	adds	r5, r2, #2
 8006f7e:	f033 0210 	bics.w	r2, r3, #16
 8006f82:	d109      	bne.n	8006f98 <_strtol_l.constprop.0+0x54>
 8006f84:	2c30      	cmp	r4, #48	@ 0x30
 8006f86:	d12a      	bne.n	8006fde <_strtol_l.constprop.0+0x9a>
 8006f88:	782a      	ldrb	r2, [r5, #0]
 8006f8a:	f002 02df 	and.w	r2, r2, #223	@ 0xdf
 8006f8e:	2a58      	cmp	r2, #88	@ 0x58
 8006f90:	d125      	bne.n	8006fde <_strtol_l.constprop.0+0x9a>
 8006f92:	786c      	ldrb	r4, [r5, #1]
 8006f94:	2310      	movs	r3, #16
 8006f96:	3502      	adds	r5, #2
 8006f98:	f106 4c00 	add.w	ip, r6, #2147483648	@ 0x80000000
 8006f9c:	f10c 3cff 	add.w	ip, ip, #4294967295
 8006fa0:	2200      	movs	r2, #0
 8006fa2:	fbbc f9f3 	udiv	r9, ip, r3
 8006fa6:	4610      	mov	r0, r2
 8006fa8:	fb03 ca19 	mls	sl, r3, r9, ip
 8006fac:	f1a4 0730 	sub.w	r7, r4, #48	@ 0x30
 8006fb0:	2f09      	cmp	r7, #9
 8006fb2:	d81b      	bhi.n	8006fec <_strtol_l.constprop.0+0xa8>
 8006fb4:	463c      	mov	r4, r7
 8006fb6:	42a3      	cmp	r3, r4
 8006fb8:	dd27      	ble.n	800700a <_strtol_l.constprop.0+0xc6>
 8006fba:	1c57      	adds	r7, r2, #1
 8006fbc:	d007      	beq.n	8006fce <_strtol_l.constprop.0+0x8a>
 8006fbe:	4581      	cmp	r9, r0
 8006fc0:	d320      	bcc.n	8007004 <_strtol_l.constprop.0+0xc0>
 8006fc2:	d101      	bne.n	8006fc8 <_strtol_l.constprop.0+0x84>
 8006fc4:	45a2      	cmp	sl, r4
 8006fc6:	db1d      	blt.n	8007004 <_strtol_l.constprop.0+0xc0>
 8006fc8:	fb00 4003 	mla	r0, r0, r3, r4
 8006fcc:	2201      	movs	r2, #1
 8006fce:	f815 4b01 	ldrb.w	r4, [r5], #1
 8006fd2:	e7eb      	b.n	8006fac <_strtol_l.constprop.0+0x68>
 8006fd4:	2c2b      	cmp	r4, #43	@ 0x2b
 8006fd6:	bf04      	itt	eq
 8006fd8:	782c      	ldrbeq	r4, [r5, #0]
 8006fda:	1c95      	addeq	r5, r2, #2
 8006fdc:	e7cf      	b.n	8006f7e <_strtol_l.constprop.0+0x3a>
 8006fde:	2b00      	cmp	r3, #0
 8006fe0:	d1da      	bne.n	8006f98 <_strtol_l.constprop.0+0x54>
 8006fe2:	2c30      	cmp	r4, #48	@ 0x30
 8006fe4:	bf0c      	ite	eq
 8006fe6:	2308      	moveq	r3, #8
 8006fe8:	230a      	movne	r3, #10
 8006fea:	e7d5      	b.n	8006f98 <_strtol_l.constprop.0+0x54>
 8006fec:	f1a4 0741 	sub.w	r7, r4, #65	@ 0x41
 8006ff0:	2f19      	cmp	r7, #25
 8006ff2:	d801      	bhi.n	8006ff8 <_strtol_l.constprop.0+0xb4>
 8006ff4:	3c37      	subs	r4, #55	@ 0x37
 8006ff6:	e7de      	b.n	8006fb6 <_strtol_l.constprop.0+0x72>
 8006ff8:	f1a4 0761 	sub.w	r7, r4, #97	@ 0x61
 8006ffc:	2f19      	cmp	r7, #25
 8006ffe:	d804      	bhi.n	800700a <_strtol_l.constprop.0+0xc6>
 8007000:	3c57      	subs	r4, #87	@ 0x57
 8007002:	e7d8      	b.n	8006fb6 <_strtol_l.constprop.0+0x72>
 8007004:	f04f 32ff 	mov.w	r2, #4294967295
 8007008:	e7e1      	b.n	8006fce <_strtol_l.constprop.0+0x8a>
 800700a:	1c53      	adds	r3, r2, #1
 800700c:	d108      	bne.n	8007020 <_strtol_l.constprop.0+0xdc>
 800700e:	2322      	movs	r3, #34	@ 0x22
 8007010:	f8ce 3000 	str.w	r3, [lr]
 8007014:	4660      	mov	r0, ip
 8007016:	f1b8 0f00 	cmp.w	r8, #0
 800701a:	d0a0      	beq.n	8006f5e <_strtol_l.constprop.0+0x1a>
 800701c:	1e69      	subs	r1, r5, #1
 800701e:	e006      	b.n	800702e <_strtol_l.constprop.0+0xea>
 8007020:	b106      	cbz	r6, 8007024 <_strtol_l.constprop.0+0xe0>
 8007022:	4240      	negs	r0, r0
 8007024:	f1b8 0f00 	cmp.w	r8, #0
 8007028:	d099      	beq.n	8006f5e <_strtol_l.constprop.0+0x1a>
 800702a:	2a00      	cmp	r2, #0
 800702c:	d1f6      	bne.n	800701c <_strtol_l.constprop.0+0xd8>
 800702e:	f8c8 1000 	str.w	r1, [r8]
 8007032:	e794      	b.n	8006f5e <_strtol_l.constprop.0+0x1a>
 8007034:	080087b1 	.word	0x080087b1

08007038 <_strtol_r>:
 8007038:	f7ff bf84 	b.w	8006f44 <_strtol_l.constprop.0>

0800703c <__ssputs_r>:
 800703c:	e92d 47f0 	stmdb	sp!, {r4, r5, r6, r7, r8, r9, sl, lr}
 8007040:	688e      	ldr	r6, [r1, #8]
 8007042:	461f      	mov	r7, r3
 8007044:	42be      	cmp	r6, r7
 8007046:	680b      	ldr	r3, [r1, #0]
 8007048:	4682      	mov	sl, r0
 800704a:	460c      	mov	r4, r1
 800704c:	4690      	mov	r8, r2
 800704e:	d82d      	bhi.n	80070ac <__ssputs_r+0x70>
 8007050:	f9b1 200c 	ldrsh.w	r2, [r1, #12]
 8007054:	f412 6f90 	tst.w	r2, #1152	@ 0x480
 8007058:	d026      	beq.n	80070a8 <__ssputs_r+0x6c>
 800705a:	6965      	ldr	r5, [r4, #20]
 800705c:	6909      	ldr	r1, [r1, #16]
 800705e:	eb05 0545 	add.w	r5, r5, r5, lsl #1
 8007062:	eba3 0901 	sub.w	r9, r3, r1
 8007066:	eb05 75d5 	add.w	r5, r5, r5, lsr #31
 800706a:	1c7b      	adds	r3, r7, #1
 800706c:	444b      	add	r3, r9
 800706e:	106d      	asrs	r5, r5, #1
 8007070:	429d      	cmp	r5, r3
 8007072:	bf38      	it	cc
 8007074:	461d      	movcc	r5, r3
 8007076:	0553      	lsls	r3, r2, #21
 8007078:	d527      	bpl.n	80070ca <__ssputs_r+0x8e>
 800707a:	4629      	mov	r1, r5
 800707c:	f7fe fc1c 	bl	80058b8 <_malloc_r>
 8007080:	4606      	mov	r6, r0
 8007082:	b360      	cbz	r0, 80070de <__ssputs_r+0xa2>
 8007084:	6921      	ldr	r1, [r4, #16]
 8007086:	464a      	mov	r2, r9
 8007088:	f000 fbde 	bl	8007848 <memcpy>
 800708c:	89a3      	ldrh	r3, [r4, #12]
 800708e:	f423 6390 	bic.w	r3, r3, #1152	@ 0x480
 8007092:	f043 0380 	orr.w	r3, r3, #128	@ 0x80
 8007096:	81a3      	strh	r3, [r4, #12]
 8007098:	6126      	str	r6, [r4, #16]
 800709a:	6165      	str	r5, [r4, #20]
 800709c:	444e      	add	r6, r9
 800709e:	eba5 0509 	sub.w	r5, r5, r9
 80070a2:	6026      	str	r6, [r4, #0]
 80070a4:	60a5      	str	r5, [r4, #8]
 80070a6:	463e      	mov	r6, r7
 80070a8:	42be      	cmp	r6, r7
 80070aa:	d900      	bls.n	80070ae <__ssputs_r+0x72>
 80070ac:	463e      	mov	r6, r7
 80070ae:	6820      	ldr	r0, [r4, #0]
 80070b0:	4632      	mov	r2, r6
 80070b2:	4641      	mov	r1, r8
 80070b4:	f000 fb6a 	bl	800778c <memmove>
 80070b8:	68a3      	ldr	r3, [r4, #8]
 80070ba:	1b9b      	subs	r3, r3, r6
 80070bc:	60a3      	str	r3, [r4, #8]
 80070be:	6823      	ldr	r3, [r4, #0]
 80070c0:	4433      	add	r3, r6
 80070c2:	6023      	str	r3, [r4, #0]
 80070c4:	2000      	movs	r0, #0
 80070c6:	e8bd 87f0 	ldmia.w	sp!, {r4, r5, r6, r7, r8, r9, sl, pc}
 80070ca:	462a      	mov	r2, r5
 80070cc:	f000 ff51 	bl	8007f72 <_realloc_r>
 80070d0:	4606      	mov	r6, r0
 80070d2:	2800      	cmp	r0, #0
 80070d4:	d1e0      	bne.n	8007098 <__ssputs_r+0x5c>
 80070d6:	6921      	ldr	r1, [r4, #16]
 80070d8:	4650      	mov	r0, sl
 80070da:	f7fe fb79 	bl	80057d0 <_free_r>
 80070de:	230c      	movs	r3, #12
 80070e0:	f8ca 3000 	str.w	r3, [sl]
 80070e4:	89a3      	ldrh	r3, [r4, #12]
 80070e6:	f043 0340 	orr.w	r3, r3, #64	@ 0x40
 80070ea:	81a3      	strh	r3, [r4, #12]
 80070ec:	f04f 30ff 	mov.w	r0, #4294967295
 80070f0:	e7e9      	b.n	80070c6 <__ssputs_r+0x8a>
	...

080070f4 <_svfiprintf_r>:
 80070f4:	e92d 4ff0 	stmdb	sp!, {r4, r5, r6, r7, r8, r9, sl, fp, lr}
 80070f8:	4698      	mov	r8, r3
 80070fa:	898b      	ldrh	r3, [r1, #12]
 80070fc:	061b      	lsls	r3, r3, #24
 80070fe:	b09d      	sub	sp, #116	@ 0x74
 8007100:	4607      	mov	r7, r0
 8007102:	460d      	mov	r5, r1
 8007104:	4614      	mov	r4, r2
 8007106:	d510      	bpl.n	800712a <_svfiprintf_r+0x36>
 8007108:	690b      	ldr	r3, [r1, #16]
 800710a:	b973      	cbnz	r3, 800712a <_svfiprintf_r+0x36>
 800710c:	2140      	movs	r1, #64	@ 0x40
 800710e:	f7fe fbd3 	bl	80058b8 <_malloc_r>
 8007112:	6028      	str	r0, [r5, #0]
 8007114:	6128      	str	r0, [r5, #16]
 8007116:	b930      	cbnz	r0, 8007126 <_svfiprintf_r+0x32>
 8007118:	230c      	movs	r3, #12
 800711a:	603b      	str	r3, [r7, #0]
 800711c:	f04f 30ff 	mov.w	r0, #4294967295
 8007120:	b01d      	add	sp, #116	@ 0x74
 8007122:	e8bd 8ff0 	ldmia.w	sp!, {r4, r5, r6, r7, r8, r9, sl, fp, pc}
 8007126:	2340      	movs	r3, #64	@ 0x40
 8007128:	616b      	str	r3, [r5, #20]
 800712a:	2300      	movs	r3, #0
 800712c:	9309      	str	r3, [sp, #36]	@ 0x24
 800712e:	2320      	movs	r3, #32
 8007130:	f88d 3029 	strb.w	r3, [sp, #41]	@ 0x29
 8007134:	f8cd 800c 	str.w	r8, [sp, #12]
 8007138:	2330      	movs	r3, #48	@ 0x30
 800713a:	f8df 819c 	ldr.w	r8, [pc, #412]	@ 80072d8 <_svfiprintf_r+0x1e4>
 800713e:	f88d 302a 	strb.w	r3, [sp, #42]	@ 0x2a
 8007142:	f04f 0901 	mov.w	r9, #1
 8007146:	4623      	mov	r3, r4
 8007148:	469a      	mov	sl, r3
 800714a:	f813 2b01 	ldrb.w	r2, [r3], #1
 800714e:	b10a      	cbz	r2, 8007154 <_svfiprintf_r+0x60>
 8007150:	2a25      	cmp	r2, #37	@ 0x25
 8007152:	d1f9      	bne.n	8007148 <_svfiprintf_r+0x54>
 8007154:	ebba 0b04 	subs.w	fp, sl, r4
 8007158:	d00b      	beq.n	8007172 <_svfiprintf_r+0x7e>
 800715a:	465b      	mov	r3, fp
 800715c:	4622      	mov	r2, r4
 800715e:	4629      	mov	r1, r5
 8007160:	4638      	mov	r0, r7
 8007162:	f7ff ff6b 	bl	800703c <__ssputs_r>
 8007166:	3001      	adds	r0, #1
 8007168:	f000 80a7 	beq.w	80072ba <_svfiprintf_r+0x1c6>
 800716c:	9a09      	ldr	r2, [sp, #36]	@ 0x24
 800716e:	445a      	add	r2, fp
 8007170:	9209      	str	r2, [sp, #36]	@ 0x24
 8007172:	f89a 3000 	ldrb.w	r3, [sl]
 8007176:	2b00      	cmp	r3, #0
 8007178:	f000 809f 	beq.w	80072ba <_svfiprintf_r+0x1c6>
 800717c:	2300      	movs	r3, #0
 800717e:	f04f 32ff 	mov.w	r2, #4294967295
 8007182:	e9cd 2305 	strd	r2, r3, [sp, #20]
 8007186:	f10a 0a01 	add.w	sl, sl, #1
 800718a:	9304      	str	r3, [sp, #16]
 800718c:	9307      	str	r3, [sp, #28]
 800718e:	f88d 3053 	strb.w	r3, [sp, #83]	@ 0x53
 8007192:	931a      	str	r3, [sp, #104]	@ 0x68
 8007194:	4654      	mov	r4, sl
 8007196:	2205      	movs	r2, #5
 8007198:	f814 1b01 	ldrb.w	r1, [r4], #1
 800719c:	484e      	ldr	r0, [pc, #312]	@ (80072d8 <_svfiprintf_r+0x1e4>)
 800719e:	f7f9 f81f 	bl	80001e0 <memchr>
 80071a2:	9a04      	ldr	r2, [sp, #16]
 80071a4:	b9d8      	cbnz	r0, 80071de <_svfiprintf_r+0xea>
 80071a6:	06d0      	lsls	r0, r2, #27
 80071a8:	bf44      	itt	mi
 80071aa:	2320      	movmi	r3, #32
 80071ac:	f88d 3053 	strbmi.w	r3, [sp, #83]	@ 0x53
 80071b0:	0711      	lsls	r1, r2, #28
 80071b2:	bf44      	itt	mi
 80071b4:	232b      	movmi	r3, #43	@ 0x2b
 80071b6:	f88d 3053 	strbmi.w	r3, [sp, #83]	@ 0x53
 80071ba:	f89a 3000 	ldrb.w	r3, [sl]
 80071be:	2b2a      	cmp	r3, #42	@ 0x2a
 80071c0:	d015      	beq.n	80071ee <_svfiprintf_r+0xfa>
 80071c2:	9a07      	ldr	r2, [sp, #28]
 80071c4:	4654      	mov	r4, sl
 80071c6:	2000      	movs	r0, #0
 80071c8:	f04f 0c0a 	mov.w	ip, #10
 80071cc:	4621      	mov	r1, r4
 80071ce:	f811 3b01 	ldrb.w	r3, [r1], #1
 80071d2:	3b30      	subs	r3, #48	@ 0x30
 80071d4:	2b09      	cmp	r3, #9
 80071d6:	d94b      	bls.n	8007270 <_svfiprintf_r+0x17c>
 80071d8:	b1b0      	cbz	r0, 8007208 <_svfiprintf_r+0x114>
 80071da:	9207      	str	r2, [sp, #28]
 80071dc:	e014      	b.n	8007208 <_svfiprintf_r+0x114>
 80071de:	eba0 0308 	sub.w	r3, r0, r8
 80071e2:	fa09 f303 	lsl.w	r3, r9, r3
 80071e6:	4313      	orrs	r3, r2
 80071e8:	9304      	str	r3, [sp, #16]
 80071ea:	46a2      	mov	sl, r4
 80071ec:	e7d2      	b.n	8007194 <_svfiprintf_r+0xa0>
 80071ee:	9b03      	ldr	r3, [sp, #12]
 80071f0:	1d19      	adds	r1, r3, #4
 80071f2:	681b      	ldr	r3, [r3, #0]
 80071f4:	9103      	str	r1, [sp, #12]
 80071f6:	2b00      	cmp	r3, #0
 80071f8:	bfbb      	ittet	lt
 80071fa:	425b      	neglt	r3, r3
 80071fc:	f042 0202 	orrlt.w	r2, r2, #2
 8007200:	9307      	strge	r3, [sp, #28]
 8007202:	9307      	strlt	r3, [sp, #28]
 8007204:	bfb8      	it	lt
 8007206:	9204      	strlt	r2, [sp, #16]
 8007208:	7823      	ldrb	r3, [r4, #0]
 800720a:	2b2e      	cmp	r3, #46	@ 0x2e
 800720c:	d10a      	bne.n	8007224 <_svfiprintf_r+0x130>
 800720e:	7863      	ldrb	r3, [r4, #1]
 8007210:	2b2a      	cmp	r3, #42	@ 0x2a
 8007212:	d132      	bne.n	800727a <_svfiprintf_r+0x186>
 8007214:	9b03      	ldr	r3, [sp, #12]
 8007216:	1d1a      	adds	r2, r3, #4
 8007218:	681b      	ldr	r3, [r3, #0]
 800721a:	9203      	str	r2, [sp, #12]
 800721c:	ea43 73e3 	orr.w	r3, r3, r3, asr #31
 8007220:	3402      	adds	r4, #2
 8007222:	9305      	str	r3, [sp, #20]
 8007224:	f8df a0c0 	ldr.w	sl, [pc, #192]	@ 80072e8 <_svfiprintf_r+0x1f4>
 8007228:	7821      	ldrb	r1, [r4, #0]
 800722a:	2203      	movs	r2, #3
 800722c:	4650      	mov	r0, sl
 800722e:	f7f8 ffd7 	bl	80001e0 <memchr>
 8007232:	b138      	cbz	r0, 8007244 <_svfiprintf_r+0x150>
 8007234:	9b04      	ldr	r3, [sp, #16]
 8007236:	eba0 000a 	sub.w	r0, r0, sl
 800723a:	2240      	movs	r2, #64	@ 0x40
 800723c:	4082      	lsls	r2, r0
 800723e:	4313      	orrs	r3, r2
 8007240:	3401      	adds	r4, #1
 8007242:	9304      	str	r3, [sp, #16]
 8007244:	f814 1b01 	ldrb.w	r1, [r4], #1
 8007248:	4824      	ldr	r0, [pc, #144]	@ (80072dc <_svfiprintf_r+0x1e8>)
 800724a:	f88d 1028 	strb.w	r1, [sp, #40]	@ 0x28
 800724e:	2206      	movs	r2, #6
 8007250:	f7f8 ffc6 	bl	80001e0 <memchr>
 8007254:	2800      	cmp	r0, #0
 8007256:	d036      	beq.n	80072c6 <_svfiprintf_r+0x1d2>
 8007258:	4b21      	ldr	r3, [pc, #132]	@ (80072e0 <_svfiprintf_r+0x1ec>)
 800725a:	bb1b      	cbnz	r3, 80072a4 <_svfiprintf_r+0x1b0>
 800725c:	9b03      	ldr	r3, [sp, #12]
 800725e:	3307      	adds	r3, #7
 8007260:	f023 0307 	bic.w	r3, r3, #7
 8007264:	3308      	adds	r3, #8
 8007266:	9303      	str	r3, [sp, #12]
 8007268:	9b09      	ldr	r3, [sp, #36]	@ 0x24
 800726a:	4433      	add	r3, r6
 800726c:	9309      	str	r3, [sp, #36]	@ 0x24
 800726e:	e76a      	b.n	8007146 <_svfiprintf_r+0x52>
 8007270:	fb0c 3202 	mla	r2, ip, r2, r3
 8007274:	460c      	mov	r4, r1
 8007276:	2001      	movs	r0, #1
 8007278:	e7a8      	b.n	80071cc <_svfiprintf_r+0xd8>
 800727a:	2300      	movs	r3, #0
 800727c:	3401      	adds	r4, #1
 800727e:	9305      	str	r3, [sp, #20]
 8007280:	4619      	mov	r1, r3
 8007282:	f04f 0c0a 	mov.w	ip, #10
 8007286:	4620      	mov	r0, r4
 8007288:	f810 2b01 	ldrb.w	r2, [r0], #1
 800728c:	3a30      	subs	r2, #48	@ 0x30
 800728e:	2a09      	cmp	r2, #9
 8007290:	d903      	bls.n	800729a <_svfiprintf_r+0x1a6>
 8007292:	2b00      	cmp	r3, #0
 8007294:	d0c6      	beq.n	8007224 <_svfiprintf_r+0x130>
 8007296:	9105      	str	r1, [sp, #20]
 8007298:	e7c4      	b.n	8007224 <_svfiprintf_r+0x130>
 800729a:	fb0c 2101 	mla	r1, ip, r1, r2
 800729e:	4604      	mov	r4, r0
 80072a0:	2301      	movs	r3, #1
 80072a2:	e7f0      	b.n	8007286 <_svfiprintf_r+0x192>
 80072a4:	ab03      	add	r3, sp, #12
 80072a6:	9300      	str	r3, [sp, #0]
 80072a8:	462a      	mov	r2, r5
 80072aa:	4b0e      	ldr	r3, [pc, #56]	@ (80072e4 <_svfiprintf_r+0x1f0>)
 80072ac:	a904      	add	r1, sp, #16
 80072ae:	4638      	mov	r0, r7
 80072b0:	f7fc fbc6 	bl	8003a40 <_printf_float>
 80072b4:	1c42      	adds	r2, r0, #1
 80072b6:	4606      	mov	r6, r0
 80072b8:	d1d6      	bne.n	8007268 <_svfiprintf_r+0x174>
 80072ba:	89ab      	ldrh	r3, [r5, #12]
 80072bc:	065b      	lsls	r3, r3, #25
 80072be:	f53f af2d 	bmi.w	800711c <_svfiprintf_r+0x28>
 80072c2:	9809      	ldr	r0, [sp, #36]	@ 0x24
 80072c4:	e72c      	b.n	8007120 <_svfiprintf_r+0x2c>
 80072c6:	ab03      	add	r3, sp, #12
 80072c8:	9300      	str	r3, [sp, #0]
 80072ca:	462a      	mov	r2, r5
 80072cc:	4b05      	ldr	r3, [pc, #20]	@ (80072e4 <_svfiprintf_r+0x1f0>)
 80072ce:	a904      	add	r1, sp, #16
 80072d0:	4638      	mov	r0, r7
 80072d2:	f7fc fe4d 	bl	8003f70 <_printf_i>
 80072d6:	e7ed      	b.n	80072b4 <_svfiprintf_r+0x1c0>
 80072d8:	080088b1 	.word	0x080088b1
 80072dc:	080088bb 	.word	0x080088bb
 80072e0:	08003a41 	.word	0x08003a41
 80072e4:	0800703d 	.word	0x0800703d
 80072e8:	080088b7 	.word	0x080088b7

080072ec <__sfputc_r>:
 80072ec:	6893      	ldr	r3, [r2, #8]
 80072ee:	3b01      	subs	r3, #1
 80072f0:	2b00      	cmp	r3, #0
 80072f2:	b410      	push	{r4}
 80072f4:	6093      	str	r3, [r2, #8]
 80072f6:	da08      	bge.n	800730a <__sfputc_r+0x1e>
 80072f8:	6994      	ldr	r4, [r2, #24]
 80072fa:	42a3      	cmp	r3, r4
 80072fc:	db01      	blt.n	8007302 <__sfputc_r+0x16>
 80072fe:	290a      	cmp	r1, #10
 8007300:	d103      	bne.n	800730a <__sfputc_r+0x1e>
 8007302:	f85d 4b04 	ldr.w	r4, [sp], #4
 8007306:	f7fd bafc 	b.w	8004902 <__swbuf_r>
 800730a:	6813      	ldr	r3, [r2, #0]
 800730c:	1c58      	adds	r0, r3, #1
 800730e:	6010      	str	r0, [r2, #0]
 8007310:	7019      	strb	r1, [r3, #0]
 8007312:	4608      	mov	r0, r1
 8007314:	f85d 4b04 	ldr.w	r4, [sp], #4
 8007318:	4770      	bx	lr

0800731a <__sfputs_r>:
 800731a:	b5f8      	push	{r3, r4, r5, r6, r7, lr}
 800731c:	4606      	mov	r6, r0
 800731e:	460f      	mov	r7, r1
 8007320:	4614      	mov	r4, r2
 8007322:	18d5      	adds	r5, r2, r3
 8007324:	42ac      	cmp	r4, r5
 8007326:	d101      	bne.n	800732c <__sfputs_r+0x12>
 8007328:	2000      	movs	r0, #0
 800732a:	e007      	b.n	800733c <__sfputs_r+0x22>
 800732c:	f814 1b01 	ldrb.w	r1, [r4], #1
 8007330:	463a      	mov	r2, r7
 8007332:	4630      	mov	r0, r6
 8007334:	f7ff ffda 	bl	80072ec <__sfputc_r>
 8007338:	1c43      	adds	r3, r0, #1
 800733a:	d1f3      	bne.n	8007324 <__sfputs_r+0xa>
 800733c:	bdf8      	pop	{r3, r4, r5, r6, r7, pc}
	...

08007340 <_vfiprintf_r>:
 8007340:	e92d 4ff0 	stmdb	sp!, {r4, r5, r6, r7, r8, r9, sl, fp, lr}
 8007344:	460d      	mov	r5, r1
 8007346:	b09d      	sub	sp, #116	@ 0x74
 8007348:	4614      	mov	r4, r2
 800734a:	4698      	mov	r8, r3
 800734c:	4606      	mov	r6, r0
 800734e:	b118      	cbz	r0, 8007358 <_vfiprintf_r+0x18>
 8007350:	6a03      	ldr	r3, [r0, #32]
 8007352:	b90b      	cbnz	r3, 8007358 <_vfiprintf_r+0x18>
 8007354:	f7fd f9cc 	bl	80046f0 <__sinit>
 8007358:	6e6b      	ldr	r3, [r5, #100]	@ 0x64
 800735a:	07d9      	lsls	r1, r3, #31
 800735c:	d405      	bmi.n	800736a <_vfiprintf_r+0x2a>
 800735e:	89ab      	ldrh	r3, [r5, #12]
 8007360:	059a      	lsls	r2, r3, #22
 8007362:	d402      	bmi.n	800736a <_vfiprintf_r+0x2a>
 8007364:	6da8      	ldr	r0, [r5, #88]	@ 0x58
 8007366:	f7fd fbde 	bl	8004b26 <__retarget_lock_acquire_recursive>
 800736a:	89ab      	ldrh	r3, [r5, #12]
 800736c:	071b      	lsls	r3, r3, #28
 800736e:	d501      	bpl.n	8007374 <_vfiprintf_r+0x34>
 8007370:	692b      	ldr	r3, [r5, #16]
 8007372:	b99b      	cbnz	r3, 800739c <_vfiprintf_r+0x5c>
 8007374:	4629      	mov	r1, r5
 8007376:	4630      	mov	r0, r6
 8007378:	f7fd fb02 	bl	8004980 <__swsetup_r>
 800737c:	b170      	cbz	r0, 800739c <_vfiprintf_r+0x5c>
 800737e:	6e6b      	ldr	r3, [r5, #100]	@ 0x64
 8007380:	07dc      	lsls	r4, r3, #31
 8007382:	d504      	bpl.n	800738e <_vfiprintf_r+0x4e>
 8007384:	f04f 30ff 	mov.w	r0, #4294967295
 8007388:	b01d      	add	sp, #116	@ 0x74
 800738a:	e8bd 8ff0 	ldmia.w	sp!, {r4, r5, r6, r7, r8, r9, sl, fp, pc}
 800738e:	89ab      	ldrh	r3, [r5, #12]
 8007390:	0598      	lsls	r0, r3, #22
 8007392:	d4f7      	bmi.n	8007384 <_vfiprintf_r+0x44>
 8007394:	6da8      	ldr	r0, [r5, #88]	@ 0x58
 8007396:	f7fd fbc7 	bl	8004b28 <__retarget_lock_release_recursive>
 800739a:	e7f3      	b.n	8007384 <_vfiprintf_r+0x44>
 800739c:	2300      	movs	r3, #0
 800739e:	9309      	str	r3, [sp, #36]	@ 0x24
 80073a0:	2320      	movs	r3, #32
 80073a2:	f88d 3029 	strb.w	r3, [sp, #41]	@ 0x29
 80073a6:	f8cd 800c 	str.w	r8, [sp, #12]
 80073aa:	2330      	movs	r3, #48	@ 0x30
 80073ac:	f8df 81ac 	ldr.w	r8, [pc, #428]	@ 800755c <_vfiprintf_r+0x21c>
 80073b0:	f88d 302a 	strb.w	r3, [sp, #42]	@ 0x2a
 80073b4:	f04f 0901 	mov.w	r9, #1
 80073b8:	4623      	mov	r3, r4
 80073ba:	469a      	mov	sl, r3
 80073bc:	f813 2b01 	ldrb.w	r2, [r3], #1
 80073c0:	b10a      	cbz	r2, 80073c6 <_vfiprintf_r+0x86>
 80073c2:	2a25      	cmp	r2, #37	@ 0x25
 80073c4:	d1f9      	bne.n	80073ba <_vfiprintf_r+0x7a>
 80073c6:	ebba 0b04 	subs.w	fp, sl, r4
 80073ca:	d00b      	beq.n	80073e4 <_vfiprintf_r+0xa4>
 80073cc:	465b      	mov	r3, fp
 80073ce:	4622      	mov	r2, r4
 80073d0:	4629      	mov	r1, r5
 80073d2:	4630      	mov	r0, r6
 80073d4:	f7ff ffa1 	bl	800731a <__sfputs_r>
 80073d8:	3001      	adds	r0, #1
 80073da:	f000 80a7 	beq.w	800752c <_vfiprintf_r+0x1ec>
 80073de:	9a09      	ldr	r2, [sp, #36]	@ 0x24
 80073e0:	445a      	add	r2, fp
 80073e2:	9209      	str	r2, [sp, #36]	@ 0x24
 80073e4:	f89a 3000 	ldrb.w	r3, [sl]
 80073e8:	2b00      	cmp	r3, #0
 80073ea:	f000 809f 	beq.w	800752c <_vfiprintf_r+0x1ec>
 80073ee:	2300      	movs	r3, #0
 80073f0:	f04f 32ff 	mov.w	r2, #4294967295
 80073f4:	e9cd 2305 	strd	r2, r3, [sp, #20]
 80073f8:	f10a 0a01 	add.w	sl, sl, #1
 80073fc:	9304      	str	r3, [sp, #16]
 80073fe:	9307      	str	r3, [sp, #28]
 8007400:	f88d 3053 	strb.w	r3, [sp, #83]	@ 0x53
 8007404:	931a      	str	r3, [sp, #104]	@ 0x68
 8007406:	4654      	mov	r4, sl
 8007408:	2205      	movs	r2, #5
 800740a:	f814 1b01 	ldrb.w	r1, [r4], #1
 800740e:	4853      	ldr	r0, [pc, #332]	@ (800755c <_vfiprintf_r+0x21c>)
 8007410:	f7f8 fee6 	bl	80001e0 <memchr>
 8007414:	9a04      	ldr	r2, [sp, #16]
 8007416:	b9d8      	cbnz	r0, 8007450 <_vfiprintf_r+0x110>
 8007418:	06d1      	lsls	r1, r2, #27
 800741a:	bf44      	itt	mi
 800741c:	2320      	movmi	r3, #32
 800741e:	f88d 3053 	strbmi.w	r3, [sp, #83]	@ 0x53
 8007422:	0713      	lsls	r3, r2, #28
 8007424:	bf44      	itt	mi
 8007426:	232b      	movmi	r3, #43	@ 0x2b
 8007428:	f88d 3053 	strbmi.w	r3, [sp, #83]	@ 0x53
 800742c:	f89a 3000 	ldrb.w	r3, [sl]
 8007430:	2b2a      	cmp	r3, #42	@ 0x2a
 8007432:	d015      	beq.n	8007460 <_vfiprintf_r+0x120>
 8007434:	9a07      	ldr	r2, [sp, #28]
 8007436:	4654      	mov	r4, sl
 8007438:	2000      	movs	r0, #0
 800743a:	f04f 0c0a 	mov.w	ip, #10
 800743e:	4621      	mov	r1, r4
 8007440:	f811 3b01 	ldrb.w	r3, [r1], #1
 8007444:	3b30      	subs	r3, #48	@ 0x30
 8007446:	2b09      	cmp	r3, #9
 8007448:	d94b      	bls.n	80074e2 <_vfiprintf_r+0x1a2>
 800744a:	b1b0      	cbz	r0, 800747a <_vfiprintf_r+0x13a>
 800744c:	9207      	str	r2, [sp, #28]
 800744e:	e014      	b.n	800747a <_vfiprintf_r+0x13a>
 8007450:	eba0 0308 	sub.w	r3, r0, r8
 8007454:	fa09 f303 	lsl.w	r3, r9, r3
 8007458:	4313      	orrs	r3, r2
 800745a:	9304      	str	r3, [sp, #16]
 800745c:	46a2      	mov	sl, r4
 800745e:	e7d2      	b.n	8007406 <_vfiprintf_r+0xc6>
 8007460:	9b03      	ldr	r3, [sp, #12]
 8007462:	1d19      	adds	r1, r3, #4
 8007464:	681b      	ldr	r3, [r3, #0]
 8007466:	9103      	str	r1, [sp, #12]
 8007468:	2b00      	cmp	r3, #0
 800746a:	bfbb      	ittet	lt
 800746c:	425b      	neglt	r3, r3
 800746e:	f042 0202 	orrlt.w	r2, r2, #2
 8007472:	9307      	strge	r3, [sp, #28]
 8007474:	9307      	strlt	r3, [sp, #28]
 8007476:	bfb8      	it	lt
 8007478:	9204      	strlt	r2, [sp, #16]
 800747a:	7823      	ldrb	r3, [r4, #0]
 800747c:	2b2e      	cmp	r3, #46	@ 0x2e
 800747e:	d10a      	bne.n	8007496 <_vfiprintf_r+0x156>
 8007480:	7863      	ldrb	r3, [r4, #1]
 8007482:	2b2a      	cmp	r3, #42	@ 0x2a
 8007484:	d132      	bne.n	80074ec <_vfiprintf_r+0x1ac>
 8007486:	9b03      	ldr	r3, [sp, #12]
 8007488:	1d1a      	adds	r2, r3, #4
 800748a:	681b      	ldr	r3, [r3, #0]
 800748c:	9203      	str	r2, [sp, #12]
 800748e:	ea43 73e3 	orr.w	r3, r3, r3, asr #31
 8007492:	3402      	adds	r4, #2
 8007494:	9305      	str	r3, [sp, #20]
 8007496:	f8df a0d4 	ldr.w	sl, [pc, #212]	@ 800756c <_vfiprintf_r+0x22c>
 800749a:	7821      	ldrb	r1, [r4, #0]
 800749c:	2203      	movs	r2, #3
 800749e:	4650      	mov	r0, sl
 80074a0:	f7f8 fe9e 	bl	80001e0 <memchr>
 80074a4:	b138      	cbz	r0, 80074b6 <_vfiprintf_r+0x176>
 80074a6:	9b04      	ldr	r3, [sp, #16]
 80074a8:	eba0 000a 	sub.w	r0, r0, sl
 80074ac:	2240      	movs	r2, #64	@ 0x40
 80074ae:	4082      	lsls	r2, r0
 80074b0:	4313      	orrs	r3, r2
 80074b2:	3401      	adds	r4, #1
 80074b4:	9304      	str	r3, [sp, #16]
 80074b6:	f814 1b01 	ldrb.w	r1, [r4], #1
 80074ba:	4829      	ldr	r0, [pc, #164]	@ (8007560 <_vfiprintf_r+0x220>)
 80074bc:	f88d 1028 	strb.w	r1, [sp, #40]	@ 0x28
 80074c0:	2206      	movs	r2, #6
 80074c2:	f7f8 fe8d 	bl	80001e0 <memchr>
 80074c6:	2800      	cmp	r0, #0
 80074c8:	d03f      	beq.n	800754a <_vfiprintf_r+0x20a>
 80074ca:	4b26      	ldr	r3, [pc, #152]	@ (8007564 <_vfiprintf_r+0x224>)
 80074cc:	bb1b      	cbnz	r3, 8007516 <_vfiprintf_r+0x1d6>
 80074ce:	9b03      	ldr	r3, [sp, #12]
 80074d0:	3307      	adds	r3, #7
 80074d2:	f023 0307 	bic.w	r3, r3, #7
 80074d6:	3308      	adds	r3, #8
 80074d8:	9303      	str	r3, [sp, #12]
 80074da:	9b09      	ldr	r3, [sp, #36]	@ 0x24
 80074dc:	443b      	add	r3, r7
 80074de:	9309      	str	r3, [sp, #36]	@ 0x24
 80074e0:	e76a      	b.n	80073b8 <_vfiprintf_r+0x78>
 80074e2:	fb0c 3202 	mla	r2, ip, r2, r3
 80074e6:	460c      	mov	r4, r1
 80074e8:	2001      	movs	r0, #1
 80074ea:	e7a8      	b.n	800743e <_vfiprintf_r+0xfe>
 80074ec:	2300      	movs	r3, #0
 80074ee:	3401      	adds	r4, #1
 80074f0:	9305      	str	r3, [sp, #20]
 80074f2:	4619      	mov	r1, r3
 80074f4:	f04f 0c0a 	mov.w	ip, #10
 80074f8:	4620      	mov	r0, r4
 80074fa:	f810 2b01 	ldrb.w	r2, [r0], #1
 80074fe:	3a30      	subs	r2, #48	@ 0x30
 8007500:	2a09      	cmp	r2, #9
 8007502:	d903      	bls.n	800750c <_vfiprintf_r+0x1cc>
 8007504:	2b00      	cmp	r3, #0
 8007506:	d0c6      	beq.n	8007496 <_vfiprintf_r+0x156>
 8007508:	9105      	str	r1, [sp, #20]
 800750a:	e7c4      	b.n	8007496 <_vfiprintf_r+0x156>
 800750c:	fb0c 2101 	mla	r1, ip, r1, r2
 8007510:	4604      	mov	r4, r0
 8007512:	2301      	movs	r3, #1
 8007514:	e7f0      	b.n	80074f8 <_vfiprintf_r+0x1b8>
 8007516:	ab03      	add	r3, sp, #12
 8007518:	9300      	str	r3, [sp, #0]
 800751a:	462a      	mov	r2, r5
 800751c:	4b12      	ldr	r3, [pc, #72]	@ (8007568 <_vfiprintf_r+0x228>)
 800751e:	a904      	add	r1, sp, #16
 8007520:	4630      	mov	r0, r6
 8007522:	f7fc fa8d 	bl	8003a40 <_printf_float>
 8007526:	4607      	mov	r7, r0
 8007528:	1c78      	adds	r0, r7, #1
 800752a:	d1d6      	bne.n	80074da <_vfiprintf_r+0x19a>
 800752c:	6e6b      	ldr	r3, [r5, #100]	@ 0x64
 800752e:	07d9      	lsls	r1, r3, #31
 8007530:	d405      	bmi.n	800753e <_vfiprintf_r+0x1fe>
 8007532:	89ab      	ldrh	r3, [r5, #12]
 8007534:	059a      	lsls	r2, r3, #22
 8007536:	d402      	bmi.n	800753e <_vfiprintf_r+0x1fe>
 8007538:	6da8      	ldr	r0, [r5, #88]	@ 0x58
 800753a:	f7fd faf5 	bl	8004b28 <__retarget_lock_release_recursive>
 800753e:	89ab      	ldrh	r3, [r5, #12]
 8007540:	065b      	lsls	r3, r3, #25
 8007542:	f53f af1f 	bmi.w	8007384 <_vfiprintf_r+0x44>
 8007546:	9809      	ldr	r0, [sp, #36]	@ 0x24
 8007548:	e71e      	b.n	8007388 <_vfiprintf_r+0x48>
 800754a:	ab03      	add	r3, sp, #12
 800754c:	9300      	str	r3, [sp, #0]
 800754e:	462a      	mov	r2, r5
 8007550:	4b05      	ldr	r3, [pc, #20]	@ (8007568 <_vfiprintf_r+0x228>)
 8007552:	a904      	add	r1, sp, #16
 8007554:	4630      	mov	r0, r6
 8007556:	f7fc fd0b 	bl	8003f70 <_printf_i>
 800755a:	e7e4      	b.n	8007526 <_vfiprintf_r+0x1e6>
 800755c:	080088b1 	.word	0x080088b1
 8007560:	080088bb 	.word	0x080088bb
 8007564:	08003a41 	.word	0x08003a41
 8007568:	0800731b 	.word	0x0800731b
 800756c:	080088b7 	.word	0x080088b7

08007570 <__sflush_r>:
 8007570:	f9b1 200c 	ldrsh.w	r2, [r1, #12]
 8007574:	e92d 41f0 	stmdb	sp!, {r4, r5, r6, r7, r8, lr}
 8007578:	0716      	lsls	r6, r2, #28
 800757a:	4605      	mov	r5, r0
 800757c:	460c      	mov	r4, r1
 800757e:	d454      	bmi.n	800762a <__sflush_r+0xba>
 8007580:	684b      	ldr	r3, [r1, #4]
 8007582:	2b00      	cmp	r3, #0
 8007584:	dc02      	bgt.n	800758c <__sflush_r+0x1c>
 8007586:	6c0b      	ldr	r3, [r1, #64]	@ 0x40
 8007588:	2b00      	cmp	r3, #0
 800758a:	dd48      	ble.n	800761e <__sflush_r+0xae>
 800758c:	6ae6      	ldr	r6, [r4, #44]	@ 0x2c
 800758e:	2e00      	cmp	r6, #0
 8007590:	d045      	beq.n	800761e <__sflush_r+0xae>
 8007592:	2300      	movs	r3, #0
 8007594:	f412 5280 	ands.w	r2, r2, #4096	@ 0x1000
 8007598:	682f      	ldr	r7, [r5, #0]
 800759a:	6a21      	ldr	r1, [r4, #32]
 800759c:	602b      	str	r3, [r5, #0]
 800759e:	d030      	beq.n	8007602 <__sflush_r+0x92>
 80075a0:	6d62      	ldr	r2, [r4, #84]	@ 0x54
 80075a2:	89a3      	ldrh	r3, [r4, #12]
 80075a4:	0759      	lsls	r1, r3, #29
 80075a6:	d505      	bpl.n	80075b4 <__sflush_r+0x44>
 80075a8:	6863      	ldr	r3, [r4, #4]
 80075aa:	1ad2      	subs	r2, r2, r3
 80075ac:	6b63      	ldr	r3, [r4, #52]	@ 0x34
 80075ae:	b10b      	cbz	r3, 80075b4 <__sflush_r+0x44>
 80075b0:	6c23      	ldr	r3, [r4, #64]	@ 0x40
 80075b2:	1ad2      	subs	r2, r2, r3
 80075b4:	2300      	movs	r3, #0
 80075b6:	6ae6      	ldr	r6, [r4, #44]	@ 0x2c
 80075b8:	6a21      	ldr	r1, [r4, #32]
 80075ba:	4628      	mov	r0, r5
 80075bc:	47b0      	blx	r6
 80075be:	1c43      	adds	r3, r0, #1
 80075c0:	89a3      	ldrh	r3, [r4, #12]
 80075c2:	d106      	bne.n	80075d2 <__sflush_r+0x62>
 80075c4:	6829      	ldr	r1, [r5, #0]
 80075c6:	291d      	cmp	r1, #29
 80075c8:	d82b      	bhi.n	8007622 <__sflush_r+0xb2>
 80075ca:	4a2a      	ldr	r2, [pc, #168]	@ (8007674 <__sflush_r+0x104>)
 80075cc:	410a      	asrs	r2, r1
 80075ce:	07d6      	lsls	r6, r2, #31
 80075d0:	d427      	bmi.n	8007622 <__sflush_r+0xb2>
 80075d2:	2200      	movs	r2, #0
 80075d4:	6062      	str	r2, [r4, #4]
 80075d6:	04d9      	lsls	r1, r3, #19
 80075d8:	6922      	ldr	r2, [r4, #16]
 80075da:	6022      	str	r2, [r4, #0]
 80075dc:	d504      	bpl.n	80075e8 <__sflush_r+0x78>
 80075de:	1c42      	adds	r2, r0, #1
 80075e0:	d101      	bne.n	80075e6 <__sflush_r+0x76>
 80075e2:	682b      	ldr	r3, [r5, #0]
 80075e4:	b903      	cbnz	r3, 80075e8 <__sflush_r+0x78>
 80075e6:	6560      	str	r0, [r4, #84]	@ 0x54
 80075e8:	6b61      	ldr	r1, [r4, #52]	@ 0x34
 80075ea:	602f      	str	r7, [r5, #0]
 80075ec:	b1b9      	cbz	r1, 800761e <__sflush_r+0xae>
 80075ee:	f104 0344 	add.w	r3, r4, #68	@ 0x44
 80075f2:	4299      	cmp	r1, r3
 80075f4:	d002      	beq.n	80075fc <__sflush_r+0x8c>
 80075f6:	4628      	mov	r0, r5
 80075f8:	f7fe f8ea 	bl	80057d0 <_free_r>
 80075fc:	2300      	movs	r3, #0
 80075fe:	6363      	str	r3, [r4, #52]	@ 0x34
 8007600:	e00d      	b.n	800761e <__sflush_r+0xae>
 8007602:	2301      	movs	r3, #1
 8007604:	4628      	mov	r0, r5
 8007606:	47b0      	blx	r6
 8007608:	4602      	mov	r2, r0
 800760a:	1c50      	adds	r0, r2, #1
 800760c:	d1c9      	bne.n	80075a2 <__sflush_r+0x32>
 800760e:	682b      	ldr	r3, [r5, #0]
 8007610:	2b00      	cmp	r3, #0
 8007612:	d0c6      	beq.n	80075a2 <__sflush_r+0x32>
 8007614:	2b1d      	cmp	r3, #29
 8007616:	d001      	beq.n	800761c <__sflush_r+0xac>
 8007618:	2b16      	cmp	r3, #22
 800761a:	d11e      	bne.n	800765a <__sflush_r+0xea>
 800761c:	602f      	str	r7, [r5, #0]
 800761e:	2000      	movs	r0, #0
 8007620:	e022      	b.n	8007668 <__sflush_r+0xf8>
 8007622:	f043 0340 	orr.w	r3, r3, #64	@ 0x40
 8007626:	b21b      	sxth	r3, r3
 8007628:	e01b      	b.n	8007662 <__sflush_r+0xf2>
 800762a:	690f      	ldr	r7, [r1, #16]
 800762c:	2f00      	cmp	r7, #0
 800762e:	d0f6      	beq.n	800761e <__sflush_r+0xae>
 8007630:	0793      	lsls	r3, r2, #30
 8007632:	680e      	ldr	r6, [r1, #0]
 8007634:	bf08      	it	eq
 8007636:	694b      	ldreq	r3, [r1, #20]
 8007638:	600f      	str	r7, [r1, #0]
 800763a:	bf18      	it	ne
 800763c:	2300      	movne	r3, #0
 800763e:	eba6 0807 	sub.w	r8, r6, r7
 8007642:	608b      	str	r3, [r1, #8]
 8007644:	f1b8 0f00 	cmp.w	r8, #0
 8007648:	dde9      	ble.n	800761e <__sflush_r+0xae>
 800764a:	6a21      	ldr	r1, [r4, #32]
 800764c:	6aa6      	ldr	r6, [r4, #40]	@ 0x28
 800764e:	4643      	mov	r3, r8
 8007650:	463a      	mov	r2, r7
 8007652:	4628      	mov	r0, r5
 8007654:	47b0      	blx	r6
 8007656:	2800      	cmp	r0, #0
 8007658:	dc08      	bgt.n	800766c <__sflush_r+0xfc>
 800765a:	f9b4 300c 	ldrsh.w	r3, [r4, #12]
 800765e:	f043 0340 	orr.w	r3, r3, #64	@ 0x40
 8007662:	81a3      	strh	r3, [r4, #12]
 8007664:	f04f 30ff 	mov.w	r0, #4294967295
 8007668:	e8bd 81f0 	ldmia.w	sp!, {r4, r5, r6, r7, r8, pc}
 800766c:	4407      	add	r7, r0
 800766e:	eba8 0800 	sub.w	r8, r8, r0
 8007672:	e7e7      	b.n	8007644 <__sflush_r+0xd4>
 8007674:	dfbffffe 	.word	0xdfbffffe

08007678 <_fflush_r>:
 8007678:	b538      	push	{r3, r4, r5, lr}
 800767a:	690b      	ldr	r3, [r1, #16]
 800767c:	4605      	mov	r5, r0
 800767e:	460c      	mov	r4, r1
 8007680:	b913      	cbnz	r3, 8007688 <_fflush_r+0x10>
 8007682:	2500      	movs	r5, #0
 8007684:	4628      	mov	r0, r5
 8007686:	bd38      	pop	{r3, r4, r5, pc}
 8007688:	b118      	cbz	r0, 8007692 <_fflush_r+0x1a>
 800768a:	6a03      	ldr	r3, [r0, #32]
 800768c:	b90b      	cbnz	r3, 8007692 <_fflush_r+0x1a>
 800768e:	f7fd f82f 	bl	80046f0 <__sinit>
 8007692:	f9b4 300c 	ldrsh.w	r3, [r4, #12]
 8007696:	2b00      	cmp	r3, #0
 8007698:	d0f3      	beq.n	8007682 <_fflush_r+0xa>
 800769a:	6e62      	ldr	r2, [r4, #100]	@ 0x64
 800769c:	07d0      	lsls	r0, r2, #31
 800769e:	d404      	bmi.n	80076aa <_fflush_r+0x32>
 80076a0:	0599      	lsls	r1, r3, #22
 80076a2:	d402      	bmi.n	80076aa <_fflush_r+0x32>
 80076a4:	6da0      	ldr	r0, [r4, #88]	@ 0x58
 80076a6:	f7fd fa3e 	bl	8004b26 <__retarget_lock_acquire_recursive>
 80076aa:	4628      	mov	r0, r5
 80076ac:	4621      	mov	r1, r4
 80076ae:	f7ff ff5f 	bl	8007570 <__sflush_r>
 80076b2:	6e63      	ldr	r3, [r4, #100]	@ 0x64
 80076b4:	07da      	lsls	r2, r3, #31
 80076b6:	4605      	mov	r5, r0
 80076b8:	d4e4      	bmi.n	8007684 <_fflush_r+0xc>
 80076ba:	89a3      	ldrh	r3, [r4, #12]
 80076bc:	059b      	lsls	r3, r3, #22
 80076be:	d4e1      	bmi.n	8007684 <_fflush_r+0xc>
 80076c0:	6da0      	ldr	r0, [r4, #88]	@ 0x58
 80076c2:	f7fd fa31 	bl	8004b28 <__retarget_lock_release_recursive>
 80076c6:	e7dd      	b.n	8007684 <_fflush_r+0xc>

080076c8 <__swhatbuf_r>:
 80076c8:	b570      	push	{r4, r5, r6, lr}
 80076ca:	460c      	mov	r4, r1
 80076cc:	f9b1 100e 	ldrsh.w	r1, [r1, #14]
 80076d0:	2900      	cmp	r1, #0
 80076d2:	b096      	sub	sp, #88	@ 0x58
 80076d4:	4615      	mov	r5, r2
 80076d6:	461e      	mov	r6, r3
 80076d8:	da0d      	bge.n	80076f6 <__swhatbuf_r+0x2e>
 80076da:	89a3      	ldrh	r3, [r4, #12]
 80076dc:	f013 0f80 	tst.w	r3, #128	@ 0x80
 80076e0:	f04f 0100 	mov.w	r1, #0
 80076e4:	bf14      	ite	ne
 80076e6:	2340      	movne	r3, #64	@ 0x40
 80076e8:	f44f 6380 	moveq.w	r3, #1024	@ 0x400
 80076ec:	2000      	movs	r0, #0
 80076ee:	6031      	str	r1, [r6, #0]
 80076f0:	602b      	str	r3, [r5, #0]
 80076f2:	b016      	add	sp, #88	@ 0x58
 80076f4:	bd70      	pop	{r4, r5, r6, pc}
 80076f6:	466a      	mov	r2, sp
 80076f8:	f000 f874 	bl	80077e4 <_fstat_r>
 80076fc:	2800      	cmp	r0, #0
 80076fe:	dbec      	blt.n	80076da <__swhatbuf_r+0x12>
 8007700:	9901      	ldr	r1, [sp, #4]
 8007702:	f401 4170 	and.w	r1, r1, #61440	@ 0xf000
 8007706:	f5a1 5300 	sub.w	r3, r1, #8192	@ 0x2000
 800770a:	4259      	negs	r1, r3
 800770c:	4159      	adcs	r1, r3
 800770e:	f44f 6380 	mov.w	r3, #1024	@ 0x400
 8007712:	e7eb      	b.n	80076ec <__swhatbuf_r+0x24>

08007714 <__smakebuf_r>:
 8007714:	898b      	ldrh	r3, [r1, #12]
 8007716:	b5f7      	push	{r0, r1, r2, r4, r5, r6, r7, lr}
 8007718:	079d      	lsls	r5, r3, #30
 800771a:	4606      	mov	r6, r0
 800771c:	460c      	mov	r4, r1
 800771e:	d507      	bpl.n	8007730 <__smakebuf_r+0x1c>
 8007720:	f104 0347 	add.w	r3, r4, #71	@ 0x47
 8007724:	6023      	str	r3, [r4, #0]
 8007726:	6123      	str	r3, [r4, #16]
 8007728:	2301      	movs	r3, #1
 800772a:	6163      	str	r3, [r4, #20]
 800772c:	b003      	add	sp, #12
 800772e:	bdf0      	pop	{r4, r5, r6, r7, pc}
 8007730:	ab01      	add	r3, sp, #4
 8007732:	466a      	mov	r2, sp
 8007734:	f7ff ffc8 	bl	80076c8 <__swhatbuf_r>
 8007738:	9f00      	ldr	r7, [sp, #0]
 800773a:	4605      	mov	r5, r0
 800773c:	4639      	mov	r1, r7
 800773e:	4630      	mov	r0, r6
 8007740:	f7fe f8ba 	bl	80058b8 <_malloc_r>
 8007744:	b948      	cbnz	r0, 800775a <__smakebuf_r+0x46>
 8007746:	f9b4 300c 	ldrsh.w	r3, [r4, #12]
 800774a:	059a      	lsls	r2, r3, #22
 800774c:	d4ee      	bmi.n	800772c <__smakebuf_r+0x18>
 800774e:	f023 0303 	bic.w	r3, r3, #3
 8007752:	f043 0302 	orr.w	r3, r3, #2
 8007756:	81a3      	strh	r3, [r4, #12]
 8007758:	e7e2      	b.n	8007720 <__smakebuf_r+0xc>
 800775a:	89a3      	ldrh	r3, [r4, #12]
 800775c:	6020      	str	r0, [r4, #0]
 800775e:	f043 0380 	orr.w	r3, r3, #128	@ 0x80
 8007762:	81a3      	strh	r3, [r4, #12]
 8007764:	9b01      	ldr	r3, [sp, #4]
 8007766:	e9c4 0704 	strd	r0, r7, [r4, #16]
 800776a:	b15b      	cbz	r3, 8007784 <__smakebuf_r+0x70>
 800776c:	f9b4 100e 	ldrsh.w	r1, [r4, #14]
 8007770:	4630      	mov	r0, r6
 8007772:	f000 f849 	bl	8007808 <_isatty_r>
 8007776:	b128      	cbz	r0, 8007784 <__smakebuf_r+0x70>
 8007778:	89a3      	ldrh	r3, [r4, #12]
 800777a:	f023 0303 	bic.w	r3, r3, #3
 800777e:	f043 0301 	orr.w	r3, r3, #1
 8007782:	81a3      	strh	r3, [r4, #12]
 8007784:	89a3      	ldrh	r3, [r4, #12]
 8007786:	431d      	orrs	r5, r3
 8007788:	81a5      	strh	r5, [r4, #12]
 800778a:	e7cf      	b.n	800772c <__smakebuf_r+0x18>

0800778c <memmove>:
 800778c:	4288      	cmp	r0, r1
 800778e:	b510      	push	{r4, lr}
 8007790:	eb01 0402 	add.w	r4, r1, r2
 8007794:	d902      	bls.n	800779c <memmove+0x10>
 8007796:	4284      	cmp	r4, r0
 8007798:	4623      	mov	r3, r4
 800779a:	d807      	bhi.n	80077ac <memmove+0x20>
 800779c:	1e43      	subs	r3, r0, #1
 800779e:	42a1      	cmp	r1, r4
 80077a0:	d008      	beq.n	80077b4 <memmove+0x28>
 80077a2:	f811 2b01 	ldrb.w	r2, [r1], #1
 80077a6:	f803 2f01 	strb.w	r2, [r3, #1]!
 80077aa:	e7f8      	b.n	800779e <memmove+0x12>
 80077ac:	4402      	add	r2, r0
 80077ae:	4601      	mov	r1, r0
 80077b0:	428a      	cmp	r2, r1
 80077b2:	d100      	bne.n	80077b6 <memmove+0x2a>
 80077b4:	bd10      	pop	{r4, pc}
 80077b6:	f813 4d01 	ldrb.w	r4, [r3, #-1]!
 80077ba:	f802 4d01 	strb.w	r4, [r2, #-1]!
 80077be:	e7f7      	b.n	80077b0 <memmove+0x24>

080077c0 <strncmp>:
 80077c0:	b510      	push	{r4, lr}
 80077c2:	b16a      	cbz	r2, 80077e0 <strncmp+0x20>
 80077c4:	3901      	subs	r1, #1
 80077c6:	1884      	adds	r4, r0, r2
 80077c8:	f810 2b01 	ldrb.w	r2, [r0], #1
 80077cc:	f811 3f01 	ldrb.w	r3, [r1, #1]!
 80077d0:	429a      	cmp	r2, r3
 80077d2:	d103      	bne.n	80077dc <strncmp+0x1c>
 80077d4:	42a0      	cmp	r0, r4
 80077d6:	d001      	beq.n	80077dc <strncmp+0x1c>
 80077d8:	2a00      	cmp	r2, #0
 80077da:	d1f5      	bne.n	80077c8 <strncmp+0x8>
 80077dc:	1ad0      	subs	r0, r2, r3
 80077de:	bd10      	pop	{r4, pc}
 80077e0:	4610      	mov	r0, r2
 80077e2:	e7fc      	b.n	80077de <strncmp+0x1e>

080077e4 <_fstat_r>:
 80077e4:	b538      	push	{r3, r4, r5, lr}
 80077e6:	4d07      	ldr	r5, [pc, #28]	@ (8007804 <_fstat_r+0x20>)
 80077e8:	2300      	movs	r3, #0
 80077ea:	4604      	mov	r4, r0
 80077ec:	4608      	mov	r0, r1
 80077ee:	4611      	mov	r1, r2
 80077f0:	602b      	str	r3, [r5, #0]
 80077f2:	f7f9 ffd8 	bl	80017a6 <_fstat>
 80077f6:	1c43      	adds	r3, r0, #1
 80077f8:	d102      	bne.n	8007800 <_fstat_r+0x1c>
 80077fa:	682b      	ldr	r3, [r5, #0]
 80077fc:	b103      	cbz	r3, 8007800 <_fstat_r+0x1c>
 80077fe:	6023      	str	r3, [r4, #0]
 8007800:	bd38      	pop	{r3, r4, r5, pc}
 8007802:	bf00      	nop
 8007804:	200003c4 	.word	0x200003c4

08007808 <_isatty_r>:
 8007808:	b538      	push	{r3, r4, r5, lr}
 800780a:	4d06      	ldr	r5, [pc, #24]	@ (8007824 <_isatty_r+0x1c>)
 800780c:	2300      	movs	r3, #0
 800780e:	4604      	mov	r4, r0
 8007810:	4608      	mov	r0, r1
 8007812:	602b      	str	r3, [r5, #0]
 8007814:	f7f9 ffd7 	bl	80017c6 <_isatty>
 8007818:	1c43      	adds	r3, r0, #1
 800781a:	d102      	bne.n	8007822 <_isatty_r+0x1a>
 800781c:	682b      	ldr	r3, [r5, #0]
 800781e:	b103      	cbz	r3, 8007822 <_isatty_r+0x1a>
 8007820:	6023      	str	r3, [r4, #0]
 8007822:	bd38      	pop	{r3, r4, r5, pc}
 8007824:	200003c4 	.word	0x200003c4

08007828 <_sbrk_r>:
 8007828:	b538      	push	{r3, r4, r5, lr}
 800782a:	4d06      	ldr	r5, [pc, #24]	@ (8007844 <_sbrk_r+0x1c>)
 800782c:	2300      	movs	r3, #0
 800782e:	4604      	mov	r4, r0
 8007830:	4608      	mov	r0, r1
 8007832:	602b      	str	r3, [r5, #0]
 8007834:	f7f9 ffe0 	bl	80017f8 <_sbrk>
 8007838:	1c43      	adds	r3, r0, #1
 800783a:	d102      	bne.n	8007842 <_sbrk_r+0x1a>
 800783c:	682b      	ldr	r3, [r5, #0]
 800783e:	b103      	cbz	r3, 8007842 <_sbrk_r+0x1a>
 8007840:	6023      	str	r3, [r4, #0]
 8007842:	bd38      	pop	{r3, r4, r5, pc}
 8007844:	200003c4 	.word	0x200003c4

08007848 <memcpy>:
 8007848:	440a      	add	r2, r1
 800784a:	4291      	cmp	r1, r2
 800784c:	f100 33ff 	add.w	r3, r0, #4294967295
 8007850:	d100      	bne.n	8007854 <memcpy+0xc>
 8007852:	4770      	bx	lr
 8007854:	b510      	push	{r4, lr}
 8007856:	f811 4b01 	ldrb.w	r4, [r1], #1
 800785a:	f803 4f01 	strb.w	r4, [r3, #1]!
 800785e:	4291      	cmp	r1, r2
 8007860:	d1f9      	bne.n	8007856 <memcpy+0xe>
 8007862:	bd10      	pop	{r4, pc}
 8007864:	0000      	movs	r0, r0
	...

08007868 <nan>:
 8007868:	ed9f 0b01 	vldr	d0, [pc, #4]	@ 8007870 <nan+0x8>
 800786c:	4770      	bx	lr
 800786e:	bf00      	nop
 8007870:	00000000 	.word	0x00000000
 8007874:	7ff80000 	.word	0x7ff80000

08007878 <__assert_func>:
 8007878:	b51f      	push	{r0, r1, r2, r3, r4, lr}
 800787a:	4614      	mov	r4, r2
 800787c:	461a      	mov	r2, r3
 800787e:	4b09      	ldr	r3, [pc, #36]	@ (80078a4 <__assert_func+0x2c>)
 8007880:	681b      	ldr	r3, [r3, #0]
 8007882:	4605      	mov	r5, r0
 8007884:	68d8      	ldr	r0, [r3, #12]
 8007886:	b954      	cbnz	r4, 800789e <__assert_func+0x26>
 8007888:	4b07      	ldr	r3, [pc, #28]	@ (80078a8 <__assert_func+0x30>)
 800788a:	461c      	mov	r4, r3
 800788c:	e9cd 3401 	strd	r3, r4, [sp, #4]
 8007890:	9100      	str	r1, [sp, #0]
 8007892:	462b      	mov	r3, r5
 8007894:	4905      	ldr	r1, [pc, #20]	@ (80078ac <__assert_func+0x34>)
 8007896:	f000 fba7 	bl	8007fe8 <fiprintf>
 800789a:	f000 fbb7 	bl	800800c <abort>
 800789e:	4b04      	ldr	r3, [pc, #16]	@ (80078b0 <__assert_func+0x38>)
 80078a0:	e7f4      	b.n	800788c <__assert_func+0x14>
 80078a2:	bf00      	nop
 80078a4:	20000018 	.word	0x20000018
 80078a8:	08008905 	.word	0x08008905
 80078ac:	080088d7 	.word	0x080088d7
 80078b0:	080088ca 	.word	0x080088ca

080078b4 <_calloc_r>:
 80078b4:	b570      	push	{r4, r5, r6, lr}
 80078b6:	fba1 5402 	umull	r5, r4, r1, r2
 80078ba:	b93c      	cbnz	r4, 80078cc <_calloc_r+0x18>
 80078bc:	4629      	mov	r1, r5
 80078be:	f7fd fffb 	bl	80058b8 <_malloc_r>
 80078c2:	4606      	mov	r6, r0
 80078c4:	b928      	cbnz	r0, 80078d2 <_calloc_r+0x1e>
 80078c6:	2600      	movs	r6, #0
 80078c8:	4630      	mov	r0, r6
 80078ca:	bd70      	pop	{r4, r5, r6, pc}
 80078cc:	220c      	movs	r2, #12
 80078ce:	6002      	str	r2, [r0, #0]
 80078d0:	e7f9      	b.n	80078c6 <_calloc_r+0x12>
 80078d2:	462a      	mov	r2, r5
 80078d4:	4621      	mov	r1, r4
 80078d6:	f7fd f8a9 	bl	8004a2c <memset>
 80078da:	e7f5      	b.n	80078c8 <_calloc_r+0x14>

080078dc <rshift>:
 80078dc:	6903      	ldr	r3, [r0, #16]
 80078de:	ebb3 1f61 	cmp.w	r3, r1, asr #5
 80078e2:	e92d 43f0 	stmdb	sp!, {r4, r5, r6, r7, r8, r9, lr}
 80078e6:	ea4f 1261 	mov.w	r2, r1, asr #5
 80078ea:	f100 0414 	add.w	r4, r0, #20
 80078ee:	dd45      	ble.n	800797c <rshift+0xa0>
 80078f0:	f011 011f 	ands.w	r1, r1, #31
 80078f4:	eb04 0683 	add.w	r6, r4, r3, lsl #2
 80078f8:	eb04 0582 	add.w	r5, r4, r2, lsl #2
 80078fc:	d10c      	bne.n	8007918 <rshift+0x3c>
 80078fe:	f100 0710 	add.w	r7, r0, #16
 8007902:	4629      	mov	r1, r5
 8007904:	42b1      	cmp	r1, r6
 8007906:	d334      	bcc.n	8007972 <rshift+0x96>
 8007908:	1a9b      	subs	r3, r3, r2
 800790a:	009b      	lsls	r3, r3, #2
 800790c:	1eea      	subs	r2, r5, #3
 800790e:	4296      	cmp	r6, r2
 8007910:	bf38      	it	cc
 8007912:	2300      	movcc	r3, #0
 8007914:	4423      	add	r3, r4
 8007916:	e015      	b.n	8007944 <rshift+0x68>
 8007918:	f854 7022 	ldr.w	r7, [r4, r2, lsl #2]
 800791c:	f1c1 0820 	rsb	r8, r1, #32
 8007920:	40cf      	lsrs	r7, r1
 8007922:	f105 0e04 	add.w	lr, r5, #4
 8007926:	46a1      	mov	r9, r4
 8007928:	4576      	cmp	r6, lr
 800792a:	46f4      	mov	ip, lr
 800792c:	d815      	bhi.n	800795a <rshift+0x7e>
 800792e:	1a9a      	subs	r2, r3, r2
 8007930:	0092      	lsls	r2, r2, #2
 8007932:	3a04      	subs	r2, #4
 8007934:	3501      	adds	r5, #1
 8007936:	42ae      	cmp	r6, r5
 8007938:	bf38      	it	cc
 800793a:	2200      	movcc	r2, #0
 800793c:	18a3      	adds	r3, r4, r2
 800793e:	50a7      	str	r7, [r4, r2]
 8007940:	b107      	cbz	r7, 8007944 <rshift+0x68>
 8007942:	3304      	adds	r3, #4
 8007944:	1b1a      	subs	r2, r3, r4
 8007946:	42a3      	cmp	r3, r4
 8007948:	ea4f 02a2 	mov.w	r2, r2, asr #2
 800794c:	bf08      	it	eq
 800794e:	2300      	moveq	r3, #0
 8007950:	6102      	str	r2, [r0, #16]
 8007952:	bf08      	it	eq
 8007954:	6143      	streq	r3, [r0, #20]
 8007956:	e8bd 83f0 	ldmia.w	sp!, {r4, r5, r6, r7, r8, r9, pc}
 800795a:	f8dc c000 	ldr.w	ip, [ip]
 800795e:	fa0c fc08 	lsl.w	ip, ip, r8
 8007962:	ea4c 0707 	orr.w	r7, ip, r7
 8007966:	f849 7b04 	str.w	r7, [r9], #4
 800796a:	f85e 7b04 	ldr.w	r7, [lr], #4
 800796e:	40cf      	lsrs	r7, r1
 8007970:	e7da      	b.n	8007928 <rshift+0x4c>
 8007972:	f851 cb04 	ldr.w	ip, [r1], #4
 8007976:	f847 cf04 	str.w	ip, [r7, #4]!
 800797a:	e7c3      	b.n	8007904 <rshift+0x28>
 800797c:	4623      	mov	r3, r4
 800797e:	e7e1      	b.n	8007944 <rshift+0x68>

08007980 <__hexdig_fun>:
 8007980:	f1a0 0330 	sub.w	r3, r0, #48	@ 0x30
 8007984:	2b09      	cmp	r3, #9
 8007986:	d802      	bhi.n	800798e <__hexdig_fun+0xe>
 8007988:	3820      	subs	r0, #32
 800798a:	b2c0      	uxtb	r0, r0
 800798c:	4770      	bx	lr
 800798e:	f1a0 0361 	sub.w	r3, r0, #97	@ 0x61
 8007992:	2b05      	cmp	r3, #5
 8007994:	d801      	bhi.n	800799a <__hexdig_fun+0x1a>
 8007996:	3847      	subs	r0, #71	@ 0x47
 8007998:	e7f7      	b.n	800798a <__hexdig_fun+0xa>
 800799a:	f1a0 0341 	sub.w	r3, r0, #65	@ 0x41
 800799e:	2b05      	cmp	r3, #5
 80079a0:	d801      	bhi.n	80079a6 <__hexdig_fun+0x26>
 80079a2:	3827      	subs	r0, #39	@ 0x27
 80079a4:	e7f1      	b.n	800798a <__hexdig_fun+0xa>
 80079a6:	2000      	movs	r0, #0
 80079a8:	4770      	bx	lr
	...

080079ac <__gethex>:
 80079ac:	e92d 4ff0 	stmdb	sp!, {r4, r5, r6, r7, r8, r9, sl, fp, lr}
 80079b0:	b085      	sub	sp, #20
 80079b2:	468a      	mov	sl, r1
 80079b4:	9302      	str	r3, [sp, #8]
 80079b6:	680b      	ldr	r3, [r1, #0]
 80079b8:	9001      	str	r0, [sp, #4]
 80079ba:	4690      	mov	r8, r2
 80079bc:	1c9c      	adds	r4, r3, #2
 80079be:	46a1      	mov	r9, r4
 80079c0:	f814 0b01 	ldrb.w	r0, [r4], #1
 80079c4:	2830      	cmp	r0, #48	@ 0x30
 80079c6:	d0fa      	beq.n	80079be <__gethex+0x12>
 80079c8:	eba9 0303 	sub.w	r3, r9, r3
 80079cc:	f1a3 0b02 	sub.w	fp, r3, #2
 80079d0:	f7ff ffd6 	bl	8007980 <__hexdig_fun>
 80079d4:	4605      	mov	r5, r0
 80079d6:	2800      	cmp	r0, #0
 80079d8:	d168      	bne.n	8007aac <__gethex+0x100>
 80079da:	49a0      	ldr	r1, [pc, #640]	@ (8007c5c <__gethex+0x2b0>)
 80079dc:	2201      	movs	r2, #1
 80079de:	4648      	mov	r0, r9
 80079e0:	f7ff feee 	bl	80077c0 <strncmp>
 80079e4:	4607      	mov	r7, r0
 80079e6:	2800      	cmp	r0, #0
 80079e8:	d167      	bne.n	8007aba <__gethex+0x10e>
 80079ea:	f899 0001 	ldrb.w	r0, [r9, #1]
 80079ee:	4626      	mov	r6, r4
 80079f0:	f7ff ffc6 	bl	8007980 <__hexdig_fun>
 80079f4:	2800      	cmp	r0, #0
 80079f6:	d062      	beq.n	8007abe <__gethex+0x112>
 80079f8:	4623      	mov	r3, r4
 80079fa:	7818      	ldrb	r0, [r3, #0]
 80079fc:	2830      	cmp	r0, #48	@ 0x30
 80079fe:	4699      	mov	r9, r3
 8007a00:	f103 0301 	add.w	r3, r3, #1
 8007a04:	d0f9      	beq.n	80079fa <__gethex+0x4e>
 8007a06:	f7ff ffbb 	bl	8007980 <__hexdig_fun>
 8007a0a:	fab0 f580 	clz	r5, r0
 8007a0e:	096d      	lsrs	r5, r5, #5
 8007a10:	f04f 0b01 	mov.w	fp, #1
 8007a14:	464a      	mov	r2, r9
 8007a16:	4616      	mov	r6, r2
 8007a18:	3201      	adds	r2, #1
 8007a1a:	7830      	ldrb	r0, [r6, #0]
 8007a1c:	f7ff ffb0 	bl	8007980 <__hexdig_fun>
 8007a20:	2800      	cmp	r0, #0
 8007a22:	d1f8      	bne.n	8007a16 <__gethex+0x6a>
 8007a24:	498d      	ldr	r1, [pc, #564]	@ (8007c5c <__gethex+0x2b0>)
 8007a26:	2201      	movs	r2, #1
 8007a28:	4630      	mov	r0, r6
 8007a2a:	f7ff fec9 	bl	80077c0 <strncmp>
 8007a2e:	2800      	cmp	r0, #0
 8007a30:	d13f      	bne.n	8007ab2 <__gethex+0x106>
 8007a32:	b944      	cbnz	r4, 8007a46 <__gethex+0x9a>
 8007a34:	1c74      	adds	r4, r6, #1
 8007a36:	4622      	mov	r2, r4
 8007a38:	4616      	mov	r6, r2
 8007a3a:	3201      	adds	r2, #1
 8007a3c:	7830      	ldrb	r0, [r6, #0]
 8007a3e:	f7ff ff9f 	bl	8007980 <__hexdig_fun>
 8007a42:	2800      	cmp	r0, #0
 8007a44:	d1f8      	bne.n	8007a38 <__gethex+0x8c>
 8007a46:	1ba4      	subs	r4, r4, r6
 8007a48:	00a7      	lsls	r7, r4, #2
 8007a4a:	7833      	ldrb	r3, [r6, #0]
 8007a4c:	f003 03df 	and.w	r3, r3, #223	@ 0xdf
 8007a50:	2b50      	cmp	r3, #80	@ 0x50
 8007a52:	d13e      	bne.n	8007ad2 <__gethex+0x126>
 8007a54:	7873      	ldrb	r3, [r6, #1]
 8007a56:	2b2b      	cmp	r3, #43	@ 0x2b
 8007a58:	d033      	beq.n	8007ac2 <__gethex+0x116>
 8007a5a:	2b2d      	cmp	r3, #45	@ 0x2d
 8007a5c:	d034      	beq.n	8007ac8 <__gethex+0x11c>
 8007a5e:	1c71      	adds	r1, r6, #1
 8007a60:	2400      	movs	r4, #0
 8007a62:	7808      	ldrb	r0, [r1, #0]
 8007a64:	f7ff ff8c 	bl	8007980 <__hexdig_fun>
 8007a68:	1e43      	subs	r3, r0, #1
 8007a6a:	b2db      	uxtb	r3, r3
 8007a6c:	2b18      	cmp	r3, #24
 8007a6e:	d830      	bhi.n	8007ad2 <__gethex+0x126>
 8007a70:	f1a0 0210 	sub.w	r2, r0, #16
 8007a74:	f811 0f01 	ldrb.w	r0, [r1, #1]!
 8007a78:	f7ff ff82 	bl	8007980 <__hexdig_fun>
 8007a7c:	f100 3cff 	add.w	ip, r0, #4294967295
 8007a80:	fa5f fc8c 	uxtb.w	ip, ip
 8007a84:	f1bc 0f18 	cmp.w	ip, #24
 8007a88:	f04f 030a 	mov.w	r3, #10
 8007a8c:	d91e      	bls.n	8007acc <__gethex+0x120>
 8007a8e:	b104      	cbz	r4, 8007a92 <__gethex+0xe6>
 8007a90:	4252      	negs	r2, r2
 8007a92:	4417      	add	r7, r2
 8007a94:	f8ca 1000 	str.w	r1, [sl]
 8007a98:	b1ed      	cbz	r5, 8007ad6 <__gethex+0x12a>
 8007a9a:	f1bb 0f00 	cmp.w	fp, #0
 8007a9e:	bf0c      	ite	eq
 8007aa0:	2506      	moveq	r5, #6
 8007aa2:	2500      	movne	r5, #0
 8007aa4:	4628      	mov	r0, r5
 8007aa6:	b005      	add	sp, #20
 8007aa8:	e8bd 8ff0 	ldmia.w	sp!, {r4, r5, r6, r7, r8, r9, sl, fp, pc}
 8007aac:	2500      	movs	r5, #0
 8007aae:	462c      	mov	r4, r5
 8007ab0:	e7b0      	b.n	8007a14 <__gethex+0x68>
 8007ab2:	2c00      	cmp	r4, #0
 8007ab4:	d1c7      	bne.n	8007a46 <__gethex+0x9a>
 8007ab6:	4627      	mov	r7, r4
 8007ab8:	e7c7      	b.n	8007a4a <__gethex+0x9e>
 8007aba:	464e      	mov	r6, r9
 8007abc:	462f      	mov	r7, r5
 8007abe:	2501      	movs	r5, #1
 8007ac0:	e7c3      	b.n	8007a4a <__gethex+0x9e>
 8007ac2:	2400      	movs	r4, #0
 8007ac4:	1cb1      	adds	r1, r6, #2
 8007ac6:	e7cc      	b.n	8007a62 <__gethex+0xb6>
 8007ac8:	2401      	movs	r4, #1
 8007aca:	e7fb      	b.n	8007ac4 <__gethex+0x118>
 8007acc:	fb03 0002 	mla	r0, r3, r2, r0
 8007ad0:	e7ce      	b.n	8007a70 <__gethex+0xc4>
 8007ad2:	4631      	mov	r1, r6
 8007ad4:	e7de      	b.n	8007a94 <__gethex+0xe8>
 8007ad6:	eba6 0309 	sub.w	r3, r6, r9
 8007ada:	3b01      	subs	r3, #1
 8007adc:	4629      	mov	r1, r5
 8007ade:	2b07      	cmp	r3, #7
 8007ae0:	dc0a      	bgt.n	8007af8 <__gethex+0x14c>
 8007ae2:	9801      	ldr	r0, [sp, #4]
 8007ae4:	f7fd ff74 	bl	80059d0 <_Balloc>
 8007ae8:	4604      	mov	r4, r0
 8007aea:	b940      	cbnz	r0, 8007afe <__gethex+0x152>
 8007aec:	4b5c      	ldr	r3, [pc, #368]	@ (8007c60 <__gethex+0x2b4>)
 8007aee:	4602      	mov	r2, r0
 8007af0:	21e4      	movs	r1, #228	@ 0xe4
 8007af2:	485c      	ldr	r0, [pc, #368]	@ (8007c64 <__gethex+0x2b8>)
 8007af4:	f7ff fec0 	bl	8007878 <__assert_func>
 8007af8:	3101      	adds	r1, #1
 8007afa:	105b      	asrs	r3, r3, #1
 8007afc:	e7ef      	b.n	8007ade <__gethex+0x132>
 8007afe:	f100 0a14 	add.w	sl, r0, #20
 8007b02:	2300      	movs	r3, #0
 8007b04:	4655      	mov	r5, sl
 8007b06:	469b      	mov	fp, r3
 8007b08:	45b1      	cmp	r9, r6
 8007b0a:	d337      	bcc.n	8007b7c <__gethex+0x1d0>
 8007b0c:	f845 bb04 	str.w	fp, [r5], #4
 8007b10:	eba5 050a 	sub.w	r5, r5, sl
 8007b14:	10ad      	asrs	r5, r5, #2
 8007b16:	6125      	str	r5, [r4, #16]
 8007b18:	4658      	mov	r0, fp
 8007b1a:	f7fe f84b 	bl	8005bb4 <__hi0bits>
 8007b1e:	016d      	lsls	r5, r5, #5
 8007b20:	f8d8 6000 	ldr.w	r6, [r8]
 8007b24:	1a2d      	subs	r5, r5, r0
 8007b26:	42b5      	cmp	r5, r6
 8007b28:	dd54      	ble.n	8007bd4 <__gethex+0x228>
 8007b2a:	1bad      	subs	r5, r5, r6
 8007b2c:	4629      	mov	r1, r5
 8007b2e:	4620      	mov	r0, r4
 8007b30:	f7fe fbdf 	bl	80062f2 <__any_on>
 8007b34:	4681      	mov	r9, r0
 8007b36:	b178      	cbz	r0, 8007b58 <__gethex+0x1ac>
 8007b38:	1e6b      	subs	r3, r5, #1
 8007b3a:	1159      	asrs	r1, r3, #5
 8007b3c:	f003 021f 	and.w	r2, r3, #31
 8007b40:	f85a 1021 	ldr.w	r1, [sl, r1, lsl #2]
 8007b44:	f04f 0901 	mov.w	r9, #1
 8007b48:	fa09 f202 	lsl.w	r2, r9, r2
 8007b4c:	420a      	tst	r2, r1
 8007b4e:	d003      	beq.n	8007b58 <__gethex+0x1ac>
 8007b50:	454b      	cmp	r3, r9
 8007b52:	dc36      	bgt.n	8007bc2 <__gethex+0x216>
 8007b54:	f04f 0902 	mov.w	r9, #2
 8007b58:	4629      	mov	r1, r5
 8007b5a:	4620      	mov	r0, r4
 8007b5c:	f7ff febe 	bl	80078dc <rshift>
 8007b60:	442f      	add	r7, r5
 8007b62:	f8d8 3008 	ldr.w	r3, [r8, #8]
 8007b66:	42bb      	cmp	r3, r7
 8007b68:	da42      	bge.n	8007bf0 <__gethex+0x244>
 8007b6a:	9801      	ldr	r0, [sp, #4]
 8007b6c:	4621      	mov	r1, r4
 8007b6e:	f7fd ff6f 	bl	8005a50 <_Bfree>
 8007b72:	9a0e      	ldr	r2, [sp, #56]	@ 0x38
 8007b74:	2300      	movs	r3, #0
 8007b76:	6013      	str	r3, [r2, #0]
 8007b78:	25a3      	movs	r5, #163	@ 0xa3
 8007b7a:	e793      	b.n	8007aa4 <__gethex+0xf8>
 8007b7c:	f816 2d01 	ldrb.w	r2, [r6, #-1]!
 8007b80:	2a2e      	cmp	r2, #46	@ 0x2e
 8007b82:	d012      	beq.n	8007baa <__gethex+0x1fe>
 8007b84:	2b20      	cmp	r3, #32
 8007b86:	d104      	bne.n	8007b92 <__gethex+0x1e6>
 8007b88:	f845 bb04 	str.w	fp, [r5], #4
 8007b8c:	f04f 0b00 	mov.w	fp, #0
 8007b90:	465b      	mov	r3, fp
 8007b92:	7830      	ldrb	r0, [r6, #0]
 8007b94:	9303      	str	r3, [sp, #12]
 8007b96:	f7ff fef3 	bl	8007980 <__hexdig_fun>
 8007b9a:	9b03      	ldr	r3, [sp, #12]
 8007b9c:	f000 000f 	and.w	r0, r0, #15
 8007ba0:	4098      	lsls	r0, r3
 8007ba2:	ea4b 0b00 	orr.w	fp, fp, r0
 8007ba6:	3304      	adds	r3, #4
 8007ba8:	e7ae      	b.n	8007b08 <__gethex+0x15c>
 8007baa:	45b1      	cmp	r9, r6
 8007bac:	d8ea      	bhi.n	8007b84 <__gethex+0x1d8>
 8007bae:	492b      	ldr	r1, [pc, #172]	@ (8007c5c <__gethex+0x2b0>)
 8007bb0:	9303      	str	r3, [sp, #12]
 8007bb2:	2201      	movs	r2, #1
 8007bb4:	4630      	mov	r0, r6
 8007bb6:	f7ff fe03 	bl	80077c0 <strncmp>
 8007bba:	9b03      	ldr	r3, [sp, #12]
 8007bbc:	2800      	cmp	r0, #0
 8007bbe:	d1e1      	bne.n	8007b84 <__gethex+0x1d8>
 8007bc0:	e7a2      	b.n	8007b08 <__gethex+0x15c>
 8007bc2:	1ea9      	subs	r1, r5, #2
 8007bc4:	4620      	mov	r0, r4
 8007bc6:	f7fe fb94 	bl	80062f2 <__any_on>
 8007bca:	2800      	cmp	r0, #0
 8007bcc:	d0c2      	beq.n	8007b54 <__gethex+0x1a8>
 8007bce:	f04f 0903 	mov.w	r9, #3
 8007bd2:	e7c1      	b.n	8007b58 <__gethex+0x1ac>
 8007bd4:	da09      	bge.n	8007bea <__gethex+0x23e>
 8007bd6:	1b75      	subs	r5, r6, r5
 8007bd8:	4621      	mov	r1, r4
 8007bda:	9801      	ldr	r0, [sp, #4]
 8007bdc:	462a      	mov	r2, r5
 8007bde:	f7fe f94f 	bl	8005e80 <__lshift>
 8007be2:	1b7f      	subs	r7, r7, r5
 8007be4:	4604      	mov	r4, r0
 8007be6:	f100 0a14 	add.w	sl, r0, #20
 8007bea:	f04f 0900 	mov.w	r9, #0
 8007bee:	e7b8      	b.n	8007b62 <__gethex+0x1b6>
 8007bf0:	f8d8 5004 	ldr.w	r5, [r8, #4]
 8007bf4:	42bd      	cmp	r5, r7
 8007bf6:	dd6f      	ble.n	8007cd8 <__gethex+0x32c>
 8007bf8:	1bed      	subs	r5, r5, r7
 8007bfa:	42ae      	cmp	r6, r5
 8007bfc:	dc34      	bgt.n	8007c68 <__gethex+0x2bc>
 8007bfe:	f8d8 300c 	ldr.w	r3, [r8, #12]
 8007c02:	2b02      	cmp	r3, #2
 8007c04:	d022      	beq.n	8007c4c <__gethex+0x2a0>
 8007c06:	2b03      	cmp	r3, #3
 8007c08:	d024      	beq.n	8007c54 <__gethex+0x2a8>
 8007c0a:	2b01      	cmp	r3, #1
 8007c0c:	d115      	bne.n	8007c3a <__gethex+0x28e>
 8007c0e:	42ae      	cmp	r6, r5
 8007c10:	d113      	bne.n	8007c3a <__gethex+0x28e>
 8007c12:	2e01      	cmp	r6, #1
 8007c14:	d10b      	bne.n	8007c2e <__gethex+0x282>
 8007c16:	9a02      	ldr	r2, [sp, #8]
 8007c18:	f8d8 3004 	ldr.w	r3, [r8, #4]
 8007c1c:	6013      	str	r3, [r2, #0]
 8007c1e:	2301      	movs	r3, #1
 8007c20:	6123      	str	r3, [r4, #16]
 8007c22:	f8ca 3000 	str.w	r3, [sl]
 8007c26:	9b0e      	ldr	r3, [sp, #56]	@ 0x38
 8007c28:	2562      	movs	r5, #98	@ 0x62
 8007c2a:	601c      	str	r4, [r3, #0]
 8007c2c:	e73a      	b.n	8007aa4 <__gethex+0xf8>
 8007c2e:	1e71      	subs	r1, r6, #1
 8007c30:	4620      	mov	r0, r4
 8007c32:	f7fe fb5e 	bl	80062f2 <__any_on>
 8007c36:	2800      	cmp	r0, #0
 8007c38:	d1ed      	bne.n	8007c16 <__gethex+0x26a>
 8007c3a:	9801      	ldr	r0, [sp, #4]
 8007c3c:	4621      	mov	r1, r4
 8007c3e:	f7fd ff07 	bl	8005a50 <_Bfree>
 8007c42:	9a0e      	ldr	r2, [sp, #56]	@ 0x38
 8007c44:	2300      	movs	r3, #0
 8007c46:	6013      	str	r3, [r2, #0]
 8007c48:	2550      	movs	r5, #80	@ 0x50
 8007c4a:	e72b      	b.n	8007aa4 <__gethex+0xf8>
 8007c4c:	9b0f      	ldr	r3, [sp, #60]	@ 0x3c
 8007c4e:	2b00      	cmp	r3, #0
 8007c50:	d1f3      	bne.n	8007c3a <__gethex+0x28e>
 8007c52:	e7e0      	b.n	8007c16 <__gethex+0x26a>
 8007c54:	9b0f      	ldr	r3, [sp, #60]	@ 0x3c
 8007c56:	2b00      	cmp	r3, #0
 8007c58:	d1dd      	bne.n	8007c16 <__gethex+0x26a>
 8007c5a:	e7ee      	b.n	8007c3a <__gethex+0x28e>
 8007c5c:	08008758 	.word	0x08008758
 8007c60:	080085f1 	.word	0x080085f1
 8007c64:	08008906 	.word	0x08008906
 8007c68:	1e6f      	subs	r7, r5, #1
 8007c6a:	f1b9 0f00 	cmp.w	r9, #0
 8007c6e:	d130      	bne.n	8007cd2 <__gethex+0x326>
 8007c70:	b127      	cbz	r7, 8007c7c <__gethex+0x2d0>
 8007c72:	4639      	mov	r1, r7
 8007c74:	4620      	mov	r0, r4
 8007c76:	f7fe fb3c 	bl	80062f2 <__any_on>
 8007c7a:	4681      	mov	r9, r0
 8007c7c:	117a      	asrs	r2, r7, #5
 8007c7e:	2301      	movs	r3, #1
 8007c80:	f85a 2022 	ldr.w	r2, [sl, r2, lsl #2]
 8007c84:	f007 071f 	and.w	r7, r7, #31
 8007c88:	40bb      	lsls	r3, r7
 8007c8a:	4213      	tst	r3, r2
 8007c8c:	4629      	mov	r1, r5
 8007c8e:	4620      	mov	r0, r4
 8007c90:	bf18      	it	ne
 8007c92:	f049 0902 	orrne.w	r9, r9, #2
 8007c96:	f7ff fe21 	bl	80078dc <rshift>
 8007c9a:	f8d8 7004 	ldr.w	r7, [r8, #4]
 8007c9e:	1b76      	subs	r6, r6, r5
 8007ca0:	2502      	movs	r5, #2
 8007ca2:	f1b9 0f00 	cmp.w	r9, #0
 8007ca6:	d047      	beq.n	8007d38 <__gethex+0x38c>
 8007ca8:	f8d8 300c 	ldr.w	r3, [r8, #12]
 8007cac:	2b02      	cmp	r3, #2
 8007cae:	d015      	beq.n	8007cdc <__gethex+0x330>
 8007cb0:	2b03      	cmp	r3, #3
 8007cb2:	d017      	beq.n	8007ce4 <__gethex+0x338>
 8007cb4:	2b01      	cmp	r3, #1
 8007cb6:	d109      	bne.n	8007ccc <__gethex+0x320>
 8007cb8:	f019 0f02 	tst.w	r9, #2
 8007cbc:	d006      	beq.n	8007ccc <__gethex+0x320>
 8007cbe:	f8da 3000 	ldr.w	r3, [sl]
 8007cc2:	ea49 0903 	orr.w	r9, r9, r3
 8007cc6:	f019 0f01 	tst.w	r9, #1
 8007cca:	d10e      	bne.n	8007cea <__gethex+0x33e>
 8007ccc:	f045 0510 	orr.w	r5, r5, #16
 8007cd0:	e032      	b.n	8007d38 <__gethex+0x38c>
 8007cd2:	f04f 0901 	mov.w	r9, #1
 8007cd6:	e7d1      	b.n	8007c7c <__gethex+0x2d0>
 8007cd8:	2501      	movs	r5, #1
 8007cda:	e7e2      	b.n	8007ca2 <__gethex+0x2f6>
 8007cdc:	9b0f      	ldr	r3, [sp, #60]	@ 0x3c
 8007cde:	f1c3 0301 	rsb	r3, r3, #1
 8007ce2:	930f      	str	r3, [sp, #60]	@ 0x3c
 8007ce4:	9b0f      	ldr	r3, [sp, #60]	@ 0x3c
 8007ce6:	2b00      	cmp	r3, #0
 8007ce8:	d0f0      	beq.n	8007ccc <__gethex+0x320>
 8007cea:	f8d4 b010 	ldr.w	fp, [r4, #16]
 8007cee:	f104 0314 	add.w	r3, r4, #20
 8007cf2:	ea4f 0a8b 	mov.w	sl, fp, lsl #2
 8007cf6:	eb03 018b 	add.w	r1, r3, fp, lsl #2
 8007cfa:	f04f 0c00 	mov.w	ip, #0
 8007cfe:	4618      	mov	r0, r3
 8007d00:	f853 2b04 	ldr.w	r2, [r3], #4
 8007d04:	f1b2 3fff 	cmp.w	r2, #4294967295
 8007d08:	d01b      	beq.n	8007d42 <__gethex+0x396>
 8007d0a:	3201      	adds	r2, #1
 8007d0c:	6002      	str	r2, [r0, #0]
 8007d0e:	2d02      	cmp	r5, #2
 8007d10:	f104 0314 	add.w	r3, r4, #20
 8007d14:	d13c      	bne.n	8007d90 <__gethex+0x3e4>
 8007d16:	f8d8 2000 	ldr.w	r2, [r8]
 8007d1a:	3a01      	subs	r2, #1
 8007d1c:	42b2      	cmp	r2, r6
 8007d1e:	d109      	bne.n	8007d34 <__gethex+0x388>
 8007d20:	1171      	asrs	r1, r6, #5
 8007d22:	2201      	movs	r2, #1
 8007d24:	f853 3021 	ldr.w	r3, [r3, r1, lsl #2]
 8007d28:	f006 061f 	and.w	r6, r6, #31
 8007d2c:	fa02 f606 	lsl.w	r6, r2, r6
 8007d30:	421e      	tst	r6, r3
 8007d32:	d13a      	bne.n	8007daa <__gethex+0x3fe>
 8007d34:	f045 0520 	orr.w	r5, r5, #32
 8007d38:	9b0e      	ldr	r3, [sp, #56]	@ 0x38
 8007d3a:	601c      	str	r4, [r3, #0]
 8007d3c:	9b02      	ldr	r3, [sp, #8]
 8007d3e:	601f      	str	r7, [r3, #0]
 8007d40:	e6b0      	b.n	8007aa4 <__gethex+0xf8>
 8007d42:	4299      	cmp	r1, r3
 8007d44:	f843 cc04 	str.w	ip, [r3, #-4]
 8007d48:	d8d9      	bhi.n	8007cfe <__gethex+0x352>
 8007d4a:	68a3      	ldr	r3, [r4, #8]
 8007d4c:	459b      	cmp	fp, r3
 8007d4e:	db17      	blt.n	8007d80 <__gethex+0x3d4>
 8007d50:	6861      	ldr	r1, [r4, #4]
 8007d52:	9801      	ldr	r0, [sp, #4]
 8007d54:	3101      	adds	r1, #1
 8007d56:	f7fd fe3b 	bl	80059d0 <_Balloc>
 8007d5a:	4681      	mov	r9, r0
 8007d5c:	b918      	cbnz	r0, 8007d66 <__gethex+0x3ba>
 8007d5e:	4b1a      	ldr	r3, [pc, #104]	@ (8007dc8 <__gethex+0x41c>)
 8007d60:	4602      	mov	r2, r0
 8007d62:	2184      	movs	r1, #132	@ 0x84
 8007d64:	e6c5      	b.n	8007af2 <__gethex+0x146>
 8007d66:	6922      	ldr	r2, [r4, #16]
 8007d68:	3202      	adds	r2, #2
 8007d6a:	f104 010c 	add.w	r1, r4, #12
 8007d6e:	0092      	lsls	r2, r2, #2
 8007d70:	300c      	adds	r0, #12
 8007d72:	f7ff fd69 	bl	8007848 <memcpy>
 8007d76:	4621      	mov	r1, r4
 8007d78:	9801      	ldr	r0, [sp, #4]
 8007d7a:	f7fd fe69 	bl	8005a50 <_Bfree>
 8007d7e:	464c      	mov	r4, r9
 8007d80:	6923      	ldr	r3, [r4, #16]
 8007d82:	1c5a      	adds	r2, r3, #1
 8007d84:	eb04 0383 	add.w	r3, r4, r3, lsl #2
 8007d88:	6122      	str	r2, [r4, #16]
 8007d8a:	2201      	movs	r2, #1
 8007d8c:	615a      	str	r2, [r3, #20]
 8007d8e:	e7be      	b.n	8007d0e <__gethex+0x362>
 8007d90:	6922      	ldr	r2, [r4, #16]
 8007d92:	455a      	cmp	r2, fp
 8007d94:	dd0b      	ble.n	8007dae <__gethex+0x402>
 8007d96:	2101      	movs	r1, #1
 8007d98:	4620      	mov	r0, r4
 8007d9a:	f7ff fd9f 	bl	80078dc <rshift>
 8007d9e:	f8d8 3008 	ldr.w	r3, [r8, #8]
 8007da2:	3701      	adds	r7, #1
 8007da4:	42bb      	cmp	r3, r7
 8007da6:	f6ff aee0 	blt.w	8007b6a <__gethex+0x1be>
 8007daa:	2501      	movs	r5, #1
 8007dac:	e7c2      	b.n	8007d34 <__gethex+0x388>
 8007dae:	f016 061f 	ands.w	r6, r6, #31
 8007db2:	d0fa      	beq.n	8007daa <__gethex+0x3fe>
 8007db4:	4453      	add	r3, sl
 8007db6:	f1c6 0620 	rsb	r6, r6, #32
 8007dba:	f853 0c04 	ldr.w	r0, [r3, #-4]
 8007dbe:	f7fd fef9 	bl	8005bb4 <__hi0bits>
 8007dc2:	42b0      	cmp	r0, r6
 8007dc4:	dbe7      	blt.n	8007d96 <__gethex+0x3ea>
 8007dc6:	e7f0      	b.n	8007daa <__gethex+0x3fe>
 8007dc8:	080085f1 	.word	0x080085f1

08007dcc <L_shift>:
 8007dcc:	f1c2 0208 	rsb	r2, r2, #8
 8007dd0:	0092      	lsls	r2, r2, #2
 8007dd2:	b570      	push	{r4, r5, r6, lr}
 8007dd4:	f1c2 0620 	rsb	r6, r2, #32
 8007dd8:	6843      	ldr	r3, [r0, #4]
 8007dda:	6804      	ldr	r4, [r0, #0]
 8007ddc:	fa03 f506 	lsl.w	r5, r3, r6
 8007de0:	432c      	orrs	r4, r5
 8007de2:	40d3      	lsrs	r3, r2
 8007de4:	6004      	str	r4, [r0, #0]
 8007de6:	f840 3f04 	str.w	r3, [r0, #4]!
 8007dea:	4288      	cmp	r0, r1
 8007dec:	d3f4      	bcc.n	8007dd8 <L_shift+0xc>
 8007dee:	bd70      	pop	{r4, r5, r6, pc}

08007df0 <__match>:
 8007df0:	b530      	push	{r4, r5, lr}
 8007df2:	6803      	ldr	r3, [r0, #0]
 8007df4:	3301      	adds	r3, #1
 8007df6:	f811 4b01 	ldrb.w	r4, [r1], #1
 8007dfa:	b914      	cbnz	r4, 8007e02 <__match+0x12>
 8007dfc:	6003      	str	r3, [r0, #0]
 8007dfe:	2001      	movs	r0, #1
 8007e00:	bd30      	pop	{r4, r5, pc}
 8007e02:	f813 2b01 	ldrb.w	r2, [r3], #1
 8007e06:	f1a2 0541 	sub.w	r5, r2, #65	@ 0x41
 8007e0a:	2d19      	cmp	r5, #25
 8007e0c:	bf98      	it	ls
 8007e0e:	3220      	addls	r2, #32
 8007e10:	42a2      	cmp	r2, r4
 8007e12:	d0f0      	beq.n	8007df6 <__match+0x6>
 8007e14:	2000      	movs	r0, #0
 8007e16:	e7f3      	b.n	8007e00 <__match+0x10>

08007e18 <__hexnan>:
 8007e18:	e92d 4ff0 	stmdb	sp!, {r4, r5, r6, r7, r8, r9, sl, fp, lr}
 8007e1c:	680b      	ldr	r3, [r1, #0]
 8007e1e:	6801      	ldr	r1, [r0, #0]
 8007e20:	115e      	asrs	r6, r3, #5
 8007e22:	eb02 0686 	add.w	r6, r2, r6, lsl #2
 8007e26:	f013 031f 	ands.w	r3, r3, #31
 8007e2a:	b087      	sub	sp, #28
 8007e2c:	bf18      	it	ne
 8007e2e:	3604      	addne	r6, #4
 8007e30:	2500      	movs	r5, #0
 8007e32:	1f37      	subs	r7, r6, #4
 8007e34:	4682      	mov	sl, r0
 8007e36:	4690      	mov	r8, r2
 8007e38:	9301      	str	r3, [sp, #4]
 8007e3a:	f846 5c04 	str.w	r5, [r6, #-4]
 8007e3e:	46b9      	mov	r9, r7
 8007e40:	463c      	mov	r4, r7
 8007e42:	9502      	str	r5, [sp, #8]
 8007e44:	46ab      	mov	fp, r5
 8007e46:	784a      	ldrb	r2, [r1, #1]
 8007e48:	1c4b      	adds	r3, r1, #1
 8007e4a:	9303      	str	r3, [sp, #12]
 8007e4c:	b342      	cbz	r2, 8007ea0 <__hexnan+0x88>
 8007e4e:	4610      	mov	r0, r2
 8007e50:	9105      	str	r1, [sp, #20]
 8007e52:	9204      	str	r2, [sp, #16]
 8007e54:	f7ff fd94 	bl	8007980 <__hexdig_fun>
 8007e58:	2800      	cmp	r0, #0
 8007e5a:	d151      	bne.n	8007f00 <__hexnan+0xe8>
 8007e5c:	9a04      	ldr	r2, [sp, #16]
 8007e5e:	9905      	ldr	r1, [sp, #20]
 8007e60:	2a20      	cmp	r2, #32
 8007e62:	d818      	bhi.n	8007e96 <__hexnan+0x7e>
 8007e64:	9b02      	ldr	r3, [sp, #8]
 8007e66:	459b      	cmp	fp, r3
 8007e68:	dd13      	ble.n	8007e92 <__hexnan+0x7a>
 8007e6a:	454c      	cmp	r4, r9
 8007e6c:	d206      	bcs.n	8007e7c <__hexnan+0x64>
 8007e6e:	2d07      	cmp	r5, #7
 8007e70:	dc04      	bgt.n	8007e7c <__hexnan+0x64>
 8007e72:	462a      	mov	r2, r5
 8007e74:	4649      	mov	r1, r9
 8007e76:	4620      	mov	r0, r4
 8007e78:	f7ff ffa8 	bl	8007dcc <L_shift>
 8007e7c:	4544      	cmp	r4, r8
 8007e7e:	d952      	bls.n	8007f26 <__hexnan+0x10e>
 8007e80:	2300      	movs	r3, #0
 8007e82:	f1a4 0904 	sub.w	r9, r4, #4
 8007e86:	f844 3c04 	str.w	r3, [r4, #-4]
 8007e8a:	f8cd b008 	str.w	fp, [sp, #8]
 8007e8e:	464c      	mov	r4, r9
 8007e90:	461d      	mov	r5, r3
 8007e92:	9903      	ldr	r1, [sp, #12]
 8007e94:	e7d7      	b.n	8007e46 <__hexnan+0x2e>
 8007e96:	2a29      	cmp	r2, #41	@ 0x29
 8007e98:	d157      	bne.n	8007f4a <__hexnan+0x132>
 8007e9a:	3102      	adds	r1, #2
 8007e9c:	f8ca 1000 	str.w	r1, [sl]
 8007ea0:	f1bb 0f00 	cmp.w	fp, #0
 8007ea4:	d051      	beq.n	8007f4a <__hexnan+0x132>
 8007ea6:	454c      	cmp	r4, r9
 8007ea8:	d206      	bcs.n	8007eb8 <__hexnan+0xa0>
 8007eaa:	2d07      	cmp	r5, #7
 8007eac:	dc04      	bgt.n	8007eb8 <__hexnan+0xa0>
 8007eae:	462a      	mov	r2, r5
 8007eb0:	4649      	mov	r1, r9
 8007eb2:	4620      	mov	r0, r4
 8007eb4:	f7ff ff8a 	bl	8007dcc <L_shift>
 8007eb8:	4544      	cmp	r4, r8
 8007eba:	d936      	bls.n	8007f2a <__hexnan+0x112>
 8007ebc:	f1a8 0204 	sub.w	r2, r8, #4
 8007ec0:	4623      	mov	r3, r4
 8007ec2:	f853 1b04 	ldr.w	r1, [r3], #4
 8007ec6:	f842 1f04 	str.w	r1, [r2, #4]!
 8007eca:	429f      	cmp	r7, r3
 8007ecc:	d2f9      	bcs.n	8007ec2 <__hexnan+0xaa>
 8007ece:	1b3b      	subs	r3, r7, r4
 8007ed0:	f023 0303 	bic.w	r3, r3, #3
 8007ed4:	3304      	adds	r3, #4
 8007ed6:	3401      	adds	r4, #1
 8007ed8:	3e03      	subs	r6, #3
 8007eda:	42b4      	cmp	r4, r6
 8007edc:	bf88      	it	hi
 8007ede:	2304      	movhi	r3, #4
 8007ee0:	4443      	add	r3, r8
 8007ee2:	2200      	movs	r2, #0
 8007ee4:	f843 2b04 	str.w	r2, [r3], #4
 8007ee8:	429f      	cmp	r7, r3
 8007eea:	d2fb      	bcs.n	8007ee4 <__hexnan+0xcc>
 8007eec:	683b      	ldr	r3, [r7, #0]
 8007eee:	b91b      	cbnz	r3, 8007ef8 <__hexnan+0xe0>
 8007ef0:	4547      	cmp	r7, r8
 8007ef2:	d128      	bne.n	8007f46 <__hexnan+0x12e>
 8007ef4:	2301      	movs	r3, #1
 8007ef6:	603b      	str	r3, [r7, #0]
 8007ef8:	2005      	movs	r0, #5
 8007efa:	b007      	add	sp, #28
 8007efc:	e8bd 8ff0 	ldmia.w	sp!, {r4, r5, r6, r7, r8, r9, sl, fp, pc}
 8007f00:	3501      	adds	r5, #1
 8007f02:	2d08      	cmp	r5, #8
 8007f04:	f10b 0b01 	add.w	fp, fp, #1
 8007f08:	dd06      	ble.n	8007f18 <__hexnan+0x100>
 8007f0a:	4544      	cmp	r4, r8
 8007f0c:	d9c1      	bls.n	8007e92 <__hexnan+0x7a>
 8007f0e:	2300      	movs	r3, #0
 8007f10:	f844 3c04 	str.w	r3, [r4, #-4]
 8007f14:	2501      	movs	r5, #1
 8007f16:	3c04      	subs	r4, #4
 8007f18:	6822      	ldr	r2, [r4, #0]
 8007f1a:	f000 000f 	and.w	r0, r0, #15
 8007f1e:	ea40 1002 	orr.w	r0, r0, r2, lsl #4
 8007f22:	6020      	str	r0, [r4, #0]
 8007f24:	e7b5      	b.n	8007e92 <__hexnan+0x7a>
 8007f26:	2508      	movs	r5, #8
 8007f28:	e7b3      	b.n	8007e92 <__hexnan+0x7a>
 8007f2a:	9b01      	ldr	r3, [sp, #4]
 8007f2c:	2b00      	cmp	r3, #0
 8007f2e:	d0dd      	beq.n	8007eec <__hexnan+0xd4>
 8007f30:	f1c3 0320 	rsb	r3, r3, #32
 8007f34:	f04f 32ff 	mov.w	r2, #4294967295
 8007f38:	40da      	lsrs	r2, r3
 8007f3a:	f856 3c04 	ldr.w	r3, [r6, #-4]
 8007f3e:	4013      	ands	r3, r2
 8007f40:	f846 3c04 	str.w	r3, [r6, #-4]
 8007f44:	e7d2      	b.n	8007eec <__hexnan+0xd4>
 8007f46:	3f04      	subs	r7, #4
 8007f48:	e7d0      	b.n	8007eec <__hexnan+0xd4>
 8007f4a:	2004      	movs	r0, #4
 8007f4c:	e7d5      	b.n	8007efa <__hexnan+0xe2>

08007f4e <__ascii_mbtowc>:
 8007f4e:	b082      	sub	sp, #8
 8007f50:	b901      	cbnz	r1, 8007f54 <__ascii_mbtowc+0x6>
 8007f52:	a901      	add	r1, sp, #4
 8007f54:	b142      	cbz	r2, 8007f68 <__ascii_mbtowc+0x1a>
 8007f56:	b14b      	cbz	r3, 8007f6c <__ascii_mbtowc+0x1e>
 8007f58:	7813      	ldrb	r3, [r2, #0]
 8007f5a:	600b      	str	r3, [r1, #0]
 8007f5c:	7812      	ldrb	r2, [r2, #0]
 8007f5e:	1e10      	subs	r0, r2, #0
 8007f60:	bf18      	it	ne
 8007f62:	2001      	movne	r0, #1
 8007f64:	b002      	add	sp, #8
 8007f66:	4770      	bx	lr
 8007f68:	4610      	mov	r0, r2
 8007f6a:	e7fb      	b.n	8007f64 <__ascii_mbtowc+0x16>
 8007f6c:	f06f 0001 	mvn.w	r0, #1
 8007f70:	e7f8      	b.n	8007f64 <__ascii_mbtowc+0x16>

08007f72 <_realloc_r>:
 8007f72:	e92d 41f0 	stmdb	sp!, {r4, r5, r6, r7, r8, lr}
 8007f76:	4680      	mov	r8, r0
 8007f78:	4615      	mov	r5, r2
 8007f7a:	460c      	mov	r4, r1
 8007f7c:	b921      	cbnz	r1, 8007f88 <_realloc_r+0x16>
 8007f7e:	e8bd 41f0 	ldmia.w	sp!, {r4, r5, r6, r7, r8, lr}
 8007f82:	4611      	mov	r1, r2
 8007f84:	f7fd bc98 	b.w	80058b8 <_malloc_r>
 8007f88:	b92a      	cbnz	r2, 8007f96 <_realloc_r+0x24>
 8007f8a:	f7fd fc21 	bl	80057d0 <_free_r>
 8007f8e:	2400      	movs	r4, #0
 8007f90:	4620      	mov	r0, r4
 8007f92:	e8bd 81f0 	ldmia.w	sp!, {r4, r5, r6, r7, r8, pc}
 8007f96:	f000 f840 	bl	800801a <_malloc_usable_size_r>
 8007f9a:	4285      	cmp	r5, r0
 8007f9c:	4606      	mov	r6, r0
 8007f9e:	d802      	bhi.n	8007fa6 <_realloc_r+0x34>
 8007fa0:	ebb5 0f50 	cmp.w	r5, r0, lsr #1
 8007fa4:	d8f4      	bhi.n	8007f90 <_realloc_r+0x1e>
 8007fa6:	4629      	mov	r1, r5
 8007fa8:	4640      	mov	r0, r8
 8007faa:	f7fd fc85 	bl	80058b8 <_malloc_r>
 8007fae:	4607      	mov	r7, r0
 8007fb0:	2800      	cmp	r0, #0
 8007fb2:	d0ec      	beq.n	8007f8e <_realloc_r+0x1c>
 8007fb4:	42b5      	cmp	r5, r6
 8007fb6:	462a      	mov	r2, r5
 8007fb8:	4621      	mov	r1, r4
 8007fba:	bf28      	it	cs
 8007fbc:	4632      	movcs	r2, r6
 8007fbe:	f7ff fc43 	bl	8007848 <memcpy>
 8007fc2:	4621      	mov	r1, r4
 8007fc4:	4640      	mov	r0, r8
 8007fc6:	f7fd fc03 	bl	80057d0 <_free_r>
 8007fca:	463c      	mov	r4, r7
 8007fcc:	e7e0      	b.n	8007f90 <_realloc_r+0x1e>

08007fce <__ascii_wctomb>:
 8007fce:	4603      	mov	r3, r0
 8007fd0:	4608      	mov	r0, r1
 8007fd2:	b141      	cbz	r1, 8007fe6 <__ascii_wctomb+0x18>
 8007fd4:	2aff      	cmp	r2, #255	@ 0xff
 8007fd6:	d904      	bls.n	8007fe2 <__ascii_wctomb+0x14>
 8007fd8:	228a      	movs	r2, #138	@ 0x8a
 8007fda:	601a      	str	r2, [r3, #0]
 8007fdc:	f04f 30ff 	mov.w	r0, #4294967295
 8007fe0:	4770      	bx	lr
 8007fe2:	700a      	strb	r2, [r1, #0]
 8007fe4:	2001      	movs	r0, #1
 8007fe6:	4770      	bx	lr

08007fe8 <fiprintf>:
 8007fe8:	b40e      	push	{r1, r2, r3}
 8007fea:	b503      	push	{r0, r1, lr}
 8007fec:	4601      	mov	r1, r0
 8007fee:	ab03      	add	r3, sp, #12
 8007ff0:	4805      	ldr	r0, [pc, #20]	@ (8008008 <fiprintf+0x20>)
 8007ff2:	f853 2b04 	ldr.w	r2, [r3], #4
 8007ff6:	6800      	ldr	r0, [r0, #0]
 8007ff8:	9301      	str	r3, [sp, #4]
 8007ffa:	f7ff f9a1 	bl	8007340 <_vfiprintf_r>
 8007ffe:	b002      	add	sp, #8
 8008000:	f85d eb04 	ldr.w	lr, [sp], #4
 8008004:	b003      	add	sp, #12
 8008006:	4770      	bx	lr
 8008008:	20000018 	.word	0x20000018

0800800c <abort>:
 800800c:	b508      	push	{r3, lr}
 800800e:	2006      	movs	r0, #6
 8008010:	f000 f834 	bl	800807c <raise>
 8008014:	2001      	movs	r0, #1
 8008016:	f7f9 fb92 	bl	800173e <_exit>

0800801a <_malloc_usable_size_r>:
 800801a:	f851 3c04 	ldr.w	r3, [r1, #-4]
 800801e:	1f18      	subs	r0, r3, #4
 8008020:	2b00      	cmp	r3, #0
 8008022:	bfbc      	itt	lt
 8008024:	580b      	ldrlt	r3, [r1, r0]
 8008026:	18c0      	addlt	r0, r0, r3
 8008028:	4770      	bx	lr

0800802a <_raise_r>:
 800802a:	291f      	cmp	r1, #31
 800802c:	b538      	push	{r3, r4, r5, lr}
 800802e:	4605      	mov	r5, r0
 8008030:	460c      	mov	r4, r1
 8008032:	d904      	bls.n	800803e <_raise_r+0x14>
 8008034:	2316      	movs	r3, #22
 8008036:	6003      	str	r3, [r0, #0]
 8008038:	f04f 30ff 	mov.w	r0, #4294967295
 800803c:	bd38      	pop	{r3, r4, r5, pc}
 800803e:	6bc2      	ldr	r2, [r0, #60]	@ 0x3c
 8008040:	b112      	cbz	r2, 8008048 <_raise_r+0x1e>
 8008042:	f852 3021 	ldr.w	r3, [r2, r1, lsl #2]
 8008046:	b94b      	cbnz	r3, 800805c <_raise_r+0x32>
 8008048:	4628      	mov	r0, r5
 800804a:	f000 f831 	bl	80080b0 <_getpid_r>
 800804e:	4622      	mov	r2, r4
 8008050:	4601      	mov	r1, r0
 8008052:	4628      	mov	r0, r5
 8008054:	e8bd 4038 	ldmia.w	sp!, {r3, r4, r5, lr}
 8008058:	f000 b818 	b.w	800808c <_kill_r>
 800805c:	2b01      	cmp	r3, #1
 800805e:	d00a      	beq.n	8008076 <_raise_r+0x4c>
 8008060:	1c59      	adds	r1, r3, #1
 8008062:	d103      	bne.n	800806c <_raise_r+0x42>
 8008064:	2316      	movs	r3, #22
 8008066:	6003      	str	r3, [r0, #0]
 8008068:	2001      	movs	r0, #1
 800806a:	e7e7      	b.n	800803c <_raise_r+0x12>
 800806c:	2100      	movs	r1, #0
 800806e:	f842 1024 	str.w	r1, [r2, r4, lsl #2]
 8008072:	4620      	mov	r0, r4
 8008074:	4798      	blx	r3
 8008076:	2000      	movs	r0, #0
 8008078:	e7e0      	b.n	800803c <_raise_r+0x12>
	...

0800807c <raise>:
 800807c:	4b02      	ldr	r3, [pc, #8]	@ (8008088 <raise+0xc>)
 800807e:	4601      	mov	r1, r0
 8008080:	6818      	ldr	r0, [r3, #0]
 8008082:	f7ff bfd2 	b.w	800802a <_raise_r>
 8008086:	bf00      	nop
 8008088:	20000018 	.word	0x20000018

0800808c <_kill_r>:
 800808c:	b538      	push	{r3, r4, r5, lr}
 800808e:	4d07      	ldr	r5, [pc, #28]	@ (80080ac <_kill_r+0x20>)
 8008090:	2300      	movs	r3, #0
 8008092:	4604      	mov	r4, r0
 8008094:	4608      	mov	r0, r1
 8008096:	4611      	mov	r1, r2
 8008098:	602b      	str	r3, [r5, #0]
 800809a:	f7f9 fb40 	bl	800171e <_kill>
 800809e:	1c43      	adds	r3, r0, #1
 80080a0:	d102      	bne.n	80080a8 <_kill_r+0x1c>
 80080a2:	682b      	ldr	r3, [r5, #0]
 80080a4:	b103      	cbz	r3, 80080a8 <_kill_r+0x1c>
 80080a6:	6023      	str	r3, [r4, #0]
 80080a8:	bd38      	pop	{r3, r4, r5, pc}
 80080aa:	bf00      	nop
 80080ac:	200003c4 	.word	0x200003c4

080080b0 <_getpid_r>:
 80080b0:	f7f9 bb2d 	b.w	800170e <_getpid>
 80080b4:	0000      	movs	r0, r0
	...

080080b8 <log>:
 80080b8:	b538      	push	{r3, r4, r5, lr}
 80080ba:	ed2d 8b02 	vpush	{d8}
 80080be:	ec55 4b10 	vmov	r4, r5, d0
 80080c2:	f000 f839 	bl	8008138 <__ieee754_log>
 80080c6:	4622      	mov	r2, r4
 80080c8:	462b      	mov	r3, r5
 80080ca:	4620      	mov	r0, r4
 80080cc:	4629      	mov	r1, r5
 80080ce:	eeb0 8a40 	vmov.f32	s16, s0
 80080d2:	eef0 8a60 	vmov.f32	s17, s1
 80080d6:	f7f8 fd31 	bl	8000b3c <__aeabi_dcmpun>
 80080da:	b998      	cbnz	r0, 8008104 <log+0x4c>
 80080dc:	2200      	movs	r2, #0
 80080de:	2300      	movs	r3, #0
 80080e0:	4620      	mov	r0, r4
 80080e2:	4629      	mov	r1, r5
 80080e4:	f7f8 fd20 	bl	8000b28 <__aeabi_dcmpgt>
 80080e8:	b960      	cbnz	r0, 8008104 <log+0x4c>
 80080ea:	2200      	movs	r2, #0
 80080ec:	2300      	movs	r3, #0
 80080ee:	4620      	mov	r0, r4
 80080f0:	4629      	mov	r1, r5
 80080f2:	f7f8 fcf1 	bl	8000ad8 <__aeabi_dcmpeq>
 80080f6:	b160      	cbz	r0, 8008112 <log+0x5a>
 80080f8:	f7fc fcea 	bl	8004ad0 <__errno>
 80080fc:	ed9f 8b0a 	vldr	d8, [pc, #40]	@ 8008128 <log+0x70>
 8008100:	2322      	movs	r3, #34	@ 0x22
 8008102:	6003      	str	r3, [r0, #0]
 8008104:	eeb0 0a48 	vmov.f32	s0, s16
 8008108:	eef0 0a68 	vmov.f32	s1, s17
 800810c:	ecbd 8b02 	vpop	{d8}
 8008110:	bd38      	pop	{r3, r4, r5, pc}
 8008112:	f7fc fcdd 	bl	8004ad0 <__errno>
 8008116:	ecbd 8b02 	vpop	{d8}
 800811a:	2321      	movs	r3, #33	@ 0x21
 800811c:	6003      	str	r3, [r0, #0]
 800811e:	e8bd 4038 	ldmia.w	sp!, {r3, r4, r5, lr}
 8008122:	4803      	ldr	r0, [pc, #12]	@ (8008130 <log+0x78>)
 8008124:	f7ff bba0 	b.w	8007868 <nan>
 8008128:	00000000 	.word	0x00000000
 800812c:	fff00000 	.word	0xfff00000
 8008130:	08008905 	.word	0x08008905
 8008134:	00000000 	.word	0x00000000

08008138 <__ieee754_log>:
 8008138:	e92d 4ff0 	stmdb	sp!, {r4, r5, r6, r7, r8, r9, sl, fp, lr}
 800813c:	ec51 0b10 	vmov	r0, r1, d0
 8008140:	f5b1 1f80 	cmp.w	r1, #1048576	@ 0x100000
 8008144:	b087      	sub	sp, #28
 8008146:	460d      	mov	r5, r1
 8008148:	da26      	bge.n	8008198 <__ieee754_log+0x60>
 800814a:	f021 4300 	bic.w	r3, r1, #2147483648	@ 0x80000000
 800814e:	4303      	orrs	r3, r0
 8008150:	4602      	mov	r2, r0
 8008152:	d10a      	bne.n	800816a <__ieee754_log+0x32>
 8008154:	49ce      	ldr	r1, [pc, #824]	@ (8008490 <__ieee754_log+0x358>)
 8008156:	2200      	movs	r2, #0
 8008158:	2300      	movs	r3, #0
 800815a:	2000      	movs	r0, #0
 800815c:	f7f8 fb7e 	bl	800085c <__aeabi_ddiv>
 8008160:	ec41 0b10 	vmov	d0, r0, r1
 8008164:	b007      	add	sp, #28
 8008166:	e8bd 8ff0 	ldmia.w	sp!, {r4, r5, r6, r7, r8, r9, sl, fp, pc}
 800816a:	2900      	cmp	r1, #0
 800816c:	da05      	bge.n	800817a <__ieee754_log+0x42>
 800816e:	460b      	mov	r3, r1
 8008170:	f7f8 f892 	bl	8000298 <__aeabi_dsub>
 8008174:	2200      	movs	r2, #0
 8008176:	2300      	movs	r3, #0
 8008178:	e7f0      	b.n	800815c <__ieee754_log+0x24>
 800817a:	4bc6      	ldr	r3, [pc, #792]	@ (8008494 <__ieee754_log+0x35c>)
 800817c:	2200      	movs	r2, #0
 800817e:	f7f8 fa43 	bl	8000608 <__aeabi_dmul>
 8008182:	f06f 0335 	mvn.w	r3, #53	@ 0x35
 8008186:	460d      	mov	r5, r1
 8008188:	4ac3      	ldr	r2, [pc, #780]	@ (8008498 <__ieee754_log+0x360>)
 800818a:	4295      	cmp	r5, r2
 800818c:	dd06      	ble.n	800819c <__ieee754_log+0x64>
 800818e:	4602      	mov	r2, r0
 8008190:	460b      	mov	r3, r1
 8008192:	f7f8 f883 	bl	800029c <__adddf3>
 8008196:	e7e3      	b.n	8008160 <__ieee754_log+0x28>
 8008198:	2300      	movs	r3, #0
 800819a:	e7f5      	b.n	8008188 <__ieee754_log+0x50>
 800819c:	152c      	asrs	r4, r5, #20
 800819e:	f2a4 34ff 	subw	r4, r4, #1023	@ 0x3ff
 80081a2:	f3c5 0513 	ubfx	r5, r5, #0, #20
 80081a6:	441c      	add	r4, r3
 80081a8:	f505 2315 	add.w	r3, r5, #610304	@ 0x95000
 80081ac:	f603 7364 	addw	r3, r3, #3940	@ 0xf64
 80081b0:	f403 1380 	and.w	r3, r3, #1048576	@ 0x100000
 80081b4:	f083 527f 	eor.w	r2, r3, #1069547520	@ 0x3fc00000
 80081b8:	f482 1240 	eor.w	r2, r2, #3145728	@ 0x300000
 80081bc:	ea42 0105 	orr.w	r1, r2, r5
 80081c0:	eb04 5413 	add.w	r4, r4, r3, lsr #20
 80081c4:	2200      	movs	r2, #0
 80081c6:	4bb5      	ldr	r3, [pc, #724]	@ (800849c <__ieee754_log+0x364>)
 80081c8:	f7f8 f866 	bl	8000298 <__aeabi_dsub>
 80081cc:	1cab      	adds	r3, r5, #2
 80081ce:	f3c3 0313 	ubfx	r3, r3, #0, #20
 80081d2:	2b02      	cmp	r3, #2
 80081d4:	4682      	mov	sl, r0
 80081d6:	468b      	mov	fp, r1
 80081d8:	f04f 0200 	mov.w	r2, #0
 80081dc:	dc53      	bgt.n	8008286 <__ieee754_log+0x14e>
 80081de:	2300      	movs	r3, #0
 80081e0:	f7f8 fc7a 	bl	8000ad8 <__aeabi_dcmpeq>
 80081e4:	b1d0      	cbz	r0, 800821c <__ieee754_log+0xe4>
 80081e6:	2c00      	cmp	r4, #0
 80081e8:	f000 8120 	beq.w	800842c <__ieee754_log+0x2f4>
 80081ec:	4620      	mov	r0, r4
 80081ee:	f7f8 f9a1 	bl	8000534 <__aeabi_i2d>
 80081f2:	a391      	add	r3, pc, #580	@ (adr r3, 8008438 <__ieee754_log+0x300>)
 80081f4:	e9d3 2300 	ldrd	r2, r3, [r3]
 80081f8:	4606      	mov	r6, r0
 80081fa:	460f      	mov	r7, r1
 80081fc:	f7f8 fa04 	bl	8000608 <__aeabi_dmul>
 8008200:	a38f      	add	r3, pc, #572	@ (adr r3, 8008440 <__ieee754_log+0x308>)
 8008202:	e9d3 2300 	ldrd	r2, r3, [r3]
 8008206:	4604      	mov	r4, r0
 8008208:	460d      	mov	r5, r1
 800820a:	4630      	mov	r0, r6
 800820c:	4639      	mov	r1, r7
 800820e:	f7f8 f9fb 	bl	8000608 <__aeabi_dmul>
 8008212:	4602      	mov	r2, r0
 8008214:	460b      	mov	r3, r1
 8008216:	4620      	mov	r0, r4
 8008218:	4629      	mov	r1, r5
 800821a:	e7ba      	b.n	8008192 <__ieee754_log+0x5a>
 800821c:	a38a      	add	r3, pc, #552	@ (adr r3, 8008448 <__ieee754_log+0x310>)
 800821e:	e9d3 2300 	ldrd	r2, r3, [r3]
 8008222:	4650      	mov	r0, sl
 8008224:	4659      	mov	r1, fp
 8008226:	f7f8 f9ef 	bl	8000608 <__aeabi_dmul>
 800822a:	4602      	mov	r2, r0
 800822c:	460b      	mov	r3, r1
 800822e:	2000      	movs	r0, #0
 8008230:	499b      	ldr	r1, [pc, #620]	@ (80084a0 <__ieee754_log+0x368>)
 8008232:	f7f8 f831 	bl	8000298 <__aeabi_dsub>
 8008236:	4652      	mov	r2, sl
 8008238:	4606      	mov	r6, r0
 800823a:	460f      	mov	r7, r1
 800823c:	465b      	mov	r3, fp
 800823e:	4650      	mov	r0, sl
 8008240:	4659      	mov	r1, fp
 8008242:	f7f8 f9e1 	bl	8000608 <__aeabi_dmul>
 8008246:	4602      	mov	r2, r0
 8008248:	460b      	mov	r3, r1
 800824a:	4630      	mov	r0, r6
 800824c:	4639      	mov	r1, r7
 800824e:	f7f8 f9db 	bl	8000608 <__aeabi_dmul>
 8008252:	4606      	mov	r6, r0
 8008254:	460f      	mov	r7, r1
 8008256:	b914      	cbnz	r4, 800825e <__ieee754_log+0x126>
 8008258:	4632      	mov	r2, r6
 800825a:	463b      	mov	r3, r7
 800825c:	e0a0      	b.n	80083a0 <__ieee754_log+0x268>
 800825e:	4620      	mov	r0, r4
 8008260:	f7f8 f968 	bl	8000534 <__aeabi_i2d>
 8008264:	a374      	add	r3, pc, #464	@ (adr r3, 8008438 <__ieee754_log+0x300>)
 8008266:	e9d3 2300 	ldrd	r2, r3, [r3]
 800826a:	4680      	mov	r8, r0
 800826c:	4689      	mov	r9, r1
 800826e:	f7f8 f9cb 	bl	8000608 <__aeabi_dmul>
 8008272:	a373      	add	r3, pc, #460	@ (adr r3, 8008440 <__ieee754_log+0x308>)
 8008274:	e9d3 2300 	ldrd	r2, r3, [r3]
 8008278:	4604      	mov	r4, r0
 800827a:	460d      	mov	r5, r1
 800827c:	4640      	mov	r0, r8
 800827e:	4649      	mov	r1, r9
 8008280:	f7f8 f9c2 	bl	8000608 <__aeabi_dmul>
 8008284:	e0a5      	b.n	80083d2 <__ieee754_log+0x29a>
 8008286:	f04f 4380 	mov.w	r3, #1073741824	@ 0x40000000
 800828a:	f7f8 f807 	bl	800029c <__adddf3>
 800828e:	4602      	mov	r2, r0
 8008290:	460b      	mov	r3, r1
 8008292:	4650      	mov	r0, sl
 8008294:	4659      	mov	r1, fp
 8008296:	f7f8 fae1 	bl	800085c <__aeabi_ddiv>
 800829a:	e9cd 0100 	strd	r0, r1, [sp]
 800829e:	4620      	mov	r0, r4
 80082a0:	f7f8 f948 	bl	8000534 <__aeabi_i2d>
 80082a4:	e9dd 2300 	ldrd	r2, r3, [sp]
 80082a8:	e9cd 0102 	strd	r0, r1, [sp, #8]
 80082ac:	4610      	mov	r0, r2
 80082ae:	4619      	mov	r1, r3
 80082b0:	f7f8 f9aa 	bl	8000608 <__aeabi_dmul>
 80082b4:	4602      	mov	r2, r0
 80082b6:	460b      	mov	r3, r1
 80082b8:	e9cd 2304 	strd	r2, r3, [sp, #16]
 80082bc:	f7f8 f9a4 	bl	8000608 <__aeabi_dmul>
 80082c0:	a363      	add	r3, pc, #396	@ (adr r3, 8008450 <__ieee754_log+0x318>)
 80082c2:	e9d3 2300 	ldrd	r2, r3, [r3]
 80082c6:	4680      	mov	r8, r0
 80082c8:	4689      	mov	r9, r1
 80082ca:	f7f8 f99d 	bl	8000608 <__aeabi_dmul>
 80082ce:	a362      	add	r3, pc, #392	@ (adr r3, 8008458 <__ieee754_log+0x320>)
 80082d0:	e9d3 2300 	ldrd	r2, r3, [r3]
 80082d4:	f7f7 ffe2 	bl	800029c <__adddf3>
 80082d8:	4642      	mov	r2, r8
 80082da:	464b      	mov	r3, r9
 80082dc:	f7f8 f994 	bl	8000608 <__aeabi_dmul>
 80082e0:	a35f      	add	r3, pc, #380	@ (adr r3, 8008460 <__ieee754_log+0x328>)
 80082e2:	e9d3 2300 	ldrd	r2, r3, [r3]
 80082e6:	f7f7 ffd9 	bl	800029c <__adddf3>
 80082ea:	4642      	mov	r2, r8
 80082ec:	464b      	mov	r3, r9
 80082ee:	f7f8 f98b 	bl	8000608 <__aeabi_dmul>
 80082f2:	a35d      	add	r3, pc, #372	@ (adr r3, 8008468 <__ieee754_log+0x330>)
 80082f4:	e9d3 2300 	ldrd	r2, r3, [r3]
 80082f8:	f7f7 ffd0 	bl	800029c <__adddf3>
 80082fc:	e9dd 2304 	ldrd	r2, r3, [sp, #16]
 8008300:	f7f8 f982 	bl	8000608 <__aeabi_dmul>
 8008304:	a35a      	add	r3, pc, #360	@ (adr r3, 8008470 <__ieee754_log+0x338>)
 8008306:	e9d3 2300 	ldrd	r2, r3, [r3]
 800830a:	e9cd 0104 	strd	r0, r1, [sp, #16]
 800830e:	4640      	mov	r0, r8
 8008310:	4649      	mov	r1, r9
 8008312:	f7f8 f979 	bl	8000608 <__aeabi_dmul>
 8008316:	a358      	add	r3, pc, #352	@ (adr r3, 8008478 <__ieee754_log+0x340>)
 8008318:	e9d3 2300 	ldrd	r2, r3, [r3]
 800831c:	f7f7 ffbe 	bl	800029c <__adddf3>
 8008320:	4642      	mov	r2, r8
 8008322:	464b      	mov	r3, r9
 8008324:	f7f8 f970 	bl	8000608 <__aeabi_dmul>
 8008328:	a355      	add	r3, pc, #340	@ (adr r3, 8008480 <__ieee754_log+0x348>)
 800832a:	e9d3 2300 	ldrd	r2, r3, [r3]
 800832e:	f7f7 ffb5 	bl	800029c <__adddf3>
 8008332:	4642      	mov	r2, r8
 8008334:	464b      	mov	r3, r9
 8008336:	f7f8 f967 	bl	8000608 <__aeabi_dmul>
 800833a:	f5a5 26c2 	sub.w	r6, r5, #397312	@ 0x61000
 800833e:	4602      	mov	r2, r0
 8008340:	460b      	mov	r3, r1
 8008342:	f5c5 25d7 	rsb	r5, r5, #440320	@ 0x6b800
 8008346:	e9dd 0104 	ldrd	r0, r1, [sp, #16]
 800834a:	f7f7 ffa7 	bl	800029c <__adddf3>
 800834e:	f2a6 467a 	subw	r6, r6, #1146	@ 0x47a
 8008352:	3551      	adds	r5, #81	@ 0x51
 8008354:	4335      	orrs	r5, r6
 8008356:	2d00      	cmp	r5, #0
 8008358:	4680      	mov	r8, r0
 800835a:	4689      	mov	r9, r1
 800835c:	dd48      	ble.n	80083f0 <__ieee754_log+0x2b8>
 800835e:	4b50      	ldr	r3, [pc, #320]	@ (80084a0 <__ieee754_log+0x368>)
 8008360:	2200      	movs	r2, #0
 8008362:	4650      	mov	r0, sl
 8008364:	4659      	mov	r1, fp
 8008366:	f7f8 f94f 	bl	8000608 <__aeabi_dmul>
 800836a:	4652      	mov	r2, sl
 800836c:	465b      	mov	r3, fp
 800836e:	f7f8 f94b 	bl	8000608 <__aeabi_dmul>
 8008372:	4602      	mov	r2, r0
 8008374:	460b      	mov	r3, r1
 8008376:	4606      	mov	r6, r0
 8008378:	460f      	mov	r7, r1
 800837a:	4640      	mov	r0, r8
 800837c:	4649      	mov	r1, r9
 800837e:	f7f7 ff8d 	bl	800029c <__adddf3>
 8008382:	e9dd 2300 	ldrd	r2, r3, [sp]
 8008386:	f7f8 f93f 	bl	8000608 <__aeabi_dmul>
 800838a:	4680      	mov	r8, r0
 800838c:	4689      	mov	r9, r1
 800838e:	b964      	cbnz	r4, 80083aa <__ieee754_log+0x272>
 8008390:	4602      	mov	r2, r0
 8008392:	460b      	mov	r3, r1
 8008394:	4630      	mov	r0, r6
 8008396:	4639      	mov	r1, r7
 8008398:	f7f7 ff7e 	bl	8000298 <__aeabi_dsub>
 800839c:	4602      	mov	r2, r0
 800839e:	460b      	mov	r3, r1
 80083a0:	4650      	mov	r0, sl
 80083a2:	4659      	mov	r1, fp
 80083a4:	f7f7 ff78 	bl	8000298 <__aeabi_dsub>
 80083a8:	e6da      	b.n	8008160 <__ieee754_log+0x28>
 80083aa:	a323      	add	r3, pc, #140	@ (adr r3, 8008438 <__ieee754_log+0x300>)
 80083ac:	e9d3 2300 	ldrd	r2, r3, [r3]
 80083b0:	e9dd 0102 	ldrd	r0, r1, [sp, #8]
 80083b4:	f7f8 f928 	bl	8000608 <__aeabi_dmul>
 80083b8:	a321      	add	r3, pc, #132	@ (adr r3, 8008440 <__ieee754_log+0x308>)
 80083ba:	e9d3 2300 	ldrd	r2, r3, [r3]
 80083be:	4604      	mov	r4, r0
 80083c0:	460d      	mov	r5, r1
 80083c2:	e9dd 0102 	ldrd	r0, r1, [sp, #8]
 80083c6:	f7f8 f91f 	bl	8000608 <__aeabi_dmul>
 80083ca:	4642      	mov	r2, r8
 80083cc:	464b      	mov	r3, r9
 80083ce:	f7f7 ff65 	bl	800029c <__adddf3>
 80083d2:	4602      	mov	r2, r0
 80083d4:	460b      	mov	r3, r1
 80083d6:	4630      	mov	r0, r6
 80083d8:	4639      	mov	r1, r7
 80083da:	f7f7 ff5d 	bl	8000298 <__aeabi_dsub>
 80083de:	4652      	mov	r2, sl
 80083e0:	465b      	mov	r3, fp
 80083e2:	f7f7 ff59 	bl	8000298 <__aeabi_dsub>
 80083e6:	4602      	mov	r2, r0
 80083e8:	460b      	mov	r3, r1
 80083ea:	4620      	mov	r0, r4
 80083ec:	4629      	mov	r1, r5
 80083ee:	e7d9      	b.n	80083a4 <__ieee754_log+0x26c>
 80083f0:	4602      	mov	r2, r0
 80083f2:	460b      	mov	r3, r1
 80083f4:	4650      	mov	r0, sl
 80083f6:	4659      	mov	r1, fp
 80083f8:	f7f7 ff4e 	bl	8000298 <__aeabi_dsub>
 80083fc:	e9dd 2300 	ldrd	r2, r3, [sp]
 8008400:	f7f8 f902 	bl	8000608 <__aeabi_dmul>
 8008404:	4606      	mov	r6, r0
 8008406:	460f      	mov	r7, r1
 8008408:	2c00      	cmp	r4, #0
 800840a:	f43f af25 	beq.w	8008258 <__ieee754_log+0x120>
 800840e:	a30a      	add	r3, pc, #40	@ (adr r3, 8008438 <__ieee754_log+0x300>)
 8008410:	e9d3 2300 	ldrd	r2, r3, [r3]
 8008414:	e9dd 0102 	ldrd	r0, r1, [sp, #8]
 8008418:	f7f8 f8f6 	bl	8000608 <__aeabi_dmul>
 800841c:	a308      	add	r3, pc, #32	@ (adr r3, 8008440 <__ieee754_log+0x308>)
 800841e:	e9d3 2300 	ldrd	r2, r3, [r3]
 8008422:	4604      	mov	r4, r0
 8008424:	460d      	mov	r5, r1
 8008426:	e9dd 0102 	ldrd	r0, r1, [sp, #8]
 800842a:	e729      	b.n	8008280 <__ieee754_log+0x148>
 800842c:	ed9f 0b16 	vldr	d0, [pc, #88]	@ 8008488 <__ieee754_log+0x350>
 8008430:	e698      	b.n	8008164 <__ieee754_log+0x2c>
 8008432:	bf00      	nop
 8008434:	f3af 8000 	nop.w
 8008438:	fee00000 	.word	0xfee00000
 800843c:	3fe62e42 	.word	0x3fe62e42
 8008440:	35793c76 	.word	0x35793c76
 8008444:	3dea39ef 	.word	0x3dea39ef
 8008448:	55555555 	.word	0x55555555
 800844c:	3fd55555 	.word	0x3fd55555
 8008450:	df3e5244 	.word	0xdf3e5244
 8008454:	3fc2f112 	.word	0x3fc2f112
 8008458:	96cb03de 	.word	0x96cb03de
 800845c:	3fc74664 	.word	0x3fc74664
 8008460:	94229359 	.word	0x94229359
 8008464:	3fd24924 	.word	0x3fd24924
 8008468:	55555593 	.word	0x55555593
 800846c:	3fe55555 	.word	0x3fe55555
 8008470:	d078c69f 	.word	0xd078c69f
 8008474:	3fc39a09 	.word	0x3fc39a09
 8008478:	1d8e78af 	.word	0x1d8e78af
 800847c:	3fcc71c5 	.word	0x3fcc71c5
 8008480:	9997fa04 	.word	0x9997fa04
 8008484:	3fd99999 	.word	0x3fd99999
	...
 8008490:	c3500000 	.word	0xc3500000
 8008494:	43500000 	.word	0x43500000
 8008498:	7fefffff 	.word	0x7fefffff
 800849c:	3ff00000 	.word	0x3ff00000
 80084a0:	3fe00000 	.word	0x3fe00000

080084a4 <_init>:
 80084a4:	b5f8      	push	{r3, r4, r5, r6, r7, lr}
 80084a6:	bf00      	nop
 80084a8:	bcf8      	pop	{r3, r4, r5, r6, r7}
 80084aa:	bc08      	pop	{r3}
 80084ac:	469e      	mov	lr, r3
 80084ae:	4770      	bx	lr

080084b0 <_fini>:
 80084b0:	b5f8      	push	{r3, r4, r5, r6, r7, lr}
 80084b2:	bf00      	nop
 80084b4:	bcf8      	pop	{r3, r4, r5, r6, r7}
 80084b6:	bc08      	pop	{r3}
 80084b8:	469e      	mov	lr, r3
 80084ba:	4770      	bx	lr
